   1              	 .cpu cortex-m0
   2              	 .fpu softvfp
   3              	 .eabi_attribute 20,1
   4              	 .eabi_attribute 21,1
   5              	 .eabi_attribute 23,3
   6              	 .eabi_attribute 24,1
   7              	 .eabi_attribute 25,1
   8              	 .eabi_attribute 26,1
   9              	 .eabi_attribute 30,4
  10              	 .eabi_attribute 34,0
  11              	 .eabi_attribute 18,4
  12              	 .code 16
  13              	 .file "pmsm_foc.c"
  14              	 .section .text.PMSM_FOC_ISRInit,"ax",%progbits
  15              	 .align 1
  16              	 .code 16
  17              	 .thumb_func
  19              	PMSM_FOC_ISRInit:
  20 0000 0178     	 ldrb r1,[r0]
  21 0002 4278     	 ldrb r2,[r0,#1]
  22 0004 4BB2     	 sxtb r3,r1
  23 0006 F0B5     	 push {r4,r5,r6,r7,lr}
  24 0008 9201     	 lsl r2,r2,#6
  25 000a 002B     	 cmp r3,#0
  26 000c 13DB     	 blt .L2
  27 000e 1A4C     	 ldr r4,.L6
  28 0010 9B08     	 lsr r3,r3,#2
  29 0012 9B00     	 lsl r3,r3,#2
  30 0014 1B19     	 add r3,r3,r4
  31 0016 0324     	 mov r4,#3
  32 0018 2140     	 and r1,r4
  33 001a A140     	 lsl r1,r1,r4
  34 001c FC34     	 add r4,r4,#252
  35 001e 271C     	 mov r7,r4
  36 0020 C025     	 mov r5,#192
  37 0022 8F40     	 lsl r7,r7,r1
  38 0024 AD00     	 lsl r5,r5,#2
  39 0026 5E59     	 ldr r6,[r3,r5]
  40 0028 1440     	 and r4,r2
  41 002a BE43     	 bic r6,r7
  42 002c 8C40     	 lsl r4,r4,r1
  43 002e 321C     	 mov r2,r6
  44 0030 2243     	 orr r2,r4
  45 0032 5A51     	 str r2,[r3,r5]
  46 0034 13E0     	 b .L3
  47              	.L2:
  48 0036 0F23     	 mov r3,#15
  49 0038 0B40     	 and r3,r1
  50 003a 083B     	 sub r3,r3,#8
  51 003c 0F4C     	 ldr r4,.L6+4
  52 003e 9B08     	 lsr r3,r3,#2
  53 0040 0325     	 mov r5,#3
  54 0042 9B00     	 lsl r3,r3,#2
  55 0044 1B19     	 add r3,r3,r4
  56 0046 FF24     	 mov r4,#255
  57 0048 2940     	 and r1,r5
  58 004a A940     	 lsl r1,r1,r5
  59 004c 251C     	 mov r5,r4
  60 004e 8D40     	 lsl r5,r5,r1
  61 0050 DE69     	 ldr r6,[r3,#28]
  62 0052 1440     	 and r4,r2
  63 0054 AE43     	 bic r6,r5
  64 0056 8C40     	 lsl r4,r4,r1
  65 0058 321C     	 mov r2,r6
  66 005a 2243     	 orr r2,r4
  67 005c DA61     	 str r2,[r3,#28]
  68              	.L3:
  69 005e 0278     	 ldrb r2,[r0]
  70 0060 53B2     	 sxtb r3,r2
  71 0062 002B     	 cmp r3,#0
  72 0064 06DB     	 blt .L1
  73 0066 1F23     	 mov r3,#31
  74 0068 1340     	 and r3,r2
  75 006a 0122     	 mov r2,#1
  76 006c 9A40     	 lsl r2,r2,r3
  77 006e 131C     	 mov r3,r2
  78 0070 014A     	 ldr r2,.L6
  79 0072 1360     	 str r3,[r2]
  80              	.L1:
  81              	 
  82 0074 F0BD     	 pop {r4,r5,r6,r7,pc}
  83              	.L7:
  84 0076 C046     	 .align 2
  85              	.L6:
  86 0078 00E100E0 	 .word -536813312
  87 007c 00ED00E0 	 .word -536810240
  89              	 .section .text.PMSM_FOC_GetAppVersion,"ax",%progbits
  90              	 .align 1
  91              	 .global PMSM_FOC_GetAppVersion
  92              	 .code 16
  93              	 .thumb_func
  95              	PMSM_FOC_GetAppVersion:
  96 0000 0148     	 ldr r0,.L9
  97 0002 82B0     	 sub sp,sp,#8
  98 0004 02B0     	 add sp,sp,#8
  99              	 
 100 0006 7047     	 bx lr
 101              	.L10:
 102              	 .align 2
 103              	.L9:
 104 0008 04020E00 	 .word 918020
 106              	 .section .text.PMSM_FOC_Init,"ax",%progbits
 107              	 .align 1
 108              	 .global PMSM_FOC_Init
 109              	 .code 16
 110              	 .thumb_func
 112              	PMSM_FOC_Init:
 113 0000 0023     	 mov r3,#0
 114 0002 F0B5     	 push {r4,r5,r6,r7,lr}
 115 0004 87B0     	 sub sp,sp,#28
 116 0006 0593     	 str r3,[sp,#20]
 117              	.L43:
 118 0008 0593     	 str r3,[sp,#20]
 119 000a 059A     	 ldr r2,[sp,#20]
 120 000c 484B     	 ldr r3,.L45
 121 000e 9A42     	 cmp r2,r3
 122 0010 02D8     	 bhi .L44
 123 0012 059B     	 ldr r3,[sp,#20]
 124 0014 0133     	 add r3,r3,#1
 125 0016 F7E7     	 b .L43
 126              	.L44:
 127 0018 031C     	 mov r3,r0
 128 001a B633     	 add r3,r3,#182
 129 001c 1A78     	 ldrb r2,[r3]
 130 001e 0023     	 mov r3,#0
 131 0020 9A42     	 cmp r2,r3
 132 0022 00D0     	 beq .LCB148
 133 0024 81E0     	 b .L14
 134              	.LCB148:
 135 0026 041C     	 mov r4,r0
 136 0028 8068     	 ldr r0,[r0,#8]
 137 002a FFF7FEFF 	 bl PMSM_FOC_ISRInit
 138 002e 231C     	 mov r3,r4
 139 0030 A433     	 add r3,r3,#164
 140 0032 1868     	 ldr r0,[r3]
 141 0034 FFF7FEFF 	 bl PMSM_FOC_ISRInit
 142 0038 6068     	 ldr r0,[r4,#4]
 143 003a FFF7FEFF 	 bl PWM_SVM_Init
 144 003e 2368     	 ldr r3,[r4]
 145 0040 0390     	 str r0,[sp,#12]
 146 0042 4633     	 add r3,r3,#70
 147 0044 1B78     	 ldrb r3,[r3]
 148 0046 012B     	 cmp r3,#1
 149 0048 07D9     	 bls .L15
 150 004a 0221     	 mov r1,#2
 151 004c 6368     	 ldr r3,[r4,#4]
 152 004e DB68     	 ldr r3,[r3,#12]
 153 0050 1B68     	 ldr r3,[r3]
 154 0052 A433     	 add r3,r3,#164
 155 0054 1A68     	 ldr r2,[r3]
 156 0056 0A43     	 orr r2,r1
 157 0058 1A60     	 str r2,[r3]
 158              	.L15:
 159 005a 6569     	 ldr r5,[r4,#20]
 160 005c 0022     	 mov r2,#0
 161 005e 2B1C     	 mov r3,r5
 162 0060 9433     	 add r3,r3,#148
 163 0062 1B78     	 ldrb r3,[r3]
 164 0064 0192     	 str r2,[sp,#4]
 165 0066 9342     	 cmp r3,r2
 166 0068 03D1     	 bne .L16
 167 006a A86B     	 ldr r0,[r5,#56]
 168 006c FFF7FEFF 	 bl ADC_QUEUE_Init
 169 0070 0190     	 str r0,[sp,#4]
 170              	.L16:
 171 0072 2B1C     	 mov r3,r5
 172 0074 9533     	 add r3,r3,#149
 173 0076 1B78     	 ldrb r3,[r3]
 174 0078 002B     	 cmp r3,#0
 175 007a 05D1     	 bne .L17
 176 007c E86B     	 ldr r0,[r5,#60]
 177 007e FFF7FEFF 	 bl ADC_QUEUE_Init
 178 0082 019B     	 ldr r3,[sp,#4]
 179 0084 0343     	 orr r3,r0
 180 0086 0193     	 str r3,[sp,#4]
 181              	.L17:
 182 0088 2B1C     	 mov r3,r5
 183 008a 2E1C     	 mov r6,r5
 184 008c 2F1C     	 mov r7,r5
 185 008e 5433     	 add r3,r3,#84
 186 0090 3836     	 add r6,r6,#56
 187 0092 9637     	 add r7,r7,#150
 188 0094 0293     	 str r3,[sp,#8]
 189              	.L20:
 190 0096 716A     	 ldr r1,[r6,#36]
 191 0098 0029     	 cmp r1,#0
 192 009a 0DD0     	 beq .L18
 193 009c 0320     	 mov r0,#3
 194 009e 3368     	 ldr r3,[r6]
 195 00a0 DB7E     	 ldrb r3,[r3,#27]
 196 00a2 0340     	 and r3,r0
 197 00a4 1A1C     	 mov r2,r3
 198 00a6 0B78     	 ldrb r3,[r1]
 199 00a8 8343     	 bic r3,r0
 200 00aa 1343     	 orr r3,r2
 201 00ac 0B70     	 strb r3,[r1]
 202 00ae 3978     	 ldrb r1,[r7]
 203 00b0 306C     	 ldr r0,[r6,#64]
 204 00b2 726A     	 ldr r2,[r6,#36]
 205 00b4 FFF7FEFF 	 bl XMC_VADC_GROUP_ChannelInit
 206              	.L18:
 207 00b8 B268     	 ldr r2,[r6,#8]
 208 00ba 002A     	 cmp r2,#0
 209 00bc 05D0     	 beq .L19
 210 00be FB79     	 ldrb r3,[r7,#7]
 211 00c0 1268     	 ldr r2,[r2]
 212 00c2 A033     	 add r3,r3,#160
 213 00c4 316C     	 ldr r1,[r6,#64]
 214 00c6 9B00     	 lsl r3,r3,#2
 215 00c8 5A50     	 str r2,[r3,r1]
 216              	.L19:
 217 00ca 029B     	 ldr r3,[sp,#8]
 218 00cc 0436     	 add r6,r6,#4
 219 00ce 0137     	 add r7,r7,#1
 220 00d0 9E42     	 cmp r6,r3
 221 00d2 E0D1     	 bne .L20
 222 00d4 2B1C     	 mov r3,r5
 223 00d6 2F1C     	 mov r7,r5
 224 00d8 0833     	 add r3,r3,#8
 225 00da 9437     	 add r7,r7,#148
 226 00dc 0293     	 str r3,[sp,#8]
 227              	.L24:
 228 00de 3E78     	 ldrb r6,[r7]
 229 00e0 002E     	 cmp r6,#0
 230 00e2 0BD1     	 bne .L21
 231              	.L23:
 232 00e4 A959     	 ldr r1,[r5,r6]
 233 00e6 0029     	 cmp r1,#0
 234 00e8 02D0     	 beq .L22
 235 00ea A86B     	 ldr r0,[r5,#56]
 236 00ec FFF7FEFF 	 bl ADC_QUEUE_InsertQueueEntry
 237              	.L22:
 238 00f0 0836     	 add r6,r6,#8
 239 00f2 382E     	 cmp r6,#56
 240 00f4 F6D1     	 bne .L23
 241 00f6 A86B     	 ldr r0,[r5,#56]
 242 00f8 FFF7FEFF 	 bl ADC_QUEUE_AllEntriesInserted
 243              	.L21:
 244 00fc 029B     	 ldr r3,[sp,#8]
 245 00fe 0435     	 add r5,r5,#4
 246 0100 0137     	 add r7,r7,#1
 247 0102 9D42     	 cmp r5,r3
 248 0104 EBD1     	 bne .L24
 249 0106 0123     	 mov r3,#1
 250 0108 019A     	 ldr r2,[sp,#4]
 251 010a 9A42     	 cmp r2,r3
 252 010c 06D0     	 beq .L25
 253 010e 039A     	 ldr r2,[sp,#12]
 254 0110 9A42     	 cmp r2,r3
 255 0112 03D0     	 beq .L25
 256 0114 B634     	 add r4,r4,#182
 257 0116 2370     	 strb r3,[r4]
 258 0118 0023     	 mov r3,#0
 259 011a 06E0     	 b .L14
 260              	.L25:
 261 011c 226C     	 ldr r2,[r4,#64]
 262 011e 3034     	 add r4,r4,#48
 263 0120 1343     	 orr r3,r2
 264 0122 2361     	 str r3,[r4,#16]
 265 0124 0F23     	 mov r3,#15
 266 0126 2370     	 strb r3,[r4]
 267 0128 0E3B     	 sub r3,r3,#14
 268              	.L14:
 269 012a D8B2     	 uxtb r0,r3
 270 012c 07B0     	 add sp,sp,#28
 271              	 
 272 012e F0BD     	 pop {r4,r5,r6,r7,pc}
 273              	.L46:
 274              	 .align 2
 275              	.L45:
 276 0130 FEFF0700 	 .word 524286
 278              	 .section .text.PMSM_FOC_MotorParamInit,"ax",%progbits
 279              	 .align 1
 280              	 .global PMSM_FOC_MotorParamInit
 281              	 .code 16
 282              	 .thumb_func
 284              	PMSM_FOC_MotorParamInit:
 285 0000 4368     	 ldr r3,[r0,#4]
 286 0002 F0B5     	 push {r4,r5,r6,r7,lr}
 287 0004 1A68     	 ldr r2,[r3]
 288 0006 041C     	 mov r4,r0
 289 0008 1168     	 ldr r1,[r2]
 290 000a 5268     	 ldr r2,[r2,#4]
 291 000c 5967     	 str r1,[r3,#116]
 292 000e 9A67     	 str r2,[r3,#120]
 293 0010 021C     	 mov r2,r0
 294 0012 0121     	 mov r1,#1
 295 0014 0225     	 mov r5,#2
 296 0016 061C     	 mov r6,r0
 297 0018 B734     	 add r4,r4,#183
 298 001a B832     	 add r2,r2,#184
 299 001c 2170     	 strb r1,[r4]
 300 001e B236     	 add r6,r6,#178
 301 0020 1570     	 strb r5,[r2]
 302 0022 3678     	 ldrb r6,[r6]
 303 0024 76B2     	 sxtb r6,r6
 304 0026 0136     	 add r6,r6,#1
 305 0028 06D1     	 bne .L48
 306 002a 1E68     	 ldr r6,[r3]
 307 002c 7768     	 ldr r7,[r6,#4]
 308 002e 3668     	 ldr r6,[r6]
 309 0030 5F67     	 str r7,[r3,#116]
 310 0032 9E67     	 str r6,[r3,#120]
 311 0034 2570     	 strb r5,[r4]
 312 0036 1170     	 strb r1,[r2]
 313              	.L48:
 314 0038 021C     	 mov r2,r0
 315 003a 0023     	 mov r3,#0
 316 003c A032     	 add r2,r2,#160
 317 003e 8365     	 str r3,[r0,#88]
 318 0040 C365     	 str r3,[r0,#92]
 319 0042 4365     	 str r3,[r0,#84]
 320 0044 4364     	 str r3,[r0,#68]
 321 0046 043A     	 sub r2,r2,#4
 322 0048 5360     	 str r3,[r2,#4]
 323 004a 4366     	 str r3,[r0,#100]
 324 004c 8367     	 str r3,[r0,#120]
 325 004e C364     	 str r3,[r0,#76]
 326 0050 1376     	 strb r3,[r2,#24]
 327 0052 1268     	 ldr r2,[r2]
 328 0054 0168     	 ldr r1,[r0]
 329 0056 C263     	 str r2,[r0,#60]
 330 0058 021C     	 mov r2,r0
 331 005a 8832     	 add r2,r2,#136
 332 005c 4C6A     	 ldr r4,[r1,#36]
 333 005e 1268     	 ldr r2,[r2]
 334 0060 061D     	 add r6,r0,#4
 335 0062 9440     	 lsl r4,r4,r2
 336 0064 F467     	 str r4,[r6,#124]
 337 0066 8C6A     	 ldr r4,[r1,#40]
 338 0068 051C     	 mov r5,r0
 339 006a 013A     	 sub r2,r2,#1
 340 006c 9440     	 lsl r4,r4,r2
 341 006e 0A6A     	 ldr r2,[r1,#32]
 342 0070 0835     	 add r5,r5,#8
 343 0072 EC67     	 str r4,[r5,#124]
 344 0074 C267     	 str r2,[r0,#124]
 345 0076 826A     	 ldr r2,[r0,#40]
 346              	 
 347 0078 D362     	 str r3,[r2,#44]
 348 007a 1363     	 str r3,[r2,#48]
 349 007c 5363     	 str r3,[r2,#52]
 350 007e 026A     	 ldr r2,[r0,#32]
 351 0080 9360     	 str r3,[r2,#8]
 352 0082 426A     	 ldr r2,[r0,#36]
 353 0084 9360     	 str r3,[r2,#8]
 354 0086 8269     	 ldr r2,[r0,#24]
 355 0088 9360     	 str r3,[r2,#8]
 356 008a C269     	 ldr r2,[r0,#28]
 357 008c 9360     	 str r3,[r2,#8]
 358 008e F0BD     	 pop {r4,r5,r6,r7,pc}
 360              	 .section .text.PMSM_FOC_MotorStart,"ax",%progbits
 361              	 .align 1
 362              	 .global PMSM_FOC_MotorStart
 363              	 .code 16
 364              	 .thumb_func
 366              	PMSM_FOC_MotorStart:
 367 0000 08B5     	 push {r3,lr}
 368 0002 031C     	 mov r3,r0
 369 0004 3033     	 add r3,r3,#48
 370 0006 1A78     	 ldrb r2,[r3]
 371 0008 002A     	 cmp r2,#0
 372 000a 03D1     	 bne .L49
 373 000c 0132     	 add r2,r2,#1
 374 000e 1A70     	 strb r2,[r3]
 375 0010 FFF7FEFF 	 bl PMSM_FOC_MSM
 376              	.L49:
 377              	 
 378 0014 08BD     	 pop {r3,pc}
 380              	 .section .text.PMSM_FOC_MotorStop,"ax",%progbits
 381              	 .align 1
 382              	 .global PMSM_FOC_MotorStop
 383              	 .code 16
 384              	 .thumb_func
 386              	PMSM_FOC_MotorStop:
 387 0000 10B5     	 push {r4,lr}
 388 0002 041C     	 mov r4,r0
 389 0004 4068     	 ldr r0,[r0,#4]
 390 0006 FFF7FEFF 	 bl PWM_SVM_Stop
 391 000a 0023     	 mov r3,#0
 392 000c 6365     	 str r3,[r4,#84]
 393 000e 231C     	 mov r3,r4
 394 0010 226C     	 ldr r2,[r4,#64]
 395 0012 3033     	 add r3,r3,#48
 396 0014 002A     	 cmp r2,#0
 397 0016 05D0     	 beq .L52
 398 0018 0F22     	 mov r2,#15
 399 001a 201C     	 mov r0,r4
 400 001c 1A70     	 strb r2,[r3]
 401 001e FFF7FEFF 	 bl PMSM_FOC_MSM
 402 0022 00E0     	 b .L51
 403              	.L52:
 404 0024 1A70     	 strb r2,[r3]
 405              	.L51:
 406              	 
 407 0026 10BD     	 pop {r4,pc}
 409              	 .section .text.PMSM_FOC_AmpBiasVoltCalibration,"ax",%progbits
 410              	 .align 1
 411              	 .global PMSM_FOC_AmpBiasVoltCalibration
 412              	 .code 16
 413              	 .thumb_func
 415              	PMSM_FOC_AmpBiasVoltCalibration:
 416 0000 7FB5     	 push {r0,r1,r2,r3,r4,r5,r6,lr}
 417 0002 0268     	 ldr r2,[r0]
 418 0004 0023     	 mov r3,#0
 419 0006 111C     	 mov r1,r2
 420 0008 4731     	 add r1,r1,#71
 421 000a 0978     	 ldrb r1,[r1]
 422 000c 0193     	 str r3,[sp,#4]
 423 000e 8907     	 lsl r1,r1,#30
 424 0010 2DD5     	 bpl .L55
 425 0012 4432     	 add r2,r2,#68
 426 0014 1278     	 ldrb r2,[r2]
 427 0016 9A42     	 cmp r2,r3
 428 0018 00D1     	 bne .L56
 429 001a 0333     	 add r3,r3,#3
 430              	.L56:
 431 001c 0022     	 mov r2,#0
 432              	.L64:
 433 001e 0292     	 str r2,[sp,#8]
 434 0020 029A     	 ldr r2,[sp,#8]
 435 0022 0F2A     	 cmp r2,#15
 436 0024 20D8     	 bhi .L66
 437 0026 191C     	 mov r1,r3
 438 0028 4269     	 ldr r2,[r0,#20]
 439 002a 1E31     	 add r1,r1,#30
 440 002c 8900     	 lsl r1,r1,#2
 441 002e 8958     	 ldr r1,[r1,r2]
 442 0030 8026     	 mov r6,#128
 443 0032 0D1C     	 mov r5,r1
 444 0034 FC35     	 add r5,r5,#252
 445 0036 AC68     	 ldr r4,[r5,#8]
 446 0038 B600     	 lsl r6,r6,#2
 447 003a 3443     	 orr r4,r6
 448 003c AC60     	 str r4,[r5,#8]
 449 003e 0024     	 mov r4,#0
 450              	.L63:
 451 0040 0394     	 str r4,[sp,#12]
 452 0042 039C     	 ldr r4,[sp,#12]
 453 0044 FE2C     	 cmp r4,#254
 454 0046 02D8     	 bhi .L67
 455 0048 039C     	 ldr r4,[sp,#12]
 456 004a 0134     	 add r4,r4,#1
 457 004c F8E7     	 b .L63
 458              	.L67:
 459 004e D218     	 add r2,r2,r3
 460 0050 9832     	 add r2,r2,#152
 461 0052 5279     	 ldrb r2,[r2,#5]
 462 0054 C032     	 add r2,r2,#192
 463 0056 9200     	 lsl r2,r2,#2
 464 0058 5258     	 ldr r2,[r2,r1]
 465 005a 0199     	 ldr r1,[sp,#4]
 466 005c 92B2     	 uxth r2,r2
 467 005e 5218     	 add r2,r2,r1
 468 0060 0192     	 str r2,[sp,#4]
 469 0062 029A     	 ldr r2,[sp,#8]
 470 0064 0132     	 add r2,r2,#1
 471 0066 DAE7     	 b .L64
 472              	.L66:
 473 0068 019B     	 ldr r3,[sp,#4]
 474 006a 1B09     	 lsr r3,r3,#4
 475 006c 01E0     	 b .L65
 476              	.L55:
 477 006e 938F     	 ldrh r3,[r2,#60]
 478 0070 9B08     	 lsr r3,r3,#2
 479              	.L65:
 480 0072 AC30     	 add r0,r0,#172
 481 0074 0380     	 strh r3,[r0]
 482              	 
 483 0076 7FBD     	 pop {r0,r1,r2,r3,r4,r5,r6,pc}
 485              	 .section .text.PMSM_FOC_StartPWMTimer,"ax",%progbits
 486              	 .align 1
 487              	 .global PMSM_FOC_StartPWMTimer
 488              	 .code 16
 489              	 .thumb_func
 491              	PMSM_FOC_StartPWMTimer:
 492 0000 37B5     	 push {r0,r1,r2,r4,r5,lr}
 493 0002 6B46     	 mov r3,sp
 494 0004 DC1D     	 add r4,r3,#7
 495 0006 0023     	 mov r3,#0
 496 0008 4568     	 ldr r5,[r0,#4]
 497              	.L73:
 498 000a 2370     	 strb r3,[r4]
 499 000c 2378     	 ldrb r3,[r4]
 500 000e 032B     	 cmp r3,#3
 501 0010 0CD8     	 bhi .L75
 502 0012 0121     	 mov r1,#1
 503 0014 2378     	 ldrb r3,[r4]
 504 0016 0A1C     	 mov r2,r1
 505 0018 0233     	 add r3,r3,#2
 506 001a 9B00     	 lsl r3,r3,#2
 507 001c 5B59     	 ldr r3,[r3,r5]
 508 001e 1868     	 ldr r0,[r3]
 509 0020 FFF7FEFF 	 bl XMC_CCU8_SLICE_StartConfig
 510 0024 2378     	 ldrb r3,[r4]
 511 0026 0133     	 add r3,r3,#1
 512 0028 DBB2     	 uxtb r3,r3
 513 002a EEE7     	 b .L73
 514              	.L75:
 515 002c 0C4A     	 ldr r2,.L77
 516 002e 2B68     	 ldr r3,[r5]
 517 0030 116B     	 ldr r1,[r2,#48]
 518 0032 1B6A     	 ldr r3,[r3,#32]
 519 0034 0B43     	 orr r3,r1
 520 0036 1363     	 str r3,[r2,#48]
 521 0038 0023     	 mov r3,#0
 522              	.L74:
 523 003a 2370     	 strb r3,[r4]
 524 003c 2378     	 ldrb r3,[r4]
 525 003e 032B     	 cmp r3,#3
 526 0040 0CD8     	 bhi .L76
 527 0042 2378     	 ldrb r3,[r4]
 528 0044 0021     	 mov r1,#0
 529 0046 0233     	 add r3,r3,#2
 530 0048 9B00     	 lsl r3,r3,#2
 531 004a 5B59     	 ldr r3,[r3,r5]
 532 004c 0122     	 mov r2,#1
 533 004e 1868     	 ldr r0,[r3]
 534 0050 FFF7FEFF 	 bl XMC_CCU8_SLICE_StartConfig
 535 0054 2378     	 ldrb r3,[r4]
 536 0056 0133     	 add r3,r3,#1
 537 0058 DBB2     	 uxtb r3,r3
 538 005a EEE7     	 b .L74
 539              	.L76:
 540              	 
 541 005c 37BD     	 pop {r0,r1,r2,r4,r5,pc}
 542              	.L78:
 543 005e C046     	 .align 2
 544              	.L77:
 545 0060 00000140 	 .word 1073807360
 547              	 .section .text.PMSM_FOC_StopPWMTimer,"ax",%progbits
 548              	 .align 1
 549              	 .global PMSM_FOC_StopPWMTimer
 550              	 .code 16
 551              	 .thumb_func
 553              	PMSM_FOC_StopPWMTimer:
 554 0000 4168     	 ldr r1,[r0,#4]
 555 0002 034A     	 ldr r2,.L80
 556 0004 0968     	 ldr r1,[r1]
 557 0006 136B     	 ldr r3,[r2,#48]
 558 0008 096A     	 ldr r1,[r1,#32]
 559              	 
 560 000a 8B43     	 bic r3,r1
 561 000c 1363     	 str r3,[r2,#48]
 562 000e 7047     	 bx lr
 563              	.L81:
 564              	 .align 2
 565              	.L80:
 566 0010 00000140 	 .word 1073807360
 568              	 .section .text.PMSM_FOC_BootstrapConfiguration,"ax",%progbits
 569              	 .align 1
 570              	 .global PMSM_FOC_BootstrapConfiguration
 571              	 .code 16
 572              	 .thumb_func
 574              	PMSM_FOC_BootstrapConfiguration:
 575 0000 73B5     	 push {r0,r1,r4,r5,r6,lr}
 576 0002 6B46     	 mov r3,sp
 577 0004 061C     	 mov r6,r0
 578 0006 DC1D     	 add r4,r3,#7
 579 0008 0023     	 mov r3,#0
 580 000a 4568     	 ldr r5,[r0,#4]
 581              	.L85:
 582 000c 2370     	 strb r3,[r4]
 583 000e 2378     	 ldrb r3,[r4]
 584 0010 022B     	 cmp r3,#2
 585 0012 16D8     	 bhi .L86
 586 0014 2378     	 ldrb r3,[r4]
 587 0016 0021     	 mov r1,#0
 588 0018 0233     	 add r3,r3,#2
 589 001a 9B00     	 lsl r3,r3,#2
 590 001c 5B59     	 ldr r3,[r3,r5]
 591 001e 0B4A     	 ldr r2,.L87
 592 0020 1868     	 ldr r0,[r3]
 593 0022 FFF7FEFF 	 bl XMC_CCU8_SLICE_SetTimerCompareMatch
 594 0026 0121     	 mov r1,#1
 595 0028 2378     	 ldrb r3,[r4]
 596 002a 7268     	 ldr r2,[r6,#4]
 597 002c 0233     	 add r3,r3,#2
 598 002e 9B00     	 lsl r3,r3,#2
 599 0030 9B58     	 ldr r3,[r3,r2]
 600 0032 1A68     	 ldr r2,[r3]
 601 0034 936C     	 ldr r3,[r2,#72]
 602 0036 8B43     	 bic r3,r1
 603 0038 9364     	 str r3,[r2,#72]
 604 003a 2378     	 ldrb r3,[r4]
 605 003c 5B18     	 add r3,r3,r1
 606 003e DBB2     	 uxtb r3,r3
 607 0040 E4E7     	 b .L85
 608              	.L86:
 609 0042 0CCD     	 ldmia r5!,{r2,r3}
 610 0044 526A     	 ldr r2,[r2,#36]
 611              	 
 612 0046 1A61     	 str r2,[r3,#16]
 613 0048 73BD     	 pop {r0,r1,r4,r5,r6,pc}
 614              	.L88:
 615 004a C046     	 .align 2
 616              	.L87:
 617 004c FFFF0000 	 .word 65535
 619              	 .section .text.PMSM_FOC_ClearErrorState,"ax",%progbits
 620              	 .align 1
 621              	 .global PMSM_FOC_ClearErrorState
 622              	 .code 16
 623              	 .thumb_func
 625              	PMSM_FOC_ClearErrorState:
 626 0000 0023     	 mov r3,#0
 627 0002 3030     	 add r0,r0,#48
 628 0004 0361     	 str r3,[r0,#16]
 629              	 
 630 0006 0370     	 strb r3,[r0]
 631 0008 7047     	 bx lr
 633              	 .section .text.PMSM_FOC_Bootstrap,"ax",%progbits
 634              	 .align 1
 635              	 .global PMSM_FOC_Bootstrap
 636              	 .code 16
 637              	 .thumb_func
 639              	PMSM_FOC_Bootstrap:
 640 0000 10B5     	 push {r4,lr}
 641 0002 041C     	 mov r4,r0
 642 0004 416C     	 ldr r1,[r0,#68]
 643 0006 806C     	 ldr r0,[r0,#72]
 644 0008 6368     	 ldr r3,[r4,#4]
 645 000a 8142     	 cmp r1,r0
 646 000c 0AD2     	 bcs .L91
 647 000e 9B68     	 ldr r3,[r3,#8]
 648 0010 2749     	 ldr r1,.L97
 649 0012 1868     	 ldr r0,[r3]
 650 0014 FFF7FEFF 	 bl XMC_CCU8_SLICE_SetOutPath
 651 0018 F021     	 mov r1,#240
 652 001a 6368     	 ldr r3,[r4,#4]
 653 001c 4903     	 lsl r1,r1,#13
 654 001e DB68     	 ldr r3,[r3,#12]
 655 0020 1868     	 ldr r0,[r3]
 656 0022 0CE0     	 b .L95
 657              	.L91:
 658 0024 4200     	 lsl r2,r0,#1
 659 0026 9142     	 cmp r1,r2
 660 0028 14D2     	 bcs .L93
 661 002a F021     	 mov r1,#240
 662 002c 9B68     	 ldr r3,[r3,#8]
 663 002e 4903     	 lsl r1,r1,#13
 664 0030 1868     	 ldr r0,[r3]
 665 0032 FFF7FEFF 	 bl XMC_CCU8_SLICE_SetOutPath
 666 0036 6368     	 ldr r3,[r4,#4]
 667 0038 1D49     	 ldr r1,.L97
 668 003a DB68     	 ldr r3,[r3,#12]
 669 003c 1868     	 ldr r0,[r3]
 670              	.L95:
 671 003e FFF7FEFF 	 bl XMC_CCU8_SLICE_SetOutPath
 672 0042 F021     	 mov r1,#240
 673 0044 6368     	 ldr r3,[r4,#4]
 674 0046 4903     	 lsl r1,r1,#13
 675 0048 1B69     	 ldr r3,[r3,#16]
 676 004a 1868     	 ldr r0,[r3]
 677              	.L96:
 678 004c FFF7FEFF 	 bl XMC_CCU8_SLICE_SetOutPath
 679 0050 0020     	 mov r0,#0
 680 0052 28E0     	 b .L92
 681              	.L93:
 682 0054 0322     	 mov r2,#3
 683 0056 4243     	 mul r2,r0
 684 0058 9B68     	 ldr r3,[r3,#8]
 685 005a 1868     	 ldr r0,[r3]
 686 005c 9142     	 cmp r1,r2
 687 005e 0FD2     	 bcs .L94
 688 0060 F021     	 mov r1,#240
 689 0062 4903     	 lsl r1,r1,#13
 690 0064 FFF7FEFF 	 bl XMC_CCU8_SLICE_SetOutPath
 691 0068 F021     	 mov r1,#240
 692 006a 6368     	 ldr r3,[r4,#4]
 693 006c 4903     	 lsl r1,r1,#13
 694 006e DB68     	 ldr r3,[r3,#12]
 695 0070 1868     	 ldr r0,[r3]
 696 0072 FFF7FEFF 	 bl XMC_CCU8_SLICE_SetOutPath
 697 0076 6368     	 ldr r3,[r4,#4]
 698 0078 0D49     	 ldr r1,.L97
 699 007a 1B69     	 ldr r3,[r3,#16]
 700 007c 1868     	 ldr r0,[r3]
 701 007e E5E7     	 b .L96
 702              	.L94:
 703 0080 F021     	 mov r1,#240
 704 0082 4903     	 lsl r1,r1,#13
 705 0084 FFF7FEFF 	 bl XMC_CCU8_SLICE_SetOutPath
 706 0088 F021     	 mov r1,#240
 707 008a 6368     	 ldr r3,[r4,#4]
 708 008c 4903     	 lsl r1,r1,#13
 709 008e DB68     	 ldr r3,[r3,#12]
 710 0090 1868     	 ldr r0,[r3]
 711 0092 FFF7FEFF 	 bl XMC_CCU8_SLICE_SetOutPath
 712 0096 F021     	 mov r1,#240
 713 0098 6368     	 ldr r3,[r4,#4]
 714 009a 4903     	 lsl r1,r1,#13
 715 009c 1B69     	 ldr r3,[r3,#16]
 716 009e 1868     	 ldr r0,[r3]
 717 00a0 FFF7FEFF 	 bl XMC_CCU8_SLICE_SetOutPath
 718 00a4 0120     	 mov r0,#1
 719              	.L92:
 720 00a6 636C     	 ldr r3,[r4,#68]
 721              	 
 722 00a8 0133     	 add r3,r3,#1
 723 00aa 6364     	 str r3,[r4,#68]
 724 00ac 10BD     	 pop {r4,pc}
 725              	.L98:
 726 00ae C046     	 .align 2
 727              	.L97:
 728 00b0 14001E00 	 .word 1966100
 730              	 .section .text.PMSM_FOC_Vf_Open_Loop,"ax",%progbits
 731              	 .align 1
 732              	 .global PMSM_FOC_Vf_Open_Loop
 733              	 .code 16
 734              	 .thumb_func
 736              	PMSM_FOC_Vf_Open_Loop:
 737 0000 F0B5     	 push {r4,r5,r6,r7,lr}
 738 0002 846A     	 ldr r4,[r0,#40]
 739 0004 C16A     	 ldr r1,[r0,#44]
 740 0006 226B     	 ldr r2,[r4,#48]
 741 0008 666B     	 ldr r6,[r4,#52]
 742 000a E36A     	 ldr r3,[r4,#44]
 743 000c 9519     	 add r5,r2,r6
 744 000e 5B00     	 lsl r3,r3,#1
 745 0010 5B1B     	 sub r3,r3,r5
 746 0012 244D     	 ldr r5,.L108
 747 0014 921B     	 sub r2,r2,r6
 748 0016 6B43     	 mul r3,r5
 749 0018 0B60     	 str r3,[r1]
 750 001a 234B     	 ldr r3,.L108+4
 751 001c 856B     	 ldr r5,[r0,#56]
 752 001e 5A43     	 mul r2,r3
 753 0020 C36B     	 ldr r3,[r0,#60]
 754 0022 4A60     	 str r2,[r1,#4]
 755 0024 AB42     	 cmp r3,r5
 756 0026 16D0     	 beq .L100
 757 0028 826F     	 ldr r2,[r0,#120]
 758 002a C16F     	 ldr r1,[r0,#124]
 759 002c 0132     	 add r2,r2,#1
 760 002e 8267     	 str r2,[r0,#120]
 761 0030 AB42     	 cmp r3,r5
 762 0032 09DA     	 bge .L101
 763 0034 8A42     	 cmp r2,r1
 764 0036 15D9     	 bls .L103
 765 0038 0268     	 ldr r2,[r0]
 766 003a 126A     	 ldr r2,[r2,#32]
 767 003c 9142     	 cmp r1,r2
 768 003e 01D9     	 bls .L104
 769 0040 0139     	 sub r1,r1,#1
 770 0042 C167     	 str r1,[r0,#124]
 771              	.L104:
 772 0044 0133     	 add r3,r3,#1
 773 0046 02E0     	 b .L107
 774              	.L101:
 775 0048 8A42     	 cmp r2,r1
 776 004a 0BD9     	 bls .L103
 777 004c 013B     	 sub r3,r3,#1
 778              	.L107:
 779 004e C363     	 str r3,[r0,#60]
 780 0050 0023     	 mov r3,#0
 781 0052 8367     	 str r3,[r0,#120]
 782 0054 06E0     	 b .L103
 783              	.L100:
 784 0056 021C     	 mov r2,r0
 785 0058 0368     	 ldr r3,[r0]
 786 005a 8832     	 add r2,r2,#136
 787 005c 1B6A     	 ldr r3,[r3,#32]
 788 005e 1268     	 ldr r2,[r2]
 789 0060 9340     	 lsl r3,r3,r2
 790 0062 C367     	 str r3,[r0,#124]
 791              	.L103:
 792 0064 C56B     	 ldr r5,[r0,#60]
 793 0066 2389     	 ldrh r3,[r4,#8]
 794 0068 2C1C     	 mov r4,r5
 795 006a DC40     	 lsr r4,r4,r3
 796 006c C268     	 ldr r2,[r0,#12]
 797 006e 061C     	 mov r6,r0
 798 0070 1168     	 ldr r1,[r2]
 799 0072 9836     	 add r6,r6,#152
 800 0074 4C43     	 mul r4,r1
 801 0076 5168     	 ldr r1,[r2,#4]
 802 0078 021C     	 mov r2,r0
 803 007a 3768     	 ldr r7,[r6]
 804 007c 9432     	 add r2,r2,#148
 805 007e 1760     	 str r7,[r2]
 806 0080 1022     	 mov r2,#16
 807 0082 D31A     	 sub r3,r2,r3
 808 0084 2A1C     	 mov r2,r5
 809 0086 9A40     	 lsl r2,r2,r3
 810 0088 BB18     	 add r3,r7,r2
 811 008a 3360     	 str r3,[r6]
 812 008c 074A     	 ldr r2,.L108+8
 813 008e 1B12     	 asr r3,r3,#8
 814 0090 8365     	 str r3,[r0,#88]
 815 0092 6318     	 add r3,r4,r1
 816 0094 4565     	 str r5,[r0,#84]
 817 0096 9342     	 cmp r3,r2
 818 0098 00D9     	 bls .L106
 819 009a 131C     	 mov r3,r2
 820              	.L106:
 821 009c 5B08     	 lsr r3,r3,#1
 822 009e C365     	 str r3,[r0,#92]
 823              	 
 824 00a0 F0BD     	 pop {r4,r5,r6,r7,pc}
 825              	.L109:
 826 00a2 C046     	 .align 2
 827              	.L108:
 828 00a4 55150000 	 .word 5461
 829 00a8 F0240000 	 .word 9456
 830 00ac FF7F0000 	 .word 32767
 832              	 .section .text.PMSM_FOC_Controller_Init_OnceOnly,"ax",%progbits
 833              	 .align 1
 834              	 .global PMSM_FOC_Controller_Init_OnceOnly
 835              	 .code 16
 836              	 .thumb_func
 838              	PMSM_FOC_Controller_Init_OnceOnly:
 839 0000 021C     	 mov r2,r0
 840 0002 9832     	 add r2,r2,#152
 841 0004 836A     	 ldr r3,[r0,#40]
 842 0006 1268     	 ldr r2,[r2]
 843 0008 10B5     	 push {r4,lr}
 844 000a 9A62     	 str r2,[r3,#40]
 845 000c 021C     	 mov r2,r0
 846 000e 9032     	 add r2,r2,#144
 847 0010 1268     	 ldr r2,[r2]
 848 0012 416A     	 ldr r1,[r0,#36]
 849 0014 5A62     	 str r2,[r3,#36]
 850 0016 426D     	 ldr r2,[r0,#84]
 851              	 
 852 0018 5A65     	 str r2,[r3,#84]
 853 001a 9A63     	 str r2,[r3,#56]
 854 001c 1024     	 mov r4,#16
 855 001e 085F     	 ldrsh r0,[r1,r4]
 856 0020 6E33     	 add r3,r3,#110
 857 0022 8240     	 lsl r2,r2,r0
 858 0024 8A60     	 str r2,[r1,#8]
 859 0026 0022     	 mov r2,#0
 860 0028 1A80     	 strh r2,[r3]
 861 002a 10BD     	 pop {r4,pc}
 863              	 .section .text.PMSM_FOC_Vf_RampUp,"ax",%progbits
 864              	 .align 1
 865              	 .global PMSM_FOC_Vf_RampUp
 866              	 .code 16
 867              	 .thumb_func
 869              	PMSM_FOC_Vf_RampUp:
 870 0000 F7B5     	 push {r0,r1,r2,r4,r5,r6,r7,lr}
 871 0002 816A     	 ldr r1,[r0,#40]
 872 0004 C46A     	 ldr r4,[r0,#44]
 873 0006 0A6B     	 ldr r2,[r1,#48]
 874 0008 4E6B     	 ldr r6,[r1,#52]
 875 000a CB6A     	 ldr r3,[r1,#44]
 876 000c 9519     	 add r5,r2,r6
 877 000e 5B00     	 lsl r3,r3,#1
 878 0010 5B1B     	 sub r3,r3,r5
 879 0012 4C4D     	 ldr r5,.L124
 880 0014 921B     	 sub r2,r2,r6
 881 0016 6B43     	 mul r3,r5
 882 0018 2360     	 str r3,[r4]
 883 001a 4B4B     	 ldr r3,.L124+4
 884 001c 5A43     	 mul r2,r3
 885 001e 436E     	 ldr r3,[r0,#100]
 886 0020 6260     	 str r2,[r4,#4]
 887 0022 826E     	 ldr r2,[r0,#104]
 888 0024 0133     	 add r3,r3,#1
 889 0026 4366     	 str r3,[r0,#100]
 890 0028 9342     	 cmp r3,r2
 891 002a 00D2     	 bcs .LCB1026
 892 002c 89E0     	 b .L111
 893              	.LCB1026:
 894 002e 041C     	 mov r4,r0
 895 0030 0B89     	 ldrh r3,[r1,#8]
 896 0032 E26B     	 ldr r2,[r4,#60]
 897 0034 9C46     	 mov ip,r3
 898 0036 131C     	 mov r3,r2
 899 0038 6546     	 mov r5,ip
 900 003a EB40     	 lsr r3,r3,r5
 901 003c C068     	 ldr r0,[r0,#12]
 902 003e 6746     	 mov r7,ip
 903 0040 0568     	 ldr r5,[r0]
 904 0042 6B43     	 mul r3,r5
 905 0044 4568     	 ldr r5,[r0,#4]
 906 0046 5B19     	 add r3,r3,r5
 907 0048 251C     	 mov r5,r4
 908 004a 0193     	 str r3,[sp,#4]
 909 004c 231C     	 mov r3,r4
 910 004e 9835     	 add r5,r5,#152
 911 0050 2E68     	 ldr r6,[r5]
 912 0052 9433     	 add r3,r3,#148
 913 0054 1E60     	 str r6,[r3]
 914 0056 1023     	 mov r3,#16
 915 0058 DB1B     	 sub r3,r3,r7
 916 005a 171C     	 mov r7,r2
 917 005c 9F40     	 lsl r7,r7,r3
 918 005e F319     	 add r3,r6,r7
 919 0060 261C     	 mov r6,r4
 920 0062 2B60     	 str r3,[r5]
 921 0064 1B12     	 asr r3,r3,#8
 922 0066 A365     	 str r3,[r4,#88]
 923 0068 B436     	 add r6,r6,#180
 924 006a 3378     	 ldrb r3,[r6]
 925 006c 002B     	 cmp r3,#0
 926 006e 1FD1     	 bne .L113
 927 0070 8168     	 ldr r1,[r0,#8]
 928 0072 8A42     	 cmp r2,r1
 929 0074 10DA     	 bge .L114
 930 0076 A36F     	 ldr r3,[r4,#120]
 931 0078 591C     	 add r1,r3,#1
 932 007a E36F     	 ldr r3,[r4,#124]
 933 007c A167     	 str r1,[r4,#120]
 934 007e 9942     	 cmp r1,r3
 935 0080 4BD9     	 bls .L116
 936 0082 2168     	 ldr r1,[r4]
 937 0084 096A     	 ldr r1,[r1,#32]
 938 0086 8B42     	 cmp r3,r1
 939 0088 01D9     	 bls .L117
 940 008a 013B     	 sub r3,r3,#1
 941 008c E367     	 str r3,[r4,#124]
 942              	.L117:
 943 008e 0023     	 mov r3,#0
 944 0090 0132     	 add r2,r2,#1
 945 0092 E263     	 str r2,[r4,#60]
 946 0094 A367     	 str r3,[r4,#120]
 947 0096 40E0     	 b .L116
 948              	.L114:
 949 0098 211C     	 mov r1,r4
 950 009a A031     	 add r1,r1,#160
 951 009c 0A68     	 ldr r2,[r1]
 952 009e C068     	 ldr r0,[r0,#12]
 953 00a0 0132     	 add r2,r2,#1
 954 00a2 0A60     	 str r2,[r1]
 955 00a4 8242     	 cmp r2,r0
 956 00a6 38D9     	 bls .L116
 957 00a8 0122     	 mov r2,#1
 958 00aa 3270     	 strb r2,[r6]
 959 00ac 0B60     	 str r3,[r1]
 960 00ae 34E0     	 b .L116
 961              	.L113:
 962 00b0 271C     	 mov r7,r4
 963 00b2 0423     	 mov r3,#4
 964 00b4 3037     	 add r7,r7,#48
 965 00b6 3B70     	 strb r3,[r7]
 966 00b8 0023     	 mov r3,#0
 967 00ba 6046     	 mov r0,ip
 968 00bc CB61     	 str r3,[r1,#28]
 969 00be 0B62     	 str r3,[r1,#32]
 970 00c0 8B8A     	 ldrh r3,[r1,#20]
 971 00c2 5343     	 mul r3,r2
 972 00c4 C340     	 lsr r3,r3,r0
 973 00c6 0B61     	 str r3,[r1,#16]
 974 00c8 2368     	 ldr r3,[r4]
 975 00ca 4833     	 add r3,r3,#72
 976 00cc 1978     	 ldrb r1,[r3]
 977 00ce 0123     	 mov r3,#1
 978 00d0 0B40     	 and r3,r1
 979 00d2 0DD1     	 bne .L119
 980 00d4 0521     	 mov r1,#5
 981 00d6 3970     	 strb r1,[r7]
 982 00d8 616A     	 ldr r1,[r4,#36]
 983 00da 0198     	 ldr r0,[sp,#4]
 984 00dc 4A60     	 str r2,[r1,#4]
 985 00de E169     	 ldr r1,[r4,#28]
 986 00e0 0A8A     	 ldrh r2,[r1,#16]
 987 00e2 9040     	 lsl r0,r0,r2
 988 00e4 226A     	 ldr r2,[r4,#32]
 989 00e6 8860     	 str r0,[r1,#8]
 990 00e8 9360     	 str r3,[r2,#8]
 991 00ea 201C     	 mov r0,r4
 992 00ec FFF7FEFF 	 bl PMSM_FOC_Controller_Init_OnceOnly
 993              	.L119:
 994 00f0 2168     	 ldr r1,[r4]
 995 00f2 0B1C     	 mov r3,r1
 996 00f4 4833     	 add r3,r3,#72
 997 00f6 1B78     	 ldrb r3,[r3]
 998 00f8 9B07     	 lsl r3,r3,#30
 999 00fa 01D5     	 bpl .L120
 1000 00fc 0C23     	 mov r3,#12
 1001 00fe 3B70     	 strb r3,[r7]
 1002              	.L120:
 1003 0100 221C     	 mov r2,r4
 1004 0102 0023     	 mov r3,#0
 1005 0104 A032     	 add r2,r2,#160
 1006 0106 1360     	 str r3,[r2]
 1007 0108 A367     	 str r3,[r4,#120]
 1008 010a 6366     	 str r3,[r4,#100]
 1009 010c 183A     	 sub r2,r2,#24
 1010 010e 3370     	 strb r3,[r6]
 1011 0110 4B6A     	 ldr r3,[r1,#36]
 1012 0112 1268     	 ldr r2,[r2]
 1013 0114 201D     	 add r0,r4,#4
 1014 0116 9340     	 lsl r3,r3,r2
 1015 0118 C367     	 str r3,[r0,#124]
 1016              	.L116:
 1017 011a 221C     	 mov r2,r4
 1018 011c 211C     	 mov r1,r4
 1019 011e 019B     	 ldr r3,[sp,#4]
 1020 0120 9032     	 add r2,r2,#144
 1021 0122 1068     	 ldr r0,[r2]
 1022 0124 5B08     	 lsr r3,r3,#1
 1023 0126 E365     	 str r3,[r4,#92]
 1024 0128 8C31     	 add r1,r1,#140
 1025 012a DB03     	 lsl r3,r3,#15
 1026 012c 0860     	 str r0,[r1]
 1027 012e 1360     	 str r3,[r2]
 1028 0130 A36A     	 ldr r3,[r4,#40]
 1029 0132 2A68     	 ldr r2,[r5]
 1030 0134 201C     	 mov r0,r4
 1031 0136 9A62     	 str r2,[r3,#40]
 1032 0138 E16B     	 ldr r1,[r4,#60]
 1033 013a FFF7FEFF 	 bl Init_Smooth_Transition_To_FOC
 1034 013e E36B     	 ldr r3,[r4,#60]
 1035 0140 6365     	 str r3,[r4,#84]
 1036              	.L111:
 1037              	 
 1038 0142 F7BD     	 pop {r0,r1,r2,r4,r5,r6,r7,pc}
 1039              	.L125:
 1040              	 .align 2
 1041              	.L124:
 1042 0144 55150000 	 .word 5461
 1043 0148 F0240000 	 .word 9456
 1045              	 .section .text.PMSM_FOC_Transition_to_FOC,"ax",%progbits
 1046              	 .align 1
 1047              	 .global PMSM_FOC_Transition_to_FOC
 1048              	 .code 16
 1049              	 .thumb_func
 1051              	PMSM_FOC_Transition_to_FOC:
 1052 0000 031C     	 mov r3,r0
 1053 0002 0522     	 mov r2,#5
 1054 0004 10B5     	 push {r4,lr}
 1055 0006 041C     	 mov r4,r0
 1056 0008 3033     	 add r3,r3,#48
 1057 000a 1A70     	 strb r2,[r3]
 1058 000c FFF7FEFF 	 bl Init_FOC_RotorAngle
 1059 0010 201C     	 mov r0,r4
 1060 0012 FFF7FEFF 	 bl Init_FOC_PI_Iks
 1061 0016 E36B     	 ldr r3,[r4,#60]
 1062 0018 626A     	 ldr r2,[r4,#36]
 1063 001a 201C     	 mov r0,r4
 1064 001c 5360     	 str r3,[r2,#4]
 1065 001e A26A     	 ldr r2,[r4,#40]
 1066              	 
 1067 0020 9363     	 str r3,[r2,#56]
 1068 0022 FFF7FEFF 	 bl PMSM_FOC_Controller_Init_OnceOnly
 1069 0026 221C     	 mov r2,r4
 1070 0028 0023     	 mov r3,#0
 1071 002a B432     	 add r2,r2,#180
 1072 002c 1370     	 strb r3,[r2]
 1073 002e 143A     	 sub r2,r2,#20
 1074 0030 1360     	 str r3,[r2]
 1075 0032 A367     	 str r3,[r4,#120]
 1076 0034 10BD     	 pop {r4,pc}
 1078              	 .section .text.PMSM_FOC_METTransition,"ax",%progbits
 1079              	 .align 1
 1080              	 .global PMSM_FOC_METTransition
 1081              	 .code 16
 1082              	 .thumb_func
 1084              	PMSM_FOC_METTransition:
 1085 0000 011C     	 mov r1,r0
 1086 0002 38B5     	 push {r3,r4,r5,lr}
 1087 0004 B431     	 add r1,r1,#180
 1088 0006 0C78     	 ldrb r4,[r1]
 1089 0008 002C     	 cmp r4,#0
 1090 000a 17D1     	 bne .L128
 1091 000c C368     	 ldr r3,[r0,#12]
 1092 000e C26B     	 ldr r2,[r0,#60]
 1093 0010 9D68     	 ldr r5,[r3,#8]
 1094 0012 836F     	 ldr r3,[r0,#120]
 1095 0014 0133     	 add r3,r3,#1
 1096 0016 8367     	 str r3,[r0,#120]
 1097 0018 AA42     	 cmp r2,r5
 1098 001a 07DA     	 bge .L129
 1099 001c 011D     	 add r1,r0,#4
 1100 001e C96F     	 ldr r1,[r1,#124]
 1101 0020 8B42     	 cmp r3,r1
 1102 0022 0DD9     	 bls .L127
 1103 0024 0132     	 add r2,r2,#1
 1104 0026 C263     	 str r2,[r0,#60]
 1105 0028 8467     	 str r4,[r0,#120]
 1106 002a 09E0     	 b .L127
 1107              	.L129:
 1108 002c 426F     	 ldr r2,[r0,#116]
 1109 002e 9342     	 cmp r3,r2
 1110 0030 06D9     	 bls .L127
 1111 0032 0123     	 mov r3,#1
 1112 0034 A030     	 add r0,r0,#160
 1113 0036 0B70     	 strb r3,[r1]
 1114 0038 0460     	 str r4,[r0]
 1115 003a 01E0     	 b .L127
 1116              	.L128:
 1117 003c FFF7FEFF 	 bl PMSM_FOC_Transition_to_FOC
 1118              	.L127:
 1119              	 
 1120 0040 38BD     	 pop {r3,r4,r5,pc}
 1122              	 .section .text.PMSM_FOC_Rotor_Pre_Positioning,"ax",%progbits
 1123              	 .align 1
 1124              	 .global PMSM_FOC_Rotor_Pre_Positioning
 1125              	 .code 16
 1126              	 .thumb_func
 1128              	PMSM_FOC_Rotor_Pre_Positioning:
 1129 0000 F8B5     	 push {r3,r4,r5,r6,r7,lr}
 1130 0002 041C     	 mov r4,r0
 1131 0004 836A     	 ldr r3,[r0,#40]
 1132 0006 C16A     	 ldr r1,[r0,#44]
 1133 0008 5D6B     	 ldr r5,[r3,#52]
 1134 000a 1A6B     	 ldr r2,[r3,#48]
 1135 000c DB6A     	 ldr r3,[r3,#44]
 1136 000e 5019     	 add r0,r2,r5
 1137 0010 5B00     	 lsl r3,r3,#1
 1138 0012 1B1A     	 sub r3,r3,r0
 1139 0014 1B48     	 ldr r0,.L139
 1140 0016 521B     	 sub r2,r2,r5
 1141 0018 4343     	 mul r3,r0
 1142 001a 0B60     	 str r3,[r1]
 1143 001c 1A4B     	 ldr r3,.L139+4
 1144 001e 251C     	 mov r5,r4
 1145 0020 5A43     	 mul r2,r3
 1146 0022 0523     	 mov r3,#5
 1147 0024 3035     	 add r5,r5,#48
 1148 0026 4A60     	 str r2,[r1,#4]
 1149 0028 2B70     	 strb r3,[r5]
 1150 002a 231C     	 mov r3,r4
 1151 002c 0022     	 mov r2,#0
 1152 002e B433     	 add r3,r3,#180
 1153 0030 1A70     	 strb r2,[r3]
 1154 0032 616D     	 ldr r1,[r4,#84]
 1155 0034 636A     	 ldr r3,[r4,#36]
 1156 0036 6266     	 str r2,[r4,#100]
 1157 0038 5960     	 str r1,[r3,#4]
 1158 003a E36D     	 ldr r3,[r4,#92]
 1159 003c E669     	 ldr r6,[r4,#28]
 1160 003e 1F1C     	 mov r7,r3
 1161 0040 308A     	 ldrh r0,[r6,#16]
 1162 0042 8740     	 lsl r7,r7,r0
 1163 0044 206A     	 ldr r0,[r4,#32]
 1164 0046 B760     	 str r7,[r6,#8]
 1165 0048 8260     	 str r2,[r0,#8]
 1166 004a 2068     	 ldr r0,[r4]
 1167 004c 021C     	 mov r2,r0
 1168 004e 4732     	 add r2,r2,#71
 1169 0050 1278     	 ldrb r2,[r2]
 1170 0052 D209     	 lsr r2,r2,#7
 1171 0054 03D0     	 beq .L134
 1172 0056 426A     	 ldr r2,[r0,#36]
 1173 0058 261D     	 add r6,r4,#4
 1174 005a 9200     	 lsl r2,r2,#2
 1175 005c F267     	 str r2,[r6,#124]
 1176              	.L134:
 1177 005e 201C     	 mov r0,r4
 1178 0060 221C     	 mov r2,r4
 1179 0062 9030     	 add r0,r0,#144
 1180 0064 0668     	 ldr r6,[r0]
 1181 0066 9B03     	 lsl r3,r3,#14
 1182 0068 8C32     	 add r2,r2,#140
 1183 006a 1660     	 str r6,[r2]
 1184 006c 0360     	 str r3,[r0]
 1185 006e 201C     	 mov r0,r4
 1186 0070 FFF7FEFF 	 bl Init_Smooth_Transition_To_FOC
 1187 0074 2B78     	 ldrb r3,[r5]
 1188 0076 052B     	 cmp r3,#5
 1189 0078 02D1     	 bne .L133
 1190 007a 201C     	 mov r0,r4
 1191 007c FFF7FEFF 	 bl PMSM_FOC_Controller_Init_OnceOnly
 1192              	.L133:
 1193              	 
 1194 0080 F8BD     	 pop {r3,r4,r5,r6,r7,pc}
 1195              	.L140:
 1196 0082 C046     	 .align 2
 1197              	.L139:
 1198 0084 55150000 	 .word 5461
 1199 0088 F0240000 	 .word 9456
 1201              	 .section .text.PMSM_FOC_SetEndSpeed,"ax",%progbits
 1202              	 .align 1
 1203              	 .global PMSM_FOC_SetEndSpeed
 1204              	 .code 16
 1205              	 .thumb_func
 1207              	PMSM_FOC_SetEndSpeed:
 1208 0000 0368     	 ldr r3,[r0]
 1209 0002 054A     	 ldr r2,.L144
 1210 0004 9B68     	 ldr r3,[r3,#8]
 1211 0006 5943     	 mul r1,r3
 1212 0008 0223     	 mov r3,#2
 1213 000a C90B     	 lsr r1,r1,#15
 1214 000c 9142     	 cmp r1,r2
 1215 000e 01D8     	 bhi .L142
 1216 0010 0023     	 mov r3,#0
 1217 0012 8163     	 str r1,[r0,#56]
 1218              	.L142:
 1219 0014 181C     	 mov r0,r3
 1220              	 
 1221 0016 7047     	 bx lr
 1222              	.L145:
 1223              	 .align 2
 1224              	.L144:
 1225 0018 FF7F0000 	 .word 32767
 1227              	 .section .text.PMSM_FOC_SetVFEndSpeed,"ax",%progbits
 1228              	 .align 1
 1229              	 .global PMSM_FOC_SetVFEndSpeed
 1230              	 .code 16
 1231              	 .thumb_func
 1233              	PMSM_FOC_SetVFEndSpeed:
 1234 0000 0368     	 ldr r3,[r0]
 1235 0002 064A     	 ldr r2,.L149
 1236 0004 9B68     	 ldr r3,[r3,#8]
 1237 0006 5943     	 mul r1,r3
 1238 0008 0223     	 mov r3,#2
 1239 000a C90B     	 lsr r1,r1,#15
 1240 000c 9142     	 cmp r1,r2
 1241 000e 02D8     	 bhi .L147
 1242 0010 C368     	 ldr r3,[r0,#12]
 1243 0012 9960     	 str r1,[r3,#8]
 1244 0014 0023     	 mov r3,#0
 1245              	.L147:
 1246 0016 181C     	 mov r0,r3
 1247              	 
 1248 0018 7047     	 bx lr
 1249              	.L150:
 1250 001a C046     	 .align 2
 1251              	.L149:
 1252 001c FF7F0000 	 .word 32767
 1254              	 .global __aeabi_lmul
 1255              	 .section .text.PMSM_FOC_GetMotorSpeed,"ax",%progbits
 1256              	 .align 1
 1257              	 .global PMSM_FOC_GetMotorSpeed
 1258              	 .code 16
 1259              	 .thumb_func
 1261              	PMSM_FOC_GetMotorSpeed:
 1262 0000 08B5     	 push {r3,lr}
 1263 0002 031C     	 mov r3,r0
 1264 0004 1B68     	 ldr r3,[r3]
 1265 0006 406D     	 ldr r0,[r0,#84]
 1266 0008 DA68     	 ldr r2,[r3,#12]
 1267 000a C117     	 asr r1,r0,#31
 1268 000c D317     	 asr r3,r2,#31
 1269 000e FFF7FEFF 	 bl __aeabi_lmul
 1270 0012 4904     	 lsl r1,r1,#17
 1271 0014 C00B     	 lsr r0,r0,#15
 1272 0016 0843     	 orr r0,r1
 1273              	 
 1274 0018 08BD     	 pop {r3,pc}
 1276              	 .section .text.PMSM_FOC_GetEndSpeed,"ax",%progbits
 1277              	 .align 1
 1278              	 .global PMSM_FOC_GetEndSpeed
 1279              	 .code 16
 1280              	 .thumb_func
 1282              	PMSM_FOC_GetEndSpeed:
 1283 0000 08B5     	 push {r3,lr}
 1284 0002 031C     	 mov r3,r0
 1285 0004 1B68     	 ldr r3,[r3]
 1286 0006 806B     	 ldr r0,[r0,#56]
 1287 0008 DA68     	 ldr r2,[r3,#12]
 1288 000a C117     	 asr r1,r0,#31
 1289 000c D317     	 asr r3,r2,#31
 1290 000e FFF7FEFF 	 bl __aeabi_lmul
 1291 0012 4904     	 lsl r1,r1,#17
 1292 0014 C00B     	 lsr r0,r0,#15
 1293 0016 0843     	 orr r0,r1
 1294              	 
 1295 0018 08BD     	 pop {r3,pc}
 1297              	 .section .text.PMSM_FOC_SetMotorDirection,"ax",%progbits
 1298              	 .align 1
 1299              	 .global PMSM_FOC_SetMotorDirection
 1300              	 .code 16
 1301              	 .thumb_func
 1303              	PMSM_FOC_SetMotorDirection:
 1304 0000 031C     	 mov r3,r0
 1305 0002 3033     	 add r3,r3,#48
 1306 0004 1A78     	 ldrb r2,[r3]
 1307 0006 0323     	 mov r3,#3
 1308 0008 002A     	 cmp r2,#0
 1309 000a 08D1     	 bne .L154
 1310 000c 4A1C     	 add r2,r1,#1
 1311 000e 013B     	 sub r3,r3,#1
 1312 0010 9A43     	 bic r2,r3
 1313 0012 52B2     	 sxtb r2,r2
 1314 0014 002A     	 cmp r2,#0
 1315 0016 02D1     	 bne .L154
 1316 0018 131C     	 mov r3,r2
 1317 001a B230     	 add r0,r0,#178
 1318 001c 0170     	 strb r1,[r0]
 1319              	.L154:
 1320 001e 181C     	 mov r0,r3
 1321              	 
 1322 0020 7047     	 bx lr
 1324              	 .section .text.PMSM_FOC_GetMotorDirection,"ax",%progbits
 1325              	 .align 1
 1326              	 .global PMSM_FOC_GetMotorDirection
 1327              	 .code 16
 1328              	 .thumb_func
 1330              	PMSM_FOC_GetMotorDirection:
 1331 0000 B230     	 add r0,r0,#178
 1332 0002 0078     	 ldrb r0,[r0]
 1333              	 
 1334 0004 40B2     	 sxtb r0,r0
 1335 0006 7047     	 bx lr
 1337              	 .section .text.PMSM_FOC_SetIqRef,"ax",%progbits
 1338              	 .align 1
 1339              	 .global PMSM_FOC_SetIqRef
 1340              	 .code 16
 1341              	 .thumb_func
 1343              	PMSM_FOC_SetIqRef:
 1344 0000 10B5     	 push {r4,lr}
 1345 0002 0268     	 ldr r2,[r0]
 1346 0004 1369     	 ldr r3,[r2,#16]
 1347 0006 4732     	 add r2,r2,#71
 1348 0008 1478     	 ldrb r4,[r2]
 1349 000a 0122     	 mov r2,#1
 1350 000c 2240     	 and r2,r4
 1351 000e 0324     	 mov r4,#3
 1352 0010 002A     	 cmp r2,#0
 1353 0012 08D1     	 bne .L159
 1354 0014 5943     	 mul r1,r3
 1355 0016 054B     	 ldr r3,.L162
 1356 0018 C913     	 asr r1,r1,#15
 1357 001a 013C     	 sub r4,r4,#1
 1358 001c 9942     	 cmp r1,r3
 1359 001e 02D8     	 bhi .L159
 1360 0020 141C     	 mov r4,r2
 1361 0022 836A     	 ldr r3,[r0,#40]
 1362 0024 9964     	 str r1,[r3,#72]
 1363              	.L159:
 1364 0026 201C     	 mov r0,r4
 1365              	 
 1366 0028 10BD     	 pop {r4,pc}
 1367              	.L163:
 1368 002a C046     	 .align 2
 1369              	.L162:
 1370 002c FF7F0000 	 .word 32767
 1372              	 .section .text.PMSM_FOC_GetIqRef,"ax",%progbits
 1373              	 .align 1
 1374              	 .global PMSM_FOC_GetIqRef
 1375              	 .code 16
 1376              	 .thumb_func
 1378              	PMSM_FOC_GetIqRef:
 1379 0000 0368     	 ldr r3,[r0]
 1380 0002 826A     	 ldr r2,[r0,#40]
 1381 0004 5B69     	 ldr r3,[r3,#20]
 1382 0006 906C     	 ldr r0,[r2,#72]
 1383              	 
 1384 0008 5843     	 mul r0,r3
 1385 000a C013     	 asr r0,r0,#15
 1386 000c 7047     	 bx lr
 1388              	 .section .text.PMSM_FOC_SetIdRef,"ax",%progbits
 1389              	 .align 1
 1390              	 .global PMSM_FOC_SetIdRef
 1391              	 .code 16
 1392              	 .thumb_func
 1394              	PMSM_FOC_SetIdRef:
 1395 0000 0368     	 ldr r3,[r0]
 1396 0002 064A     	 ldr r2,.L168
 1397 0004 1B69     	 ldr r3,[r3,#16]
 1398 0006 5943     	 mul r1,r3
 1399 0008 0223     	 mov r3,#2
 1400 000a C913     	 asr r1,r1,#15
 1401 000c 9142     	 cmp r1,r2
 1402 000e 02D8     	 bhi .L166
 1403 0010 836A     	 ldr r3,[r0,#40]
 1404 0012 5964     	 str r1,[r3,#68]
 1405 0014 0023     	 mov r3,#0
 1406              	.L166:
 1407 0016 181C     	 mov r0,r3
 1408              	 
 1409 0018 7047     	 bx lr
 1410              	.L169:
 1411 001a C046     	 .align 2
 1412              	.L168:
 1413 001c FF7F0000 	 .word 32767
 1415              	 .section .text.PMSM_FOC_SetMotorResistance,"ax",%progbits
 1416              	 .align 1
 1417              	 .global PMSM_FOC_SetMotorResistance
 1418              	 .code 16
 1419              	 .thumb_func
 1421              	PMSM_FOC_SetMotorResistance:
 1422 0000 0368     	 ldr r3,[r0]
 1423 0002 4908     	 lsr r1,r1,#1
 1424 0004 9B69     	 ldr r3,[r3,#24]
 1425 0006 054A     	 ldr r2,.L173
 1426 0008 5943     	 mul r1,r3
 1427 000a 0223     	 mov r3,#2
 1428 000c C90B     	 lsr r1,r1,#15
 1429 000e 9142     	 cmp r1,r2
 1430 0010 02D8     	 bhi .L171
 1431 0012 836A     	 ldr r3,[r0,#40]
 1432 0014 5980     	 strh r1,[r3,#2]
 1433 0016 0023     	 mov r3,#0
 1434              	.L171:
 1435 0018 181C     	 mov r0,r3
 1436              	 
 1437 001a 7047     	 bx lr
 1438              	.L174:
 1439              	 .align 2
 1440              	.L173:
 1441 001c FF7F0000 	 .word 32767
 1443              	 .section .text.PMSM_FOC_SetMotorInductance,"ax",%progbits
 1444              	 .align 1
 1445              	 .global PMSM_FOC_SetMotorInductance
 1446              	 .code 16
 1447              	 .thumb_func
 1449              	PMSM_FOC_SetMotorInductance:
 1450 0000 8A18     	 add r2,r1,r2
 1451 0002 836A     	 ldr r3,[r0,#40]
 1452 0004 9108     	 lsr r1,r2,#2
 1453 0006 0268     	 ldr r2,[r0]
 1454 0008 9888     	 ldrh r0,[r3,#4]
 1455 000a D269     	 ldr r2,[r2,#28]
 1456              	 
 1457 000c 8240     	 lsl r2,r2,r0
 1458 000e D20B     	 lsr r2,r2,#15
 1459 0010 4A43     	 mul r2,r1
 1460 0012 92B2     	 uxth r2,r2
 1461 0014 D20B     	 lsr r2,r2,#15
 1462 0016 0020     	 mov r0,#0
 1463 0018 1A80     	 strh r2,[r3]
 1464 001a 7047     	 bx lr
 1466              	 .section .text.PMSM_FOC_GetStatus,"ax",%progbits
 1467              	 .align 1
 1468              	 .global PMSM_FOC_GetStatus
 1469              	 .code 16
 1470              	 .thumb_func
 1472              	PMSM_FOC_GetStatus:
 1473 0000 3030     	 add r0,r0,#48
 1474 0002 0078     	 ldrb r0,[r0]
 1475              	 
 1476 0004 7047     	 bx lr
 1478              	 .section .text.PMSM_FOC_SetTransitionLPFFactor,"ax",%progbits
 1479              	 .align 1
 1480              	 .global PMSM_FOC_SetTransitionLPFFactor
 1481              	 .code 16
 1482              	 .thumb_func
 1484              	PMSM_FOC_SetTransitionLPFFactor:
 1485 0000 0223     	 mov r3,#2
 1486 0002 1029     	 cmp r1,#16
 1487 0004 02D8     	 bhi .L178
 1488 0006 836A     	 ldr r3,[r0,#40]
 1489 0008 5981     	 strh r1,[r3,#10]
 1490 000a 0023     	 mov r3,#0
 1491              	.L178:
 1492 000c 181C     	 mov r0,r3
 1493              	 
 1494 000e 7047     	 bx lr
 1496              	 .section .text.PMSM_FOC_SetTransitionHighThreshold,"ax",%progbits
 1497              	 .align 1
 1498              	 .global PMSM_FOC_SetTransitionHighThreshold
 1499              	 .code 16
 1500              	 .thumb_func
 1502              	PMSM_FOC_SetTransitionHighThreshold:
 1503 0000 8022     	 mov r2,#128
 1504 0002 0223     	 mov r3,#2
 1505 0004 9200     	 lsl r2,r2,#2
 1506 0006 9142     	 cmp r1,r2
 1507 0008 02D8     	 bhi .L181
 1508 000a 836A     	 ldr r3,[r0,#40]
 1509 000c D982     	 strh r1,[r3,#22]
 1510 000e 0023     	 mov r3,#0
 1511              	.L181:
 1512 0010 181C     	 mov r0,r3
 1513              	 
 1514 0012 7047     	 bx lr
 1516              	 .section .text.PMSM_FOC_SetTransitionLowThreshold,"ax",%progbits
 1517              	 .align 1
 1518              	 .global PMSM_FOC_SetTransitionLowThreshold
 1519              	 .code 16
 1520              	 .thumb_func
 1522              	PMSM_FOC_SetTransitionLowThreshold:
 1523 0000 8022     	 mov r2,#128
 1524 0002 0223     	 mov r3,#2
 1525 0004 9200     	 lsl r2,r2,#2
 1526 0006 9142     	 cmp r1,r2
 1527 0008 02D8     	 bhi .L184
 1528 000a 836A     	 ldr r3,[r0,#40]
 1529 000c 9982     	 strh r1,[r3,#20]
 1530 000e 0023     	 mov r3,#0
 1531              	.L184:
 1532 0010 181C     	 mov r0,r3
 1533              	 
 1534 0012 7047     	 bx lr
 1536              	 .section .text.PMSM_FOC_SetSpeedProportionalGain,"ax",%progbits
 1537              	 .align 1
 1538              	 .global PMSM_FOC_SetSpeedProportionalGain
 1539              	 .code 16
 1540              	 .thumb_func
 1542              	PMSM_FOC_SetSpeedProportionalGain:
 1543 0000 034A     	 ldr r2,.L189
 1544 0002 8369     	 ldr r3,[r0,#24]
 1545 0004 0220     	 mov r0,#2
 1546 0006 9142     	 cmp r1,r2
 1547 0008 01D8     	 bhi .L187
 1548 000a 0020     	 mov r0,#0
 1549 000c 9981     	 strh r1,[r3,#12]
 1550              	.L187:
 1551              	 
 1552 000e 7047     	 bx lr
 1553              	.L190:
 1554              	 .align 2
 1555              	.L189:
 1556 0010 FFFF0000 	 .word 65535
 1558              	 .section .text.PMSM_FOC_GetSpeedProportionalGain,"ax",%progbits
 1559              	 .align 1
 1560              	 .global PMSM_FOC_GetSpeedProportionalGain
 1561              	 .code 16
 1562              	 .thumb_func
 1564              	PMSM_FOC_GetSpeedProportionalGain:
 1565 0000 8369     	 ldr r3,[r0,#24]
 1566              	 
 1567 0002 9889     	 ldrh r0,[r3,#12]
 1568 0004 7047     	 bx lr
 1570              	 .section .text.PMSM_FOC_SetSpeedIntegralGain,"ax",%progbits
 1571              	 .align 1
 1572              	 .global PMSM_FOC_SetSpeedIntegralGain
 1573              	 .code 16
 1574              	 .thumb_func
 1576              	PMSM_FOC_SetSpeedIntegralGain:
 1577 0000 034A     	 ldr r2,.L195
 1578 0002 8369     	 ldr r3,[r0,#24]
 1579 0004 0220     	 mov r0,#2
 1580 0006 9142     	 cmp r1,r2
 1581 0008 01D8     	 bhi .L193
 1582 000a 0020     	 mov r0,#0
 1583 000c D981     	 strh r1,[r3,#14]
 1584              	.L193:
 1585              	 
 1586 000e 7047     	 bx lr
 1587              	.L196:
 1588              	 .align 2
 1589              	.L195:
 1590 0010 FFFF0000 	 .word 65535
 1592              	 .section .text.PMSM_FOC_GetSpeedIntegralGain,"ax",%progbits
 1593              	 .align 1
 1594              	 .global PMSM_FOC_GetSpeedIntegralGain
 1595              	 .code 16
 1596              	 .thumb_func
 1598              	PMSM_FOC_GetSpeedIntegralGain:
 1599 0000 8369     	 ldr r3,[r0,#24]
 1600              	 
 1601 0002 D889     	 ldrh r0,[r3,#14]
 1602 0004 7047     	 bx lr
 1604              	 .section .text.PMSM_FOC_SetIdProportionalGain,"ax",%progbits
 1605              	 .align 1
 1606              	 .global PMSM_FOC_SetIdProportionalGain
 1607              	 .code 16
 1608              	 .thumb_func
 1610              	PMSM_FOC_SetIdProportionalGain:
 1611 0000 034A     	 ldr r2,.L201
 1612 0002 036A     	 ldr r3,[r0,#32]
 1613 0004 0220     	 mov r0,#2
 1614 0006 9142     	 cmp r1,r2
 1615 0008 01D8     	 bhi .L199
 1616 000a 0020     	 mov r0,#0
 1617 000c 9981     	 strh r1,[r3,#12]
 1618              	.L199:
 1619              	 
 1620 000e 7047     	 bx lr
 1621              	.L202:
 1622              	 .align 2
 1623              	.L201:
 1624 0010 FFFF0000 	 .word 65535
 1626              	 .section .text.PMSM_FOC_GetIdProportionalGain,"ax",%progbits
 1627              	 .align 1
 1628              	 .global PMSM_FOC_GetIdProportionalGain
 1629              	 .code 16
 1630              	 .thumb_func
 1632              	PMSM_FOC_GetIdProportionalGain:
 1633 0000 036A     	 ldr r3,[r0,#32]
 1634              	 
 1635 0002 9889     	 ldrh r0,[r3,#12]
 1636 0004 7047     	 bx lr
 1638              	 .section .text.PMSM_FOC_SetIdIntegralGain,"ax",%progbits
 1639              	 .align 1
 1640              	 .global PMSM_FOC_SetIdIntegralGain
 1641              	 .code 16
 1642              	 .thumb_func
 1644              	PMSM_FOC_SetIdIntegralGain:
 1645 0000 034A     	 ldr r2,.L207
 1646 0002 036A     	 ldr r3,[r0,#32]
 1647 0004 0220     	 mov r0,#2
 1648 0006 9142     	 cmp r1,r2
 1649 0008 01D8     	 bhi .L205
 1650 000a 0020     	 mov r0,#0
 1651 000c D981     	 strh r1,[r3,#14]
 1652              	.L205:
 1653              	 
 1654 000e 7047     	 bx lr
 1655              	.L208:
 1656              	 .align 2
 1657              	.L207:
 1658 0010 FFFF0000 	 .word 65535
 1660              	 .section .text.PMSM_FOC_GetIdIntegralGain,"ax",%progbits
 1661              	 .align 1
 1662              	 .global PMSM_FOC_GetIdIntegralGain
 1663              	 .code 16
 1664              	 .thumb_func
 1666              	PMSM_FOC_GetIdIntegralGain:
 1667 0000 036A     	 ldr r3,[r0,#32]
 1668              	 
 1669 0002 D889     	 ldrh r0,[r3,#14]
 1670 0004 7047     	 bx lr
 1672              	 .section .text.PMSM_FOC_SetIqProportionalGain,"ax",%progbits
 1673              	 .align 1
 1674              	 .global PMSM_FOC_SetIqProportionalGain
 1675              	 .code 16
 1676              	 .thumb_func
 1678              	PMSM_FOC_SetIqProportionalGain:
 1679 0000 034A     	 ldr r2,.L213
 1680 0002 C369     	 ldr r3,[r0,#28]
 1681 0004 0220     	 mov r0,#2
 1682 0006 9142     	 cmp r1,r2
 1683 0008 01D8     	 bhi .L211
 1684 000a 0020     	 mov r0,#0
 1685 000c 9981     	 strh r1,[r3,#12]
 1686              	.L211:
 1687              	 
 1688 000e 7047     	 bx lr
 1689              	.L214:
 1690              	 .align 2
 1691              	.L213:
 1692 0010 FFFF0000 	 .word 65535
 1694              	 .section .text.PMSM_FOC_GetIqProportionalGain,"ax",%progbits
 1695              	 .align 1
 1696              	 .global PMSM_FOC_GetIqProportionalGain
 1697              	 .code 16
 1698              	 .thumb_func
 1700              	PMSM_FOC_GetIqProportionalGain:
 1701 0000 C369     	 ldr r3,[r0,#28]
 1702              	 
 1703 0002 9889     	 ldrh r0,[r3,#12]
 1704 0004 7047     	 bx lr
 1706              	 .section .text.PMSM_FOC_SetIqIntegralGain,"ax",%progbits
 1707              	 .align 1
 1708              	 .global PMSM_FOC_SetIqIntegralGain
 1709              	 .code 16
 1710              	 .thumb_func
 1712              	PMSM_FOC_SetIqIntegralGain:
 1713 0000 034A     	 ldr r2,.L219
 1714 0002 C369     	 ldr r3,[r0,#28]
 1715 0004 0220     	 mov r0,#2
 1716 0006 9142     	 cmp r1,r2
 1717 0008 01D8     	 bhi .L217
 1718 000a 0020     	 mov r0,#0
 1719 000c D981     	 strh r1,[r3,#14]
 1720              	.L217:
 1721              	 
 1722 000e 7047     	 bx lr
 1723              	.L220:
 1724              	 .align 2
 1725              	.L219:
 1726 0010 FFFF0000 	 .word 65535
 1728              	 .section .text.PMSM_FOC_GetIqIntegralGain,"ax",%progbits
 1729              	 .align 1
 1730              	 .global PMSM_FOC_GetIqIntegralGain
 1731              	 .code 16
 1732              	 .thumb_func
 1734              	PMSM_FOC_GetIqIntegralGain:
 1735 0000 C369     	 ldr r3,[r0,#28]
 1736              	 
 1737 0002 D889     	 ldrh r0,[r3,#14]
 1738 0004 7047     	 bx lr
 1740              	 .section .text.PMSM_FOC_SetEstimatorProportionalGain,"ax",%progbits
 1741              	 .align 1
 1742              	 .global PMSM_FOC_SetEstimatorProportionalGain
 1743              	 .code 16
 1744              	 .thumb_func
 1746              	PMSM_FOC_SetEstimatorProportionalGain:
 1747 0000 034A     	 ldr r2,.L225
 1748 0002 436A     	 ldr r3,[r0,#36]
 1749 0004 0220     	 mov r0,#2
 1750 0006 9142     	 cmp r1,r2
 1751 0008 01D8     	 bhi .L223
 1752 000a 0020     	 mov r0,#0
 1753 000c 9981     	 strh r1,[r3,#12]
 1754              	.L223:
 1755              	 
 1756 000e 7047     	 bx lr
 1757              	.L226:
 1758              	 .align 2
 1759              	.L225:
 1760 0010 FFFF0000 	 .word 65535
 1762              	 .section .text.PMSM_FOC_GetEstimatorProportionalGain,"ax",%progbits
 1763              	 .align 1
 1764              	 .global PMSM_FOC_GetEstimatorProportionalGain
 1765              	 .code 16
 1766              	 .thumb_func
 1768              	PMSM_FOC_GetEstimatorProportionalGain:
 1769 0000 436A     	 ldr r3,[r0,#36]
 1770              	 
 1771 0002 9889     	 ldrh r0,[r3,#12]
 1772 0004 7047     	 bx lr
 1774              	 .section .text.PMSM_FOC_SetEstimatorIntegralGain,"ax",%progbits
 1775              	 .align 1
 1776              	 .global PMSM_FOC_SetEstimatorIntegralGain
 1777              	 .code 16
 1778              	 .thumb_func
 1780              	PMSM_FOC_SetEstimatorIntegralGain:
 1781 0000 034A     	 ldr r2,.L231
 1782 0002 436A     	 ldr r3,[r0,#36]
 1783 0004 0220     	 mov r0,#2
 1784 0006 9142     	 cmp r1,r2
 1785 0008 01D8     	 bhi .L229
 1786 000a 0020     	 mov r0,#0
 1787 000c D981     	 strh r1,[r3,#14]
 1788              	.L229:
 1789              	 
 1790 000e 7047     	 bx lr
 1791              	.L232:
 1792              	 .align 2
 1793              	.L231:
 1794 0010 FFFF0000 	 .word 65535
 1796              	 .section .text.PMSM_FOC_GetEstimatorIntegralGain,"ax",%progbits
 1797              	 .align 1
 1798              	 .global PMSM_FOC_GetEstimatorIntegralGain
 1799              	 .code 16
 1800              	 .thumb_func
 1802              	PMSM_FOC_GetEstimatorIntegralGain:
 1803 0000 436A     	 ldr r3,[r0,#36]
 1804              	 
 1805 0002 D889     	 ldrh r0,[r3,#14]
 1806 0004 7047     	 bx lr
 1808              	 .ident "GCC: (GNU Tools for ARM Embedded Processors) 4.9.3 20141119 (release) [ARM/embedded-4_9-branch revision 218278]"
DEFINED SYMBOLS
                            *ABS*:00000000 pmsm_foc.c
    {standard input}:15     .text.PMSM_FOC_ISRInit:00000000 $t
    {standard input}:19     .text.PMSM_FOC_ISRInit:00000000 PMSM_FOC_ISRInit
    {standard input}:86     .text.PMSM_FOC_ISRInit:00000078 $d
    {standard input}:90     .text.PMSM_FOC_GetAppVersion:00000000 $t
    {standard input}:95     .text.PMSM_FOC_GetAppVersion:00000000 PMSM_FOC_GetAppVersion
    {standard input}:104    .text.PMSM_FOC_GetAppVersion:00000008 $d
    {standard input}:107    .text.PMSM_FOC_Init:00000000 $t
    {standard input}:112    .text.PMSM_FOC_Init:00000000 PMSM_FOC_Init
    {standard input}:276    .text.PMSM_FOC_Init:00000130 $d
    {standard input}:279    .text.PMSM_FOC_MotorParamInit:00000000 $t
    {standard input}:284    .text.PMSM_FOC_MotorParamInit:00000000 PMSM_FOC_MotorParamInit
    {standard input}:361    .text.PMSM_FOC_MotorStart:00000000 $t
    {standard input}:366    .text.PMSM_FOC_MotorStart:00000000 PMSM_FOC_MotorStart
    {standard input}:381    .text.PMSM_FOC_MotorStop:00000000 $t
    {standard input}:386    .text.PMSM_FOC_MotorStop:00000000 PMSM_FOC_MotorStop
    {standard input}:410    .text.PMSM_FOC_AmpBiasVoltCalibration:00000000 $t
    {standard input}:415    .text.PMSM_FOC_AmpBiasVoltCalibration:00000000 PMSM_FOC_AmpBiasVoltCalibration
    {standard input}:486    .text.PMSM_FOC_StartPWMTimer:00000000 $t
    {standard input}:491    .text.PMSM_FOC_StartPWMTimer:00000000 PMSM_FOC_StartPWMTimer
    {standard input}:545    .text.PMSM_FOC_StartPWMTimer:00000060 $d
    {standard input}:548    .text.PMSM_FOC_StopPWMTimer:00000000 $t
    {standard input}:553    .text.PMSM_FOC_StopPWMTimer:00000000 PMSM_FOC_StopPWMTimer
    {standard input}:566    .text.PMSM_FOC_StopPWMTimer:00000010 $d
    {standard input}:569    .text.PMSM_FOC_BootstrapConfiguration:00000000 $t
    {standard input}:574    .text.PMSM_FOC_BootstrapConfiguration:00000000 PMSM_FOC_BootstrapConfiguration
    {standard input}:617    .text.PMSM_FOC_BootstrapConfiguration:0000004c $d
    {standard input}:620    .text.PMSM_FOC_ClearErrorState:00000000 $t
    {standard input}:625    .text.PMSM_FOC_ClearErrorState:00000000 PMSM_FOC_ClearErrorState
    {standard input}:634    .text.PMSM_FOC_Bootstrap:00000000 $t
    {standard input}:639    .text.PMSM_FOC_Bootstrap:00000000 PMSM_FOC_Bootstrap
    {standard input}:728    .text.PMSM_FOC_Bootstrap:000000b0 $d
    {standard input}:731    .text.PMSM_FOC_Vf_Open_Loop:00000000 $t
    {standard input}:736    .text.PMSM_FOC_Vf_Open_Loop:00000000 PMSM_FOC_Vf_Open_Loop
    {standard input}:828    .text.PMSM_FOC_Vf_Open_Loop:000000a4 $d
    {standard input}:833    .text.PMSM_FOC_Controller_Init_OnceOnly:00000000 $t
    {standard input}:838    .text.PMSM_FOC_Controller_Init_OnceOnly:00000000 PMSM_FOC_Controller_Init_OnceOnly
    {standard input}:864    .text.PMSM_FOC_Vf_RampUp:00000000 $t
    {standard input}:869    .text.PMSM_FOC_Vf_RampUp:00000000 PMSM_FOC_Vf_RampUp
    {standard input}:1042   .text.PMSM_FOC_Vf_RampUp:00000144 $d
    {standard input}:1046   .text.PMSM_FOC_Transition_to_FOC:00000000 $t
    {standard input}:1051   .text.PMSM_FOC_Transition_to_FOC:00000000 PMSM_FOC_Transition_to_FOC
    {standard input}:1079   .text.PMSM_FOC_METTransition:00000000 $t
    {standard input}:1084   .text.PMSM_FOC_METTransition:00000000 PMSM_FOC_METTransition
    {standard input}:1123   .text.PMSM_FOC_Rotor_Pre_Positioning:00000000 $t
    {standard input}:1128   .text.PMSM_FOC_Rotor_Pre_Positioning:00000000 PMSM_FOC_Rotor_Pre_Positioning
    {standard input}:1198   .text.PMSM_FOC_Rotor_Pre_Positioning:00000084 $d
    {standard input}:1202   .text.PMSM_FOC_SetEndSpeed:00000000 $t
    {standard input}:1207   .text.PMSM_FOC_SetEndSpeed:00000000 PMSM_FOC_SetEndSpeed
    {standard input}:1225   .text.PMSM_FOC_SetEndSpeed:00000018 $d
    {standard input}:1228   .text.PMSM_FOC_SetVFEndSpeed:00000000 $t
    {standard input}:1233   .text.PMSM_FOC_SetVFEndSpeed:00000000 PMSM_FOC_SetVFEndSpeed
    {standard input}:1252   .text.PMSM_FOC_SetVFEndSpeed:0000001c $d
    {standard input}:1256   .text.PMSM_FOC_GetMotorSpeed:00000000 $t
    {standard input}:1261   .text.PMSM_FOC_GetMotorSpeed:00000000 PMSM_FOC_GetMotorSpeed
    {standard input}:1277   .text.PMSM_FOC_GetEndSpeed:00000000 $t
    {standard input}:1282   .text.PMSM_FOC_GetEndSpeed:00000000 PMSM_FOC_GetEndSpeed
    {standard input}:1298   .text.PMSM_FOC_SetMotorDirection:00000000 $t
    {standard input}:1303   .text.PMSM_FOC_SetMotorDirection:00000000 PMSM_FOC_SetMotorDirection
    {standard input}:1325   .text.PMSM_FOC_GetMotorDirection:00000000 $t
    {standard input}:1330   .text.PMSM_FOC_GetMotorDirection:00000000 PMSM_FOC_GetMotorDirection
    {standard input}:1338   .text.PMSM_FOC_SetIqRef:00000000 $t
    {standard input}:1343   .text.PMSM_FOC_SetIqRef:00000000 PMSM_FOC_SetIqRef
    {standard input}:1370   .text.PMSM_FOC_SetIqRef:0000002c $d
    {standard input}:1373   .text.PMSM_FOC_GetIqRef:00000000 $t
    {standard input}:1378   .text.PMSM_FOC_GetIqRef:00000000 PMSM_FOC_GetIqRef
    {standard input}:1389   .text.PMSM_FOC_SetIdRef:00000000 $t
    {standard input}:1394   .text.PMSM_FOC_SetIdRef:00000000 PMSM_FOC_SetIdRef
    {standard input}:1413   .text.PMSM_FOC_SetIdRef:0000001c $d
    {standard input}:1416   .text.PMSM_FOC_SetMotorResistance:00000000 $t
    {standard input}:1421   .text.PMSM_FOC_SetMotorResistance:00000000 PMSM_FOC_SetMotorResistance
    {standard input}:1441   .text.PMSM_FOC_SetMotorResistance:0000001c $d
    {standard input}:1444   .text.PMSM_FOC_SetMotorInductance:00000000 $t
    {standard input}:1449   .text.PMSM_FOC_SetMotorInductance:00000000 PMSM_FOC_SetMotorInductance
    {standard input}:1467   .text.PMSM_FOC_GetStatus:00000000 $t
    {standard input}:1472   .text.PMSM_FOC_GetStatus:00000000 PMSM_FOC_GetStatus
    {standard input}:1479   .text.PMSM_FOC_SetTransitionLPFFactor:00000000 $t
    {standard input}:1484   .text.PMSM_FOC_SetTransitionLPFFactor:00000000 PMSM_FOC_SetTransitionLPFFactor
    {standard input}:1497   .text.PMSM_FOC_SetTransitionHighThreshold:00000000 $t
    {standard input}:1502   .text.PMSM_FOC_SetTransitionHighThreshold:00000000 PMSM_FOC_SetTransitionHighThreshold
    {standard input}:1517   .text.PMSM_FOC_SetTransitionLowThreshold:00000000 $t
    {standard input}:1522   .text.PMSM_FOC_SetTransitionLowThreshold:00000000 PMSM_FOC_SetTransitionLowThreshold
    {standard input}:1537   .text.PMSM_FOC_SetSpeedProportionalGain:00000000 $t
    {standard input}:1542   .text.PMSM_FOC_SetSpeedProportionalGain:00000000 PMSM_FOC_SetSpeedProportionalGain
    {standard input}:1556   .text.PMSM_FOC_SetSpeedProportionalGain:00000010 $d
    {standard input}:1559   .text.PMSM_FOC_GetSpeedProportionalGain:00000000 $t
    {standard input}:1564   .text.PMSM_FOC_GetSpeedProportionalGain:00000000 PMSM_FOC_GetSpeedProportionalGain
    {standard input}:1571   .text.PMSM_FOC_SetSpeedIntegralGain:00000000 $t
    {standard input}:1576   .text.PMSM_FOC_SetSpeedIntegralGain:00000000 PMSM_FOC_SetSpeedIntegralGain
    {standard input}:1590   .text.PMSM_FOC_SetSpeedIntegralGain:00000010 $d
    {standard input}:1593   .text.PMSM_FOC_GetSpeedIntegralGain:00000000 $t
    {standard input}:1598   .text.PMSM_FOC_GetSpeedIntegralGain:00000000 PMSM_FOC_GetSpeedIntegralGain
    {standard input}:1605   .text.PMSM_FOC_SetIdProportionalGain:00000000 $t
    {standard input}:1610   .text.PMSM_FOC_SetIdProportionalGain:00000000 PMSM_FOC_SetIdProportionalGain
    {standard input}:1624   .text.PMSM_FOC_SetIdProportionalGain:00000010 $d
    {standard input}:1627   .text.PMSM_FOC_GetIdProportionalGain:00000000 $t
    {standard input}:1632   .text.PMSM_FOC_GetIdProportionalGain:00000000 PMSM_FOC_GetIdProportionalGain
    {standard input}:1639   .text.PMSM_FOC_SetIdIntegralGain:00000000 $t
    {standard input}:1644   .text.PMSM_FOC_SetIdIntegralGain:00000000 PMSM_FOC_SetIdIntegralGain
    {standard input}:1658   .text.PMSM_FOC_SetIdIntegralGain:00000010 $d
    {standard input}:1661   .text.PMSM_FOC_GetIdIntegralGain:00000000 $t
    {standard input}:1666   .text.PMSM_FOC_GetIdIntegralGain:00000000 PMSM_FOC_GetIdIntegralGain
    {standard input}:1673   .text.PMSM_FOC_SetIqProportionalGain:00000000 $t
    {standard input}:1678   .text.PMSM_FOC_SetIqProportionalGain:00000000 PMSM_FOC_SetIqProportionalGain
    {standard input}:1692   .text.PMSM_FOC_SetIqProportionalGain:00000010 $d
    {standard input}:1695   .text.PMSM_FOC_GetIqProportionalGain:00000000 $t
    {standard input}:1700   .text.PMSM_FOC_GetIqProportionalGain:00000000 PMSM_FOC_GetIqProportionalGain
    {standard input}:1707   .text.PMSM_FOC_SetIqIntegralGain:00000000 $t
    {standard input}:1712   .text.PMSM_FOC_SetIqIntegralGain:00000000 PMSM_FOC_SetIqIntegralGain
    {standard input}:1726   .text.PMSM_FOC_SetIqIntegralGain:00000010 $d
    {standard input}:1729   .text.PMSM_FOC_GetIqIntegralGain:00000000 $t
    {standard input}:1734   .text.PMSM_FOC_GetIqIntegralGain:00000000 PMSM_FOC_GetIqIntegralGain
    {standard input}:1741   .text.PMSM_FOC_SetEstimatorProportionalGain:00000000 $t
    {standard input}:1746   .text.PMSM_FOC_SetEstimatorProportionalGain:00000000 PMSM_FOC_SetEstimatorProportionalGain
    {standard input}:1760   .text.PMSM_FOC_SetEstimatorProportionalGain:00000010 $d
    {standard input}:1763   .text.PMSM_FOC_GetEstimatorProportionalGain:00000000 $t
    {standard input}:1768   .text.PMSM_FOC_GetEstimatorProportionalGain:00000000 PMSM_FOC_GetEstimatorProportionalGain
    {standard input}:1775   .text.PMSM_FOC_SetEstimatorIntegralGain:00000000 $t
    {standard input}:1780   .text.PMSM_FOC_SetEstimatorIntegralGain:00000000 PMSM_FOC_SetEstimatorIntegralGain
    {standard input}:1794   .text.PMSM_FOC_SetEstimatorIntegralGain:00000010 $d
    {standard input}:1797   .text.PMSM_FOC_GetEstimatorIntegralGain:00000000 $t
    {standard input}:1802   .text.PMSM_FOC_GetEstimatorIntegralGain:00000000 PMSM_FOC_GetEstimatorIntegralGain

UNDEFINED SYMBOLS
PWM_SVM_Init
ADC_QUEUE_Init
XMC_VADC_GROUP_ChannelInit
ADC_QUEUE_InsertQueueEntry
ADC_QUEUE_AllEntriesInserted
PMSM_FOC_MSM
PWM_SVM_Stop
XMC_CCU8_SLICE_StartConfig
XMC_CCU8_SLICE_SetTimerCompareMatch
XMC_CCU8_SLICE_SetOutPath
Init_Smooth_Transition_To_FOC
Init_FOC_RotorAngle
Init_FOC_PI_Iks
__aeabi_lmul
