
NEW.elf:     file format elf32-littlearm

Sections:
Idx Name          Size      VMA       LMA       File off  Algn
  0 .text         000089d8  10001000  10001000  00001000  2**3
                  CONTENTS, ALLOC, LOAD, READONLY, CODE
  1 .eh_frame     00000000  100099d8  100099d8  000099d8  2**2
                  CONTENTS, ALLOC, LOAD, READONLY, DATA
  2 .VENEER_Code  00000138  2000000c  100099d8  0001000c  2**2
                  CONTENTS, ALLOC, LOAD, READONLY, CODE
  3 Stack         00000404  20000144  00000000  00000144  2**0
                  ALLOC
  4 .data         00000604  20000548  10009b10  00010548  2**2
                  CONTENTS, ALLOC, LOAD, DATA
  5 .ram_code     00000d48  20000b50  1000a114  00010b50  2**3
                  CONTENTS, ALLOC, LOAD, READONLY, CODE
  6 .bss          00000188  20001898  00001754  00011898  2**2
                  ALLOC
  7 .no_init      00000004  20003ffc  00003eb8  00000144  2**2
                  ALLOC
  8 .debug_aranges 00000040  00000000  00000000  00011898  2**0
                  CONTENTS, READONLY, DEBUGGING
  9 .debug_info   00003c0c  00000000  00000000  000118d8  2**0
                  CONTENTS, READONLY, DEBUGGING
 10 .debug_abbrev 000002b4  00000000  00000000  000154e4  2**0
                  CONTENTS, READONLY, DEBUGGING
 11 .debug_line   00000698  00000000  00000000  00015798  2**0
                  CONTENTS, READONLY, DEBUGGING
 12 .debug_frame  00000ca0  00000000  00000000  00015e30  2**2
                  CONTENTS, READONLY, DEBUGGING
 13 .debug_str    0000350f  00000000  00000000  00016ad0  2**0
                  CONTENTS, READONLY, DEBUGGING
 14 .debug_loc    00000724  00000000  00000000  00019fdf  2**0
                  CONTENTS, READONLY, DEBUGGING
 15 .debug_ranges 00000048  00000000  00000000  0001a703  2**0
                  CONTENTS, READONLY, DEBUGGING
 16 .build_attributes 00000f8b  00000000  00000000  0001a74b  2**0
                  CONTENTS, READONLY

Disassembly of section .text:

10001000 <__Vectors>:
10001000:	48 05 00 20 19 10 00 10 00 00 00 00 99 10 00 10     H.. ............
10001010:	00 04 01 00 00 01 00 00                             ........

10001018 <Reset_Handler>:
10001018:	4911      	ldr	r1, [pc, #68]	; (10001060 <__copy_data+0xe>)
1000101a:	4a12      	ldr	r2, [pc, #72]	; (10001064 <__copy_data+0x12>)
1000101c:	4b12      	ldr	r3, [pc, #72]	; (10001068 <__copy_data+0x16>)
1000101e:	f000 f818 	bl	10001052 <__copy_data>
10001022:	4812      	ldr	r0, [pc, #72]	; (1000106c <__copy_data+0x1a>)
10001024:	4780      	blx	r0
10001026:	4912      	ldr	r1, [pc, #72]	; (10001070 <__copy_data+0x1e>)
10001028:	4a12      	ldr	r2, [pc, #72]	; (10001074 <__copy_data+0x22>)
1000102a:	4b13      	ldr	r3, [pc, #76]	; (10001078 <__copy_data+0x26>)
1000102c:	f000 f811 	bl	10001052 <__copy_data>
10001030:	4912      	ldr	r1, [pc, #72]	; (1000107c <__copy_data+0x2a>)
10001032:	4a13      	ldr	r2, [pc, #76]	; (10001080 <__copy_data+0x2e>)
10001034:	4b13      	ldr	r3, [pc, #76]	; (10001084 <__copy_data+0x32>)
10001036:	f000 f80c 	bl	10001052 <__copy_data>
1000103a:	4913      	ldr	r1, [pc, #76]	; (10001088 <__copy_data+0x36>)
1000103c:	4a13      	ldr	r2, [pc, #76]	; (1000108c <__copy_data+0x3a>)
1000103e:	2000      	movs	r0, #0
10001040:	1a52      	subs	r2, r2, r1
10001042:	dd02      	ble.n	1000104a <Reset_Handler+0x32>
10001044:	3a04      	subs	r2, #4
10001046:	5088      	str	r0, [r1, r2]
10001048:	dcfc      	bgt.n	10001044 <Reset_Handler+0x2c>
1000104a:	4811      	ldr	r0, [pc, #68]	; (10001090 <__copy_data+0x3e>)
1000104c:	4780      	blx	r0
1000104e:	4811      	ldr	r0, [pc, #68]	; (10001094 <__copy_data+0x42>)
10001050:	4780      	blx	r0

10001052 <__copy_data>:
10001052:	1a9b      	subs	r3, r3, r2
10001054:	dd03      	ble.n	1000105e <__copy_data+0xc>
10001056:	3b04      	subs	r3, #4
10001058:	58c8      	ldr	r0, [r1, r3]
1000105a:	50d0      	str	r0, [r2, r3]
1000105c:	dcfb      	bgt.n	10001056 <__copy_data+0x4>
1000105e:	4770      	bx	lr
10001060:	100099d8 	.word	0x100099d8
10001064:	2000000c 	.word	0x2000000c
10001068:	20000144 	.word	0x20000144
1000106c:	100010e9 	.word	0x100010e9
10001070:	10009b10 	.word	0x10009b10
10001074:	20000548 	.word	0x20000548
10001078:	20000b4c 	.word	0x20000b4c
1000107c:	1000a114 	.word	0x1000a114
10001080:	20000b50 	.word	0x20000b50
10001084:	20001898 	.word	0x20001898
10001088:	20001898 	.word	0x20001898
1000108c:	20001a20 	.word	0x20001a20
10001090:	10003289 	.word	0x10003289
10001094:	10002fed 	.word	0x10002fed

10001098 <BCCU0_0_IRQHandler>:
10001098:	e7fe      	b.n	10001098 <BCCU0_0_IRQHandler>
	...

1000109c <SystemCoreClockUpdate>:
1000109c:	4b0c      	ldr	r3, [pc, #48]	; (100010d0 <SystemCoreClockUpdate+0x34>)
1000109e:	4a0d      	ldr	r2, [pc, #52]	; (100010d4 <SystemCoreClockUpdate+0x38>)
100010a0:	6819      	ldr	r1, [r3, #0]
100010a2:	b510      	push	{r4, lr}
100010a4:	0409      	lsls	r1, r1, #16
100010a6:	0e09      	lsrs	r1, r1, #24
100010a8:	6011      	str	r1, [r2, #0]
100010aa:	681b      	ldr	r3, [r3, #0]
100010ac:	4a0a      	ldr	r2, [pc, #40]	; (100010d8 <SystemCoreClockUpdate+0x3c>)
100010ae:	b2db      	uxtb	r3, r3
100010b0:	6013      	str	r3, [r2, #0]
100010b2:	4c0a      	ldr	r4, [pc, #40]	; (100010dc <SystemCoreClockUpdate+0x40>)
100010b4:	2900      	cmp	r1, #0
100010b6:	d007      	beq.n	100010c8 <SystemCoreClockUpdate+0x2c>
100010b8:	0209      	lsls	r1, r1, #8
100010ba:	18c9      	adds	r1, r1, r3
100010bc:	4808      	ldr	r0, [pc, #32]	; (100010e0 <SystemCoreClockUpdate+0x44>)
100010be:	f000 fa53 	bl	10001568 <__aeabi_uidiv>
100010c2:	0040      	lsls	r0, r0, #1
100010c4:	6020      	str	r0, [r4, #0]
100010c6:	e001      	b.n	100010cc <SystemCoreClockUpdate+0x30>
100010c8:	4b06      	ldr	r3, [pc, #24]	; (100010e4 <SystemCoreClockUpdate+0x48>)
100010ca:	6023      	str	r3, [r4, #0]
100010cc:	bd10      	pop	{r4, pc}
100010ce:	46c0      	nop			; (mov r8, r8)
100010d0:	40010300 	.word	0x40010300
100010d4:	2000189c 	.word	0x2000189c
100010d8:	20001898 	.word	0x20001898
100010dc:	20003ffc 	.word	0x20003ffc
100010e0:	f4240000 	.word	0xf4240000
100010e4:	01e84800 	.word	0x01e84800

100010e8 <SystemInit>:
100010e8:	b508      	push	{r3, lr}
100010ea:	f001 fe43 	bl	10002d74 <SystemCoreSetup>
100010ee:	f001 fe49 	bl	10002d84 <SystemCoreClockSetup>
100010f2:	bd08      	pop	{r3, pc}

100010f4 <XMC_GPIO_Init>:
100010f4:	b5f7      	push	{r0, r1, r2, r4, r5, r6, r7, lr}
100010f6:	2503      	movs	r5, #3
100010f8:	1c0c      	adds	r4, r1, #0
100010fa:	402c      	ands	r4, r5
100010fc:	40ac      	lsls	r4, r5
100010fe:	9401      	str	r4, [sp, #4]
10001100:	24f8      	movs	r4, #248	; 0xf8
10001102:	9e01      	ldr	r6, [sp, #4]
10001104:	088b      	lsrs	r3, r1, #2
10001106:	40b4      	lsls	r4, r6
10001108:	009b      	lsls	r3, r3, #2
1000110a:	18c3      	adds	r3, r0, r3
1000110c:	691f      	ldr	r7, [r3, #16]
1000110e:	2604      	movs	r6, #4
10001110:	43a7      	bics	r7, r4
10001112:	611f      	str	r7, [r3, #16]
10001114:	004f      	lsls	r7, r1, #1
10001116:	40bd      	lsls	r5, r7
10001118:	6f44      	ldr	r4, [r0, #116]	; 0x74
1000111a:	43ac      	bics	r4, r5
1000111c:	2507      	movs	r5, #7
1000111e:	400d      	ands	r5, r1
10001120:	00ad      	lsls	r5, r5, #2
10001122:	40ae      	lsls	r6, r5
10001124:	6744      	str	r4, [r0, #116]	; 0x74
10001126:	08cc      	lsrs	r4, r1, #3
10001128:	00a4      	lsls	r4, r4, #2
1000112a:	1904      	adds	r4, r0, r4
1000112c:	6c27      	ldr	r7, [r4, #64]	; 0x40
1000112e:	43b7      	bics	r7, r6
10001130:	6427      	str	r7, [r4, #64]	; 0x40
10001132:	7856      	ldrb	r6, [r2, #1]
10001134:	6c27      	ldr	r7, [r4, #64]	; 0x40
10001136:	40ae      	lsls	r6, r5
10001138:	1c35      	adds	r5, r6, #0
1000113a:	433d      	orrs	r5, r7
1000113c:	6425      	str	r5, [r4, #64]	; 0x40
1000113e:	4c0a      	ldr	r4, [pc, #40]	; (10001168 <XMC_GPIO_Init+0x74>)
10001140:	42a0      	cmp	r0, r4
10001142:	d104      	bne.n	1000114e <XMC_GPIO_Init+0x5a>
10001144:	2501      	movs	r5, #1
10001146:	408d      	lsls	r5, r1
10001148:	6e04      	ldr	r4, [r0, #96]	; 0x60
1000114a:	43ac      	bics	r4, r5
1000114c:	6604      	str	r4, [r0, #96]	; 0x60
1000114e:	7814      	ldrb	r4, [r2, #0]
10001150:	b265      	sxtb	r5, r4
10001152:	2d00      	cmp	r5, #0
10001154:	da02      	bge.n	1000115c <XMC_GPIO_Init+0x68>
10001156:	6852      	ldr	r2, [r2, #4]
10001158:	408a      	lsls	r2, r1
1000115a:	6042      	str	r2, [r0, #4]
1000115c:	9901      	ldr	r1, [sp, #4]
1000115e:	691a      	ldr	r2, [r3, #16]
10001160:	408c      	lsls	r4, r1
10001162:	4314      	orrs	r4, r2
10001164:	611c      	str	r4, [r3, #16]
10001166:	bdf7      	pop	{r0, r1, r2, r4, r5, r6, r7, pc}
10001168:	40040200 	.word	0x40040200

1000116c <XMC_SCU_UnlockProtectedBits>:
1000116c:	22c0      	movs	r2, #192	; 0xc0
1000116e:	4b03      	ldr	r3, [pc, #12]	; (1000117c <XMC_SCU_UnlockProtectedBits+0x10>)
10001170:	625a      	str	r2, [r3, #36]	; 0x24
10001172:	6a5a      	ldr	r2, [r3, #36]	; 0x24
10001174:	0752      	lsls	r2, r2, #29
10001176:	d4fc      	bmi.n	10001172 <XMC_SCU_UnlockProtectedBits+0x6>
10001178:	4770      	bx	lr
1000117a:	46c0      	nop			; (mov r8, r8)
1000117c:	40010000 	.word	0x40010000

10001180 <XMC_SCU_CLOCK_UngatePeripheralClock>:
10001180:	b510      	push	{r4, lr}
10001182:	1c04      	adds	r4, r0, #0
10001184:	f7ff fff2 	bl	1000116c <XMC_SCU_UnlockProtectedBits>
10001188:	4b05      	ldr	r3, [pc, #20]	; (100011a0 <XMC_SCU_CLOCK_UngatePeripheralClock+0x20>)
1000118a:	6918      	ldr	r0, [r3, #16]
1000118c:	4320      	orrs	r0, r4
1000118e:	6118      	str	r0, [r3, #16]
10001190:	681a      	ldr	r2, [r3, #0]
10001192:	0052      	lsls	r2, r2, #1
10001194:	d4fc      	bmi.n	10001190 <XMC_SCU_CLOCK_UngatePeripheralClock+0x10>
10001196:	22c3      	movs	r2, #195	; 0xc3
10001198:	4b02      	ldr	r3, [pc, #8]	; (100011a4 <XMC_SCU_CLOCK_UngatePeripheralClock+0x24>)
1000119a:	625a      	str	r2, [r3, #36]	; 0x24
1000119c:	bd10      	pop	{r4, pc}
1000119e:	46c0      	nop			; (mov r8, r8)
100011a0:	40010300 	.word	0x40010300
100011a4:	40010000 	.word	0x40010000

100011a8 <XMC_SCU_CLOCK_IsPeripheralClockGated>:
100011a8:	4b03      	ldr	r3, [pc, #12]	; (100011b8 <XMC_SCU_CLOCK_IsPeripheralClockGated+0x10>)
100011aa:	689b      	ldr	r3, [r3, #8]
100011ac:	4018      	ands	r0, r3
100011ae:	1e43      	subs	r3, r0, #1
100011b0:	4198      	sbcs	r0, r3
100011b2:	b2c0      	uxtb	r0, r0
100011b4:	4770      	bx	lr
100011b6:	46c0      	nop			; (mov r8, r8)
100011b8:	40010300 	.word	0x40010300

100011bc <XMC_SCU_CLOCK_ScaleMCLKFrequency>:
100011bc:	b5f8      	push	{r3, r4, r5, r6, r7, lr}
100011be:	1c0d      	adds	r5, r1, #0
100011c0:	1c04      	adds	r4, r0, #0
100011c2:	f7ff ffd3 	bl	1000116c <XMC_SCU_UnlockProtectedBits>
100011c6:	4b20      	ldr	r3, [pc, #128]	; (10001248 <XMC_SCU_CLOCK_ScaleMCLKFrequency+0x8c>)
100011c8:	4920      	ldr	r1, [pc, #128]	; (1000124c <XMC_SCU_CLOCK_ScaleMCLKFrequency+0x90>)
100011ca:	681a      	ldr	r2, [r3, #0]
100011cc:	6818      	ldr	r0, [r3, #0]
100011ce:	0412      	lsls	r2, r2, #16
100011d0:	4008      	ands	r0, r1
100011d2:	491f      	ldr	r1, [pc, #124]	; (10001250 <XMC_SCU_CLOCK_ScaleMCLKFrequency+0x94>)
100011d4:	0e12      	lsrs	r2, r2, #24
100011d6:	4308      	orrs	r0, r1
100011d8:	4328      	orrs	r0, r5
100011da:	6018      	str	r0, [r3, #0]
100011dc:	6818      	ldr	r0, [r3, #0]
100011de:	0040      	lsls	r0, r0, #1
100011e0:	d4fc      	bmi.n	100011dc <XMC_SCU_CLOCK_ScaleMCLKFrequency+0x20>
100011e2:	4d1c      	ldr	r5, [pc, #112]	; (10001254 <XMC_SCU_CLOCK_ScaleMCLKFrequency+0x98>)
100011e4:	00a6      	lsls	r6, r4, #2
100011e6:	42a2      	cmp	r2, r4
100011e8:	d81a      	bhi.n	10001220 <XMC_SCU_CLOCK_ScaleMCLKFrequency+0x64>
100011ea:	0090      	lsls	r0, r2, #2
100011ec:	42a0      	cmp	r0, r4
100011ee:	d20d      	bcs.n	1000120c <XMC_SCU_CLOCK_ScaleMCLKFrequency+0x50>
100011f0:	2a00      	cmp	r2, #0
100011f2:	d100      	bne.n	100011f6 <XMC_SCU_CLOCK_ScaleMCLKFrequency+0x3a>
100011f4:	3201      	adds	r2, #1
100011f6:	6818      	ldr	r0, [r3, #0]
100011f8:	0092      	lsls	r2, r2, #2
100011fa:	4028      	ands	r0, r5
100011fc:	4308      	orrs	r0, r1
100011fe:	0216      	lsls	r6, r2, #8
10001200:	4330      	orrs	r0, r6
10001202:	6018      	str	r0, [r3, #0]
10001204:	6818      	ldr	r0, [r3, #0]
10001206:	0040      	lsls	r0, r0, #1
10001208:	d4fc      	bmi.n	10001204 <XMC_SCU_CLOCK_ScaleMCLKFrequency+0x48>
1000120a:	e7ee      	b.n	100011ea <XMC_SCU_CLOCK_ScaleMCLKFrequency+0x2e>
1000120c:	681a      	ldr	r2, [r3, #0]
1000120e:	0224      	lsls	r4, r4, #8
10001210:	402a      	ands	r2, r5
10001212:	4311      	orrs	r1, r2
10001214:	4321      	orrs	r1, r4
10001216:	6019      	str	r1, [r3, #0]
10001218:	e00c      	b.n	10001234 <XMC_SCU_CLOCK_ScaleMCLKFrequency+0x78>
1000121a:	6818      	ldr	r0, [r3, #0]
1000121c:	0040      	lsls	r0, r0, #1
1000121e:	d4fc      	bmi.n	1000121a <XMC_SCU_CLOCK_ScaleMCLKFrequency+0x5e>
10001220:	42b2      	cmp	r2, r6
10001222:	d9f3      	bls.n	1000120c <XMC_SCU_CLOCK_ScaleMCLKFrequency+0x50>
10001224:	6818      	ldr	r0, [r3, #0]
10001226:	0892      	lsrs	r2, r2, #2
10001228:	4028      	ands	r0, r5
1000122a:	4308      	orrs	r0, r1
1000122c:	0217      	lsls	r7, r2, #8
1000122e:	4338      	orrs	r0, r7
10001230:	6018      	str	r0, [r3, #0]
10001232:	e7f2      	b.n	1000121a <XMC_SCU_CLOCK_ScaleMCLKFrequency+0x5e>
10001234:	681a      	ldr	r2, [r3, #0]
10001236:	0052      	lsls	r2, r2, #1
10001238:	d4fc      	bmi.n	10001234 <XMC_SCU_CLOCK_ScaleMCLKFrequency+0x78>
1000123a:	22c3      	movs	r2, #195	; 0xc3
1000123c:	4b06      	ldr	r3, [pc, #24]	; (10001258 <XMC_SCU_CLOCK_ScaleMCLKFrequency+0x9c>)
1000123e:	625a      	str	r2, [r3, #36]	; 0x24
10001240:	f7ff ff2c 	bl	1000109c <SystemCoreClockUpdate>
10001244:	bdf8      	pop	{r3, r4, r5, r6, r7, pc}
10001246:	46c0      	nop			; (mov r8, r8)
10001248:	40010300 	.word	0x40010300
1000124c:	c00fff00 	.word	0xc00fff00
10001250:	3ff00000 	.word	0x3ff00000
10001254:	c00f00ff 	.word	0xc00f00ff
10001258:	40010000 	.word	0x40010000

1000125c <XMC_SCU_CLOCK_Init>:
1000125c:	b510      	push	{r4, lr}
1000125e:	1c04      	adds	r4, r0, #0
10001260:	f7ff ff84 	bl	1000116c <XMC_SCU_UnlockProtectedBits>
10001264:	68a2      	ldr	r2, [r4, #8]
10001266:	6861      	ldr	r1, [r4, #4]
10001268:	4807      	ldr	r0, [pc, #28]	; (10001288 <XMC_SCU_CLOCK_Init+0x2c>)
1000126a:	4311      	orrs	r1, r2
1000126c:	6803      	ldr	r3, [r0, #0]
1000126e:	4a07      	ldr	r2, [pc, #28]	; (1000128c <XMC_SCU_CLOCK_Init+0x30>)
10001270:	4013      	ands	r3, r2
10001272:	22c3      	movs	r2, #195	; 0xc3
10001274:	430b      	orrs	r3, r1
10001276:	6003      	str	r3, [r0, #0]
10001278:	4b05      	ldr	r3, [pc, #20]	; (10001290 <XMC_SCU_CLOCK_Init+0x34>)
1000127a:	625a      	str	r2, [r3, #36]	; 0x24
1000127c:	7860      	ldrb	r0, [r4, #1]
1000127e:	7821      	ldrb	r1, [r4, #0]
10001280:	f7ff ff9c 	bl	100011bc <XMC_SCU_CLOCK_ScaleMCLKFrequency>
10001284:	bd10      	pop	{r4, pc}
10001286:	46c0      	nop			; (mov r8, r8)
10001288:	40010300 	.word	0x40010300
1000128c:	fff0ffff 	.word	0xfff0ffff
10001290:	40010000 	.word	0x40010000

10001294 <XMC_SCU_CLOCK_GetPeripheralClockFrequency>:
10001294:	4b01      	ldr	r3, [pc, #4]	; (1000129c <XMC_SCU_CLOCK_GetPeripheralClockFrequency+0x8>)
10001296:	6818      	ldr	r0, [r3, #0]
10001298:	4770      	bx	lr
1000129a:	46c0      	nop			; (mov r8, r8)
1000129c:	20003ffc 	.word	0x20003ffc

100012a0 <XMC_CCU4_Init>:
100012a0:	b538      	push	{r3, r4, r5, lr}
100012a2:	4b09      	ldr	r3, [pc, #36]	; (100012c8 <XMC_CCU4_Init+0x28>)
100012a4:	1c04      	adds	r4, r0, #0
100012a6:	1c0d      	adds	r5, r1, #0
100012a8:	4298      	cmp	r0, r3
100012aa:	d102      	bne.n	100012b2 <XMC_CCU4_Init+0x12>
100012ac:	2004      	movs	r0, #4
100012ae:	f7ff ff67 	bl	10001180 <XMC_SCU_CLOCK_UngatePeripheralClock>
100012b2:	2380      	movs	r3, #128	; 0x80
100012b4:	005b      	lsls	r3, r3, #1
100012b6:	60e3      	str	r3, [r4, #12]
100012b8:	6821      	ldr	r1, [r4, #0]
100012ba:	4b04      	ldr	r3, [pc, #16]	; (100012cc <XMC_CCU4_Init+0x2c>)
100012bc:	400b      	ands	r3, r1
100012be:	03a9      	lsls	r1, r5, #14
100012c0:	4319      	orrs	r1, r3
100012c2:	6021      	str	r1, [r4, #0]
100012c4:	bd38      	pop	{r3, r4, r5, pc}
100012c6:	46c0      	nop			; (mov r8, r8)
100012c8:	48040000 	.word	0x48040000
100012cc:	ffff3fff 	.word	0xffff3fff

100012d0 <XMC_CCU4_SLICE_CompareInit>:
100012d0:	680b      	ldr	r3, [r1, #0]
100012d2:	6143      	str	r3, [r0, #20]
100012d4:	794b      	ldrb	r3, [r1, #5]
100012d6:	069b      	lsls	r3, r3, #26
100012d8:	0fdb      	lsrs	r3, r3, #31
100012da:	051b      	lsls	r3, r3, #20
100012dc:	6043      	str	r3, [r0, #4]
100012de:	790b      	ldrb	r3, [r1, #4]
100012e0:	071b      	lsls	r3, r3, #28
100012e2:	0f1b      	lsrs	r3, r3, #28
100012e4:	6243      	str	r3, [r0, #36]	; 0x24
100012e6:	794b      	ldrb	r3, [r1, #5]
100012e8:	071b      	lsls	r3, r3, #28
100012ea:	0f1b      	lsrs	r3, r3, #28
100012ec:	6203      	str	r3, [r0, #32]
100012ee:	794b      	ldrb	r3, [r1, #5]
100012f0:	06db      	lsls	r3, r3, #27
100012f2:	0fdb      	lsrs	r3, r3, #31
100012f4:	6183      	str	r3, [r0, #24]
100012f6:	790b      	ldrb	r3, [r1, #4]
100012f8:	091b      	lsrs	r3, r3, #4
100012fa:	62c3      	str	r3, [r0, #44]	; 0x2c
100012fc:	4770      	bx	lr

100012fe <XMC_CCU4_SLICE_CaptureInit>:
100012fe:	680b      	ldr	r3, [r1, #0]
10001300:	6143      	str	r3, [r0, #20]
10001302:	794b      	ldrb	r3, [r1, #5]
10001304:	07db      	lsls	r3, r3, #31
10001306:	0fdb      	lsrs	r3, r3, #31
10001308:	b2db      	uxtb	r3, r3
1000130a:	051b      	lsls	r3, r3, #20
1000130c:	6043      	str	r3, [r0, #4]
1000130e:	790b      	ldrb	r3, [r1, #4]
10001310:	071b      	lsls	r3, r3, #28
10001312:	0f1b      	lsrs	r3, r3, #28
10001314:	6243      	str	r3, [r0, #36]	; 0x24
10001316:	790b      	ldrb	r3, [r1, #4]
10001318:	091b      	lsrs	r3, r3, #4
1000131a:	62c3      	str	r3, [r0, #44]	; 0x2c
1000131c:	4770      	bx	lr
	...

10001320 <XMC_CCU4_SLICE_StartConfig>:
10001320:	b510      	push	{r4, lr}
10001322:	2403      	movs	r4, #3
10001324:	6843      	ldr	r3, [r0, #4]
10001326:	43a3      	bics	r3, r4
10001328:	4319      	orrs	r1, r3
1000132a:	6041      	str	r1, [r0, #4]
1000132c:	6943      	ldr	r3, [r0, #20]
1000132e:	2a01      	cmp	r2, #1
10001330:	d103      	bne.n	1000133a <XMC_CCU4_SLICE_StartConfig+0x1a>
10001332:	2280      	movs	r2, #128	; 0x80
10001334:	00d2      	lsls	r2, r2, #3
10001336:	4313      	orrs	r3, r2
10001338:	e001      	b.n	1000133e <XMC_CCU4_SLICE_StartConfig+0x1e>
1000133a:	4a02      	ldr	r2, [pc, #8]	; (10001344 <XMC_CCU4_SLICE_StartConfig+0x24>)
1000133c:	4013      	ands	r3, r2
1000133e:	6143      	str	r3, [r0, #20]
10001340:	bd10      	pop	{r4, pc}
10001342:	46c0      	nop			; (mov r8, r8)
10001344:	fffffbff 	.word	0xfffffbff

10001348 <XMC_CCU4_SLICE_Capture1Config>:
10001348:	22c0      	movs	r2, #192	; 0xc0
1000134a:	6843      	ldr	r3, [r0, #4]
1000134c:	0189      	lsls	r1, r1, #6
1000134e:	4393      	bics	r3, r2
10001350:	4319      	orrs	r1, r3
10001352:	6041      	str	r1, [r0, #4]
10001354:	4770      	bx	lr

10001356 <XMC_CCU4_SLICE_ConfigureEvent>:
10001356:	b5f7      	push	{r0, r1, r2, r4, r5, r6, r7, lr}
10001358:	2703      	movs	r7, #3
1000135a:	1e4e      	subs	r6, r1, #1
1000135c:	b2f6      	uxtb	r6, r6
1000135e:	0074      	lsls	r4, r6, #1
10001360:	b2e4      	uxtb	r4, r4
10001362:	1c25      	adds	r5, r4, #0
10001364:	9101      	str	r1, [sp, #4]
10001366:	1c39      	adds	r1, r7, #0
10001368:	3510      	adds	r5, #16
1000136a:	b2ed      	uxtb	r5, r5
1000136c:	40a9      	lsls	r1, r5
1000136e:	6803      	ldr	r3, [r0, #0]
10001370:	3419      	adds	r4, #25
10001372:	438b      	bics	r3, r1
10001374:	7851      	ldrb	r1, [r2, #1]
10001376:	b2e4      	uxtb	r4, r4
10001378:	40a9      	lsls	r1, r5
1000137a:	2501      	movs	r5, #1
1000137c:	430b      	orrs	r3, r1
1000137e:	9901      	ldr	r1, [sp, #4]
10001380:	40a7      	lsls	r7, r4
10001382:	3115      	adds	r1, #21
10001384:	b2c9      	uxtb	r1, r1
10001386:	408d      	lsls	r5, r1
10001388:	43ab      	bics	r3, r5
1000138a:	7895      	ldrb	r5, [r2, #2]
1000138c:	00b6      	lsls	r6, r6, #2
1000138e:	408d      	lsls	r5, r1
10001390:	432b      	orrs	r3, r5
10001392:	78d5      	ldrb	r5, [r2, #3]
10001394:	b2f1      	uxtb	r1, r6
10001396:	40a5      	lsls	r5, r4
10001398:	240f      	movs	r4, #15
1000139a:	7812      	ldrb	r2, [r2, #0]
1000139c:	408c      	lsls	r4, r1
1000139e:	408a      	lsls	r2, r1
100013a0:	43bb      	bics	r3, r7
100013a2:	432b      	orrs	r3, r5
100013a4:	43a3      	bics	r3, r4
100013a6:	4313      	orrs	r3, r2
100013a8:	6003      	str	r3, [r0, #0]
100013aa:	bdf7      	pop	{r0, r1, r2, r4, r5, r6, r7, pc}

100013ac <XMC_CCU4_SLICE_SetPrescaler>:
100013ac:	6a82      	ldr	r2, [r0, #40]	; 0x28
100013ae:	4b03      	ldr	r3, [pc, #12]	; (100013bc <XMC_CCU4_SLICE_SetPrescaler+0x10>)
100013b0:	4013      	ands	r3, r2
100013b2:	020a      	lsls	r2, r1, #8
100013b4:	4313      	orrs	r3, r2
100013b6:	6283      	str	r3, [r0, #40]	; 0x28
100013b8:	6241      	str	r1, [r0, #36]	; 0x24
100013ba:	4770      	bx	lr
100013bc:	fffff0ff 	.word	0xfffff0ff

100013c0 <XMC_CCU4_SLICE_SetInterruptNode>:
100013c0:	b510      	push	{r4, lr}
100013c2:	290b      	cmp	r1, #11
100013c4:	d80c      	bhi.n	100013e0 <XMC_CCU4_SLICE_SetInterruptNode+0x20>
100013c6:	4b07      	ldr	r3, [pc, #28]	; (100013e4 <XMC_CCU4_SLICE_SetInterruptNode+0x24>)
100013c8:	565c      	ldrsb	r4, [r3, r1]
100013ca:	4b07      	ldr	r3, [pc, #28]	; (100013e8 <XMC_CCU4_SLICE_SetInterruptNode+0x28>)
100013cc:	0049      	lsls	r1, r1, #1
100013ce:	5ac9      	ldrh	r1, [r1, r3]
100013d0:	2900      	cmp	r1, #0
100013d2:	d005      	beq.n	100013e0 <XMC_CCU4_SLICE_SetInterruptNode+0x20>
100013d4:	40a2      	lsls	r2, r4
100013d6:	30a8      	adds	r0, #168	; 0xa8
100013d8:	6803      	ldr	r3, [r0, #0]
100013da:	438b      	bics	r3, r1
100013dc:	431a      	orrs	r2, r3
100013de:	6002      	str	r2, [r0, #0]
100013e0:	bd10      	pop	{r4, pc}
100013e2:	46c0      	nop			; (mov r8, r8)
100013e4:	10008c40 	.word	0x10008c40
100013e8:	10008c4c 	.word	0x10008c4c

100013ec <XMC_CCU8_Init>:
100013ec:	b538      	push	{r3, r4, r5, lr}
100013ee:	23a0      	movs	r3, #160	; 0xa0
100013f0:	1c04      	adds	r4, r0, #0
100013f2:	1c0d      	adds	r5, r1, #0
100013f4:	05db      	lsls	r3, r3, #23
100013f6:	4298      	cmp	r0, r3
100013f8:	d102      	bne.n	10001400 <XMC_CCU8_Init+0x14>
100013fa:	2002      	movs	r0, #2
100013fc:	f7ff fec0 	bl	10001180 <XMC_SCU_CLOCK_UngatePeripheralClock>
10001400:	2380      	movs	r3, #128	; 0x80
10001402:	005b      	lsls	r3, r3, #1
10001404:	60e3      	str	r3, [r4, #12]
10001406:	6821      	ldr	r1, [r4, #0]
10001408:	4b02      	ldr	r3, [pc, #8]	; (10001414 <XMC_CCU8_Init+0x28>)
1000140a:	400b      	ands	r3, r1
1000140c:	03a9      	lsls	r1, r5, #14
1000140e:	4319      	orrs	r1, r3
10001410:	6021      	str	r1, [r4, #0]
10001412:	bd38      	pop	{r3, r4, r5, pc}
10001414:	ffff3fff 	.word	0xffff3fff

10001418 <XMC_CCU8_SLICE_CompareInit>:
10001418:	2301      	movs	r3, #1
1000141a:	2214      	movs	r2, #20
1000141c:	6103      	str	r3, [r0, #16]
1000141e:	680b      	ldr	r3, [r1, #0]
10001420:	6143      	str	r3, [r0, #20]
10001422:	7b4b      	ldrb	r3, [r1, #13]
10001424:	06db      	lsls	r3, r3, #27
10001426:	0fdb      	lsrs	r3, r3, #31
10001428:	051b      	lsls	r3, r3, #20
1000142a:	6043      	str	r3, [r0, #4]
1000142c:	7b0b      	ldrb	r3, [r1, #12]
1000142e:	071b      	lsls	r3, r3, #28
10001430:	0f1b      	lsrs	r3, r3, #28
10001432:	6243      	str	r3, [r0, #36]	; 0x24
10001434:	7b0b      	ldrb	r3, [r1, #12]
10001436:	091b      	lsrs	r3, r3, #4
10001438:	62c3      	str	r3, [r0, #44]	; 0x2c
1000143a:	7b4b      	ldrb	r3, [r1, #13]
1000143c:	071b      	lsls	r3, r3, #28
1000143e:	0f1b      	lsrs	r3, r3, #28
10001440:	6203      	str	r3, [r0, #32]
10001442:	684b      	ldr	r3, [r1, #4]
10001444:	6183      	str	r3, [r0, #24]
10001446:	688b      	ldr	r3, [r1, #8]
10001448:	4053      	eors	r3, r2
1000144a:	6483      	str	r3, [r0, #72]	; 0x48
1000144c:	4770      	bx	lr

1000144e <XMC_CCU8_SLICE_SetOutPath>:
1000144e:	6c83      	ldr	r3, [r0, #72]	; 0x48
10001450:	0c0a      	lsrs	r2, r1, #16
10001452:	4393      	bics	r3, r2
10001454:	b289      	uxth	r1, r1
10001456:	4319      	orrs	r1, r3
10001458:	6481      	str	r1, [r0, #72]	; 0x48
1000145a:	4770      	bx	lr

1000145c <XMC_CCU8_SLICE_StartConfig>:
1000145c:	b510      	push	{r4, lr}
1000145e:	2403      	movs	r4, #3
10001460:	6843      	ldr	r3, [r0, #4]
10001462:	43a3      	bics	r3, r4
10001464:	4319      	orrs	r1, r3
10001466:	6041      	str	r1, [r0, #4]
10001468:	6943      	ldr	r3, [r0, #20]
1000146a:	2a01      	cmp	r2, #1
1000146c:	d103      	bne.n	10001476 <XMC_CCU8_SLICE_StartConfig+0x1a>
1000146e:	2280      	movs	r2, #128	; 0x80
10001470:	00d2      	lsls	r2, r2, #3
10001472:	4313      	orrs	r3, r2
10001474:	e001      	b.n	1000147a <XMC_CCU8_SLICE_StartConfig+0x1e>
10001476:	4a02      	ldr	r2, [pc, #8]	; (10001480 <XMC_CCU8_SLICE_StartConfig+0x24>)
10001478:	4013      	ands	r3, r2
1000147a:	6143      	str	r3, [r0, #20]
1000147c:	bd10      	pop	{r4, pc}
1000147e:	46c0      	nop			; (mov r8, r8)
10001480:	fffffbff 	.word	0xfffffbff

10001484 <XMC_CCU8_SLICE_TrapConfig>:
10001484:	2380      	movs	r3, #128	; 0x80
10001486:	b510      	push	{r4, lr}
10001488:	6844      	ldr	r4, [r0, #4]
1000148a:	029b      	lsls	r3, r3, #10
1000148c:	4323      	orrs	r3, r4
1000148e:	6043      	str	r3, [r0, #4]
10001490:	6943      	ldr	r3, [r0, #20]
10001492:	2a00      	cmp	r2, #0
10001494:	d003      	beq.n	1000149e <XMC_CCU8_SLICE_TrapConfig+0x1a>
10001496:	2280      	movs	r2, #128	; 0x80
10001498:	0392      	lsls	r2, r2, #14
1000149a:	4313      	orrs	r3, r2
1000149c:	e001      	b.n	100014a2 <XMC_CCU8_SLICE_TrapConfig+0x1e>
1000149e:	4a06      	ldr	r2, [pc, #24]	; (100014b8 <XMC_CCU8_SLICE_TrapConfig+0x34>)
100014a0:	4013      	ands	r3, r2
100014a2:	2901      	cmp	r1, #1
100014a4:	d103      	bne.n	100014ae <XMC_CCU8_SLICE_TrapConfig+0x2a>
100014a6:	2280      	movs	r2, #128	; 0x80
100014a8:	03d2      	lsls	r2, r2, #15
100014aa:	4313      	orrs	r3, r2
100014ac:	e001      	b.n	100014b2 <XMC_CCU8_SLICE_TrapConfig+0x2e>
100014ae:	4a03      	ldr	r2, [pc, #12]	; (100014bc <XMC_CCU8_SLICE_TrapConfig+0x38>)
100014b0:	4013      	ands	r3, r2
100014b2:	6143      	str	r3, [r0, #20]
100014b4:	bd10      	pop	{r4, pc}
100014b6:	46c0      	nop			; (mov r8, r8)
100014b8:	ffdfffff 	.word	0xffdfffff
100014bc:	ffbfffff 	.word	0xffbfffff

100014c0 <XMC_CCU8_SLICE_ConfigureEvent>:
100014c0:	b5f7      	push	{r0, r1, r2, r4, r5, r6, r7, lr}
100014c2:	2703      	movs	r7, #3
100014c4:	1e4e      	subs	r6, r1, #1
100014c6:	b2f6      	uxtb	r6, r6
100014c8:	0074      	lsls	r4, r6, #1
100014ca:	b2e4      	uxtb	r4, r4
100014cc:	1c25      	adds	r5, r4, #0
100014ce:	9101      	str	r1, [sp, #4]
100014d0:	1c39      	adds	r1, r7, #0
100014d2:	3510      	adds	r5, #16
100014d4:	b2ed      	uxtb	r5, r5
100014d6:	40a9      	lsls	r1, r5
100014d8:	6803      	ldr	r3, [r0, #0]
100014da:	3419      	adds	r4, #25
100014dc:	438b      	bics	r3, r1
100014de:	7851      	ldrb	r1, [r2, #1]
100014e0:	b2e4      	uxtb	r4, r4
100014e2:	40a9      	lsls	r1, r5
100014e4:	2501      	movs	r5, #1
100014e6:	430b      	orrs	r3, r1
100014e8:	9901      	ldr	r1, [sp, #4]
100014ea:	40a7      	lsls	r7, r4
100014ec:	3115      	adds	r1, #21
100014ee:	b2c9      	uxtb	r1, r1
100014f0:	408d      	lsls	r5, r1
100014f2:	43ab      	bics	r3, r5
100014f4:	7895      	ldrb	r5, [r2, #2]
100014f6:	00b6      	lsls	r6, r6, #2
100014f8:	408d      	lsls	r5, r1
100014fa:	432b      	orrs	r3, r5
100014fc:	78d5      	ldrb	r5, [r2, #3]
100014fe:	b2f1      	uxtb	r1, r6
10001500:	40a5      	lsls	r5, r4
10001502:	240f      	movs	r4, #15
10001504:	7812      	ldrb	r2, [r2, #0]
10001506:	408c      	lsls	r4, r1
10001508:	408a      	lsls	r2, r1
1000150a:	43bb      	bics	r3, r7
1000150c:	432b      	orrs	r3, r5
1000150e:	43a3      	bics	r3, r4
10001510:	4313      	orrs	r3, r2
10001512:	6003      	str	r3, [r0, #0]
10001514:	bdf7      	pop	{r0, r1, r2, r4, r5, r6, r7, pc}

10001516 <XMC_CCU8_SLICE_SetTimerPeriodMatch>:
10001516:	6341      	str	r1, [r0, #52]	; 0x34
10001518:	4770      	bx	lr

1000151a <XMC_CCU8_SLICE_SetTimerCompareMatch>:
1000151a:	2900      	cmp	r1, #0
1000151c:	d101      	bne.n	10001522 <XMC_CCU8_SLICE_SetTimerCompareMatch+0x8>
1000151e:	63c2      	str	r2, [r0, #60]	; 0x3c
10001520:	e000      	b.n	10001524 <XMC_CCU8_SLICE_SetTimerCompareMatch+0xa>
10001522:	6442      	str	r2, [r0, #68]	; 0x44
10001524:	4770      	bx	lr

10001526 <XMC_CCU8_SLICE_DeadTimeInit>:
10001526:	684b      	ldr	r3, [r1, #4]
10001528:	6503      	str	r3, [r0, #80]	; 0x50
1000152a:	688b      	ldr	r3, [r1, #8]
1000152c:	6543      	str	r3, [r0, #84]	; 0x54
1000152e:	680b      	ldr	r3, [r1, #0]
10001530:	64c3      	str	r3, [r0, #76]	; 0x4c
10001532:	4770      	bx	lr

10001534 <XMC_CCU8_SLICE_ConfigureStatusBitOutput>:
10001534:	6942      	ldr	r2, [r0, #20]
10001536:	4b04      	ldr	r3, [pc, #16]	; (10001548 <XMC_CCU8_SLICE_ConfigureStatusBitOutput+0x14>)
10001538:	0749      	lsls	r1, r1, #29
1000153a:	4013      	ands	r3, r2
1000153c:	6143      	str	r3, [r0, #20]
1000153e:	6943      	ldr	r3, [r0, #20]
10001540:	4319      	orrs	r1, r3
10001542:	6141      	str	r1, [r0, #20]
10001544:	4770      	bx	lr
10001546:	46c0      	nop			; (mov r8, r8)
10001548:	9fffffff 	.word	0x9fffffff

1000154c <XMC_GPIO_SetHardwareControl>:
1000154c:	b510      	push	{r4, lr}
1000154e:	2403      	movs	r4, #3
10001550:	0049      	lsls	r1, r1, #1
10001552:	408a      	lsls	r2, r1
10001554:	408c      	lsls	r4, r1
10001556:	1c11      	adds	r1, r2, #0
10001558:	6f43      	ldr	r3, [r0, #116]	; 0x74
1000155a:	43a3      	bics	r3, r4
1000155c:	6743      	str	r3, [r0, #116]	; 0x74
1000155e:	6f43      	ldr	r3, [r0, #116]	; 0x74
10001560:	4319      	orrs	r1, r3
10001562:	6741      	str	r1, [r0, #116]	; 0x74
10001564:	bd10      	pop	{r4, pc}
	...

10001568 <__aeabi_uidiv>:
10001568:	b510      	push	{r4, lr}
1000156a:	f3ef 8210 	mrs	r2, PRIMASK
1000156e:	b672      	cpsid	i
10001570:	2404      	movs	r4, #4
10001572:	4b04      	ldr	r3, [pc, #16]	; (10001584 <__aeabi_uidiv+0x1c>)
10001574:	635c      	str	r4, [r3, #52]	; 0x34
10001576:	6218      	str	r0, [r3, #32]
10001578:	6259      	str	r1, [r3, #36]	; 0x24
1000157a:	6a98      	ldr	r0, [r3, #40]	; 0x28
1000157c:	f382 8810 	msr	PRIMASK, r2
10001580:	bd10      	pop	{r4, pc}
10001582:	46c0      	nop			; (mov r8, r8)
10001584:	40030000 	.word	0x40030000

10001588 <__aeabi_idiv>:
10001588:	b510      	push	{r4, lr}
1000158a:	f3ef 8210 	mrs	r2, PRIMASK
1000158e:	b672      	cpsid	i
10001590:	2400      	movs	r4, #0
10001592:	4b04      	ldr	r3, [pc, #16]	; (100015a4 <__aeabi_idiv+0x1c>)
10001594:	635c      	str	r4, [r3, #52]	; 0x34
10001596:	6218      	str	r0, [r3, #32]
10001598:	6259      	str	r1, [r3, #36]	; 0x24
1000159a:	6a98      	ldr	r0, [r3, #40]	; 0x28
1000159c:	f382 8810 	msr	PRIMASK, r2
100015a0:	bd10      	pop	{r4, pc}
100015a2:	46c0      	nop			; (mov r8, r8)
100015a4:	40030000 	.word	0x40030000

100015a8 <__aeabi_uidivmod>:
100015a8:	b510      	push	{r4, lr}
100015aa:	f3ef 8210 	mrs	r2, PRIMASK
100015ae:	b672      	cpsid	i
100015b0:	2404      	movs	r4, #4
100015b2:	4b04      	ldr	r3, [pc, #16]	; (100015c4 <__aeabi_uidivmod+0x1c>)
100015b4:	635c      	str	r4, [r3, #52]	; 0x34
100015b6:	6218      	str	r0, [r3, #32]
100015b8:	6259      	str	r1, [r3, #36]	; 0x24
100015ba:	6ad9      	ldr	r1, [r3, #44]	; 0x2c
100015bc:	6a98      	ldr	r0, [r3, #40]	; 0x28
100015be:	f382 8810 	msr	PRIMASK, r2
100015c2:	bd10      	pop	{r4, pc}
100015c4:	40030000 	.word	0x40030000

100015c8 <__aeabi_idivmod>:
100015c8:	b510      	push	{r4, lr}
100015ca:	f3ef 8210 	mrs	r2, PRIMASK
100015ce:	b672      	cpsid	i
100015d0:	2400      	movs	r4, #0
100015d2:	4b04      	ldr	r3, [pc, #16]	; (100015e4 <__aeabi_idivmod+0x1c>)
100015d4:	635c      	str	r4, [r3, #52]	; 0x34
100015d6:	6218      	str	r0, [r3, #32]
100015d8:	6259      	str	r1, [r3, #36]	; 0x24
100015da:	6ad9      	ldr	r1, [r3, #44]	; 0x2c
100015dc:	6a98      	ldr	r0, [r3, #40]	; 0x28
100015de:	f382 8810 	msr	PRIMASK, r2
100015e2:	bd10      	pop	{r4, pc}
100015e4:	40030000 	.word	0x40030000

100015e8 <XMC_POSIF_Enable>:
100015e8:	b508      	push	{r3, lr}
100015ea:	4b03      	ldr	r3, [pc, #12]	; (100015f8 <XMC_POSIF_Enable+0x10>)
100015ec:	4298      	cmp	r0, r3
100015ee:	d102      	bne.n	100015f6 <XMC_POSIF_Enable+0xe>
100015f0:	2080      	movs	r0, #128	; 0x80
100015f2:	f7ff fdc5 	bl	10001180 <XMC_SCU_CLOCK_UngatePeripheralClock>
100015f6:	bd08      	pop	{r3, pc}
100015f8:	50010000 	.word	0x50010000

100015fc <XMC_POSIF_Init>:
100015fc:	b538      	push	{r3, r4, r5, lr}
100015fe:	1c04      	adds	r4, r0, #0
10001600:	1c0d      	adds	r5, r1, #0
10001602:	f7ff fff1 	bl	100015e8 <XMC_POSIF_Enable>
10001606:	2303      	movs	r3, #3
10001608:	60e3      	str	r3, [r4, #12]
1000160a:	682b      	ldr	r3, [r5, #0]
1000160c:	6023      	str	r3, [r4, #0]
1000160e:	bd38      	pop	{r3, r4, r5, pc}

10001610 <XMC_POSIF_HSC_Init>:
10001610:	2303      	movs	r3, #3
10001612:	1c02      	adds	r2, r0, #0
10001614:	6800      	ldr	r0, [r0, #0]
10001616:	4003      	ands	r3, r0
10001618:	2001      	movs	r0, #1
1000161a:	2b00      	cmp	r3, #0
1000161c:	d104      	bne.n	10001628 <XMC_POSIF_HSC_Init+0x18>
1000161e:	6810      	ldr	r0, [r2, #0]
10001620:	6809      	ldr	r1, [r1, #0]
10001622:	4301      	orrs	r1, r0
10001624:	1c18      	adds	r0, r3, #0
10001626:	6011      	str	r1, [r2, #0]
10001628:	4770      	bx	lr

1000162a <XMC_POSIF_SetInterruptNode>:
1000162a:	b510      	push	{r4, lr}
1000162c:	2401      	movs	r4, #1
1000162e:	3110      	adds	r1, #16
10001630:	408c      	lsls	r4, r1
10001632:	408a      	lsls	r2, r1
10001634:	6f43      	ldr	r3, [r0, #116]	; 0x74
10001636:	43a3      	bics	r3, r4
10001638:	4313      	orrs	r3, r2
1000163a:	6743      	str	r3, [r0, #116]	; 0x74
1000163c:	bd10      	pop	{r4, pc}
	...

10001640 <XMC_UART_CH_InitEx>:
10001640:	b5f8      	push	{r3, r4, r5, r6, r7, lr}
10001642:	1c0e      	adds	r6, r1, #0
10001644:	1c04      	adds	r4, r0, #0
10001646:	1c17      	adds	r7, r2, #0
10001648:	f000 f86a 	bl	10001720 <XMC_USIC_CH_Enable>
1000164c:	7a33      	ldrb	r3, [r6, #8]
1000164e:	2510      	movs	r5, #16
10001650:	2b00      	cmp	r3, #0
10001652:	d000      	beq.n	10001656 <XMC_UART_CH_InitEx+0x16>
10001654:	1c1d      	adds	r5, r3, #0
10001656:	2f00      	cmp	r7, #0
10001658:	d00a      	beq.n	10001670 <XMC_UART_CH_InitEx+0x30>
1000165a:	7933      	ldrb	r3, [r6, #4]
1000165c:	1c20      	adds	r0, r4, #0
1000165e:	6831      	ldr	r1, [r6, #0]
10001660:	1c2a      	adds	r2, r5, #0
10001662:	2b00      	cmp	r3, #0
10001664:	d002      	beq.n	1000166c <XMC_UART_CH_InitEx+0x2c>
10001666:	f000 f8c1 	bl	100017ec <XMC_USIC_CH_SetBaudrateEx>
1000166a:	e001      	b.n	10001670 <XMC_UART_CH_InitEx+0x30>
1000166c:	f000 f870 	bl	10001750 <XMC_USIC_CH_SetBaudrate>
10001670:	79f3      	ldrb	r3, [r6, #7]
10001672:	4a13      	ldr	r2, [pc, #76]	; (100016c0 <XMC_UART_CH_InitEx+0x80>)
10001674:	3b01      	subs	r3, #1
10001676:	005b      	lsls	r3, r3, #1
10001678:	4313      	orrs	r3, r2
1000167a:	2281      	movs	r2, #129	; 0x81
1000167c:	086d      	lsrs	r5, r5, #1
1000167e:	3501      	adds	r5, #1
10001680:	022d      	lsls	r5, r5, #8
10001682:	431d      	orrs	r5, r3
10001684:	63e5      	str	r5, [r4, #60]	; 0x3c
10001686:	7973      	ldrb	r3, [r6, #5]
10001688:	0052      	lsls	r2, r2, #1
1000168a:	3b01      	subs	r3, #1
1000168c:	061b      	lsls	r3, r3, #24
1000168e:	4313      	orrs	r3, r2
10001690:	6363      	str	r3, [r4, #52]	; 0x34
10001692:	79b3      	ldrb	r3, [r6, #6]
10001694:	2b00      	cmp	r3, #0
10001696:	d004      	beq.n	100016a2 <XMC_UART_CH_InitEx+0x62>
10001698:	6b62      	ldr	r2, [r4, #52]	; 0x34
1000169a:	3b01      	subs	r3, #1
1000169c:	041b      	lsls	r3, r3, #16
1000169e:	4313      	orrs	r3, r2
100016a0:	e004      	b.n	100016ac <XMC_UART_CH_InitEx+0x6c>
100016a2:	7972      	ldrb	r2, [r6, #5]
100016a4:	6b61      	ldr	r1, [r4, #52]	; 0x34
100016a6:	1e53      	subs	r3, r2, #1
100016a8:	041b      	lsls	r3, r3, #16
100016aa:	430b      	orrs	r3, r1
100016ac:	6363      	str	r3, [r4, #52]	; 0x34
100016ae:	23a0      	movs	r3, #160	; 0xa0
100016b0:	00db      	lsls	r3, r3, #3
100016b2:	63a3      	str	r3, [r4, #56]	; 0x38
100016b4:	2301      	movs	r3, #1
100016b6:	425b      	negs	r3, r3
100016b8:	64e3      	str	r3, [r4, #76]	; 0x4c
100016ba:	8973      	ldrh	r3, [r6, #10]
100016bc:	6423      	str	r3, [r4, #64]	; 0x40
100016be:	bdf8      	pop	{r3, r4, r5, r6, r7, pc}
100016c0:	00030001 	.word	0x00030001

100016c4 <XMC_UART_CH_Transmit>:
100016c4:	1c03      	adds	r3, r0, #0
100016c6:	33fc      	adds	r3, #252	; 0xfc
100016c8:	68da      	ldr	r2, [r3, #12]
100016ca:	23e0      	movs	r3, #224	; 0xe0
100016cc:	04db      	lsls	r3, r3, #19
100016ce:	421a      	tst	r2, r3
100016d0:	d10b      	bne.n	100016ea <XMC_UART_CH_Transmit+0x26>
100016d2:	227f      	movs	r2, #127	; 0x7f
100016d4:	6b83      	ldr	r3, [r0, #56]	; 0x38
100016d6:	4393      	bics	r3, r2
100016d8:	b2db      	uxtb	r3, r3
100016da:	2b80      	cmp	r3, #128	; 0x80
100016dc:	d0f9      	beq.n	100016d2 <XMC_UART_CH_Transmit+0xe>
100016de:	2380      	movs	r3, #128	; 0x80
100016e0:	019b      	lsls	r3, r3, #6
100016e2:	64c3      	str	r3, [r0, #76]	; 0x4c
100016e4:	3004      	adds	r0, #4
100016e6:	67c1      	str	r1, [r0, #124]	; 0x7c
100016e8:	e002      	b.n	100016f0 <XMC_UART_CH_Transmit+0x2c>
100016ea:	23c0      	movs	r3, #192	; 0xc0
100016ec:	005b      	lsls	r3, r3, #1
100016ee:	50c1      	str	r1, [r0, r3]
100016f0:	4770      	bx	lr

100016f2 <XMC_UART_CH_GetReceivedData>:
100016f2:	1c03      	adds	r3, r0, #0
100016f4:	22e0      	movs	r2, #224	; 0xe0
100016f6:	33fc      	adds	r3, #252	; 0xfc
100016f8:	6919      	ldr	r1, [r3, #16]
100016fa:	04d2      	lsls	r2, r2, #19
100016fc:	4211      	tst	r1, r2
100016fe:	d101      	bne.n	10001704 <XMC_UART_CH_GetReceivedData+0x12>
10001700:	6d40      	ldr	r0, [r0, #84]	; 0x54
10001702:	e000      	b.n	10001706 <XMC_UART_CH_GetReceivedData+0x14>
10001704:	6a18      	ldr	r0, [r3, #32]
10001706:	b280      	uxth	r0, r0
10001708:	4770      	bx	lr

1000170a <XMC_USIC_Enable.part.0>:
1000170a:	b508      	push	{r3, lr}
1000170c:	2008      	movs	r0, #8
1000170e:	f7ff fd37 	bl	10001180 <XMC_SCU_CLOCK_UngatePeripheralClock>
10001712:	2008      	movs	r0, #8
10001714:	f7ff fd48 	bl	100011a8 <XMC_SCU_CLOCK_IsPeripheralClockGated>
10001718:	2800      	cmp	r0, #0
1000171a:	d1fa      	bne.n	10001712 <XMC_USIC_Enable.part.0+0x8>
1000171c:	bd08      	pop	{r3, pc}
	...

10001720 <XMC_USIC_CH_Enable>:
10001720:	2390      	movs	r3, #144	; 0x90
10001722:	b510      	push	{r4, lr}
10001724:	05db      	lsls	r3, r3, #23
10001726:	1e04      	subs	r4, r0, #0
10001728:	429c      	cmp	r4, r3
1000172a:	d002      	beq.n	10001732 <XMC_USIC_CH_Enable+0x12>
1000172c:	4b07      	ldr	r3, [pc, #28]	; (1000174c <XMC_USIC_CH_Enable+0x2c>)
1000172e:	4298      	cmp	r0, r3
10001730:	d101      	bne.n	10001736 <XMC_USIC_CH_Enable+0x16>
10001732:	f7ff ffea 	bl	1000170a <XMC_USIC_Enable.part.0>
10001736:	2303      	movs	r3, #3
10001738:	60e3      	str	r3, [r4, #12]
1000173a:	68e3      	ldr	r3, [r4, #12]
1000173c:	07db      	lsls	r3, r3, #31
1000173e:	d5fc      	bpl.n	1000173a <XMC_USIC_CH_Enable+0x1a>
10001740:	220f      	movs	r2, #15
10001742:	6c23      	ldr	r3, [r4, #64]	; 0x40
10001744:	4393      	bics	r3, r2
10001746:	6423      	str	r3, [r4, #64]	; 0x40
10001748:	bd10      	pop	{r4, pc}
1000174a:	46c0      	nop			; (mov r8, r8)
1000174c:	48000200 	.word	0x48000200

10001750 <XMC_USIC_CH_SetBaudrate>:
10001750:	b5f0      	push	{r4, r5, r6, r7, lr}
10001752:	2401      	movs	r4, #1
10001754:	b087      	sub	sp, #28
10001756:	2963      	cmp	r1, #99	; 0x63
10001758:	d940      	bls.n	100017dc <XMC_USIC_CH_SetBaudrate+0x8c>
1000175a:	2a00      	cmp	r2, #0
1000175c:	d03e      	beq.n	100017dc <XMC_USIC_CH_SetBaudrate+0x8c>
1000175e:	1c0e      	adds	r6, r1, #0
10001760:	9204      	str	r2, [sp, #16]
10001762:	1c05      	adds	r5, r0, #0
10001764:	f7ff fd96 	bl	10001294 <XMC_SCU_CLOCK_GetPeripheralClockFrequency>
10001768:	2164      	movs	r1, #100	; 0x64
1000176a:	f7ff fefd 	bl	10001568 <__aeabi_uidiv>
1000176e:	2780      	movs	r7, #128	; 0x80
10001770:	9003      	str	r0, [sp, #12]
10001772:	2164      	movs	r1, #100	; 0x64
10001774:	1c30      	adds	r0, r6, #0
10001776:	f7ff fef7 	bl	10001568 <__aeabi_uidiv>
1000177a:	00ff      	lsls	r7, r7, #3
1000177c:	9401      	str	r4, [sp, #4]
1000177e:	1c3c      	adds	r4, r7, #0
10001780:	9b04      	ldr	r3, [sp, #16]
10001782:	4343      	muls	r3, r0
10001784:	9305      	str	r3, [sp, #20]
10001786:	9b03      	ldr	r3, [sp, #12]
10001788:	029e      	lsls	r6, r3, #10
1000178a:	4b16      	ldr	r3, [pc, #88]	; (100017e4 <XMC_USIC_CH_SetBaudrate+0x94>)
1000178c:	9302      	str	r3, [sp, #8]
1000178e:	1c30      	adds	r0, r6, #0
10001790:	9905      	ldr	r1, [sp, #20]
10001792:	f7ff fee9 	bl	10001568 <__aeabi_uidiv>
10001796:	2280      	movs	r2, #128	; 0x80
10001798:	0a83      	lsrs	r3, r0, #10
1000179a:	00d2      	lsls	r2, r2, #3
1000179c:	4293      	cmp	r3, r2
1000179e:	d807      	bhi.n	100017b0 <XMC_USIC_CH_SetBaudrate+0x60>
100017a0:	9a02      	ldr	r2, [sp, #8]
100017a2:	0580      	lsls	r0, r0, #22
100017a4:	0d80      	lsrs	r0, r0, #22
100017a6:	4290      	cmp	r0, r2
100017a8:	d202      	bcs.n	100017b0 <XMC_USIC_CH_SetBaudrate+0x60>
100017aa:	1c27      	adds	r7, r4, #0
100017ac:	9002      	str	r0, [sp, #8]
100017ae:	9301      	str	r3, [sp, #4]
100017b0:	9b03      	ldr	r3, [sp, #12]
100017b2:	3c01      	subs	r4, #1
100017b4:	1af6      	subs	r6, r6, r3
100017b6:	2c00      	cmp	r4, #0
100017b8:	d1e9      	bne.n	1000178e <XMC_USIC_CH_SetBaudrate+0x3e>
100017ba:	2280      	movs	r2, #128	; 0x80
100017bc:	1e7b      	subs	r3, r7, #1
100017be:	0212      	lsls	r2, r2, #8
100017c0:	4313      	orrs	r3, r2
100017c2:	612b      	str	r3, [r5, #16]
100017c4:	9b04      	ldr	r3, [sp, #16]
100017c6:	6969      	ldr	r1, [r5, #20]
100017c8:	4a07      	ldr	r2, [pc, #28]	; (100017e8 <XMC_USIC_CH_SetBaudrate+0x98>)
100017ca:	3b01      	subs	r3, #1
100017cc:	029b      	lsls	r3, r3, #10
100017ce:	400a      	ands	r2, r1
100017d0:	431a      	orrs	r2, r3
100017d2:	9b01      	ldr	r3, [sp, #4]
100017d4:	3b01      	subs	r3, #1
100017d6:	041b      	lsls	r3, r3, #16
100017d8:	431a      	orrs	r2, r3
100017da:	616a      	str	r2, [r5, #20]
100017dc:	1c20      	adds	r0, r4, #0
100017de:	b007      	add	sp, #28
100017e0:	bdf0      	pop	{r4, r5, r6, r7, pc}
100017e2:	46c0      	nop			; (mov r8, r8)
100017e4:	000003ff 	.word	0x000003ff
100017e8:	fc0080ef 	.word	0xfc0080ef

100017ec <XMC_USIC_CH_SetBaudrateEx>:
100017ec:	b5f0      	push	{r4, r5, r6, r7, lr}
100017ee:	b085      	sub	sp, #20
100017f0:	9201      	str	r2, [sp, #4]
100017f2:	1c07      	adds	r7, r0, #0
100017f4:	9103      	str	r1, [sp, #12]
100017f6:	f7ff fd4d 	bl	10001294 <XMC_SCU_CLOCK_GetPeripheralClockFrequency>
100017fa:	9b01      	ldr	r3, [sp, #4]
100017fc:	9a03      	ldr	r2, [sp, #12]
100017fe:	1c06      	adds	r6, r0, #0
10001800:	4353      	muls	r3, r2
10001802:	2401      	movs	r4, #1
10001804:	9300      	str	r3, [sp, #0]
10001806:	4298      	cmp	r0, r3
10001808:	dd45      	ble.n	10001896 <XMC_USIC_CH_SetBaudrateEx+0xaa>
1000180a:	1c19      	adds	r1, r3, #0
1000180c:	f7ff febc 	bl	10001588 <__aeabi_idiv>
10001810:	9b00      	ldr	r3, [sp, #0]
10001812:	1c05      	adds	r5, r0, #0
10001814:	40a3      	lsls	r3, r4
10001816:	9302      	str	r3, [sp, #8]
10001818:	4b20      	ldr	r3, [pc, #128]	; (1000189c <XMC_USIC_CH_SetBaudrateEx+0xb0>)
1000181a:	429d      	cmp	r5, r3
1000181c:	d90a      	bls.n	10001834 <XMC_USIC_CH_SetBaudrateEx+0x48>
1000181e:	1c30      	adds	r0, r6, #0
10001820:	9902      	ldr	r1, [sp, #8]
10001822:	f7ff feb1 	bl	10001588 <__aeabi_idiv>
10001826:	9a00      	ldr	r2, [sp, #0]
10001828:	9b02      	ldr	r3, [sp, #8]
1000182a:	4694      	mov	ip, r2
1000182c:	3401      	adds	r4, #1
1000182e:	1c05      	adds	r5, r0, #0
10001830:	4463      	add	r3, ip
10001832:	e7f0      	b.n	10001816 <XMC_USIC_CH_SetBaudrateEx+0x2a>
10001834:	9901      	ldr	r1, [sp, #4]
10001836:	1c6b      	adds	r3, r5, #1
10001838:	4361      	muls	r1, r4
1000183a:	1c30      	adds	r0, r6, #0
1000183c:	4359      	muls	r1, r3
1000183e:	9300      	str	r3, [sp, #0]
10001840:	f7ff fe92 	bl	10001568 <__aeabi_uidiv>
10001844:	1c21      	adds	r1, r4, #0
10001846:	9b03      	ldr	r3, [sp, #12]
10001848:	4369      	muls	r1, r5
1000184a:	1a18      	subs	r0, r3, r0
1000184c:	17c2      	asrs	r2, r0, #31
1000184e:	1883      	adds	r3, r0, r2
10001850:	4053      	eors	r3, r2
10001852:	9302      	str	r3, [sp, #8]
10001854:	9b01      	ldr	r3, [sp, #4]
10001856:	1c30      	adds	r0, r6, #0
10001858:	4359      	muls	r1, r3
1000185a:	f7ff fe85 	bl	10001568 <__aeabi_uidiv>
1000185e:	9b03      	ldr	r3, [sp, #12]
10001860:	1a18      	subs	r0, r3, r0
10001862:	17c3      	asrs	r3, r0, #31
10001864:	18c0      	adds	r0, r0, r3
10001866:	4058      	eors	r0, r3
10001868:	9b02      	ldr	r3, [sp, #8]
1000186a:	4283      	cmp	r3, r0
1000186c:	da00      	bge.n	10001870 <XMC_USIC_CH_SetBaudrateEx+0x84>
1000186e:	9d00      	ldr	r5, [sp, #0]
10001870:	2380      	movs	r3, #128	; 0x80
10001872:	00db      	lsls	r3, r3, #3
10001874:	1b5d      	subs	r5, r3, r5
10001876:	2380      	movs	r3, #128	; 0x80
10001878:	01db      	lsls	r3, r3, #7
1000187a:	431d      	orrs	r5, r3
1000187c:	613d      	str	r5, [r7, #16]
1000187e:	9b01      	ldr	r3, [sp, #4]
10001880:	6979      	ldr	r1, [r7, #20]
10001882:	4a07      	ldr	r2, [pc, #28]	; (100018a0 <XMC_USIC_CH_SetBaudrateEx+0xb4>)
10001884:	3b01      	subs	r3, #1
10001886:	029b      	lsls	r3, r3, #10
10001888:	400a      	ands	r2, r1
1000188a:	3c01      	subs	r4, #1
1000188c:	4313      	orrs	r3, r2
1000188e:	0424      	lsls	r4, r4, #16
10001890:	431c      	orrs	r4, r3
10001892:	617c      	str	r4, [r7, #20]
10001894:	2400      	movs	r4, #0
10001896:	1c20      	adds	r0, r4, #0
10001898:	b005      	add	sp, #20
1000189a:	bdf0      	pop	{r4, r5, r6, r7, pc}
1000189c:	000003fe 	.word	0x000003fe
100018a0:	fc0080ef 	.word	0xfc0080ef

100018a4 <XMC_USIC_CH_TXFIFO_Configure>:
100018a4:	30fc      	adds	r0, #252	; 0xfc
100018a6:	b530      	push	{r4, r5, lr}
100018a8:	68c5      	ldr	r5, [r0, #12]
100018aa:	4c06      	ldr	r4, [pc, #24]	; (100018c4 <XMC_USIC_CH_TXFIFO_Configure+0x20>)
100018ac:	0612      	lsls	r2, r2, #24
100018ae:	402c      	ands	r4, r5
100018b0:	60c4      	str	r4, [r0, #12]
100018b2:	68c5      	ldr	r5, [r0, #12]
100018b4:	4c04      	ldr	r4, [pc, #16]	; (100018c8 <XMC_USIC_CH_TXFIFO_Configure+0x24>)
100018b6:	021b      	lsls	r3, r3, #8
100018b8:	402c      	ands	r4, r5
100018ba:	4321      	orrs	r1, r4
100018bc:	430a      	orrs	r2, r1
100018be:	4313      	orrs	r3, r2
100018c0:	60c3      	str	r3, [r0, #12]
100018c2:	bd30      	pop	{r4, r5, pc}
100018c4:	f8ffffff 	.word	0xf8ffffff
100018c8:	f8ffc0c0 	.word	0xf8ffc0c0

100018cc <XMC_USIC_CH_RXFIFO_Configure>:
100018cc:	30fc      	adds	r0, #252	; 0xfc
100018ce:	b530      	push	{r4, r5, lr}
100018d0:	6905      	ldr	r5, [r0, #16]
100018d2:	4c08      	ldr	r4, [pc, #32]	; (100018f4 <XMC_USIC_CH_RXFIFO_Configure+0x28>)
100018d4:	0612      	lsls	r2, r2, #24
100018d6:	402c      	ands	r4, r5
100018d8:	6104      	str	r4, [r0, #16]
100018da:	6904      	ldr	r4, [r0, #16]
100018dc:	4d06      	ldr	r5, [pc, #24]	; (100018f8 <XMC_USIC_CH_RXFIFO_Configure+0x2c>)
100018de:	021b      	lsls	r3, r3, #8
100018e0:	4025      	ands	r5, r4
100018e2:	2480      	movs	r4, #128	; 0x80
100018e4:	0564      	lsls	r4, r4, #21
100018e6:	432c      	orrs	r4, r5
100018e8:	4321      	orrs	r1, r4
100018ea:	430a      	orrs	r2, r1
100018ec:	4313      	orrs	r3, r2
100018ee:	6103      	str	r3, [r0, #16]
100018f0:	bd30      	pop	{r4, r5, pc}
100018f2:	46c0      	nop			; (mov r8, r8)
100018f4:	f8ffffff 	.word	0xf8ffffff
100018f8:	efffc0c0 	.word	0xefffc0c0

100018fc <XMC_USIC_CH_RXFIFO_SetSizeTriggerLimit>:
100018fc:	30fc      	adds	r0, #252	; 0xfc
100018fe:	6901      	ldr	r1, [r0, #16]
10001900:	4b02      	ldr	r3, [pc, #8]	; (1000190c <XMC_USIC_CH_RXFIFO_SetSizeTriggerLimit+0x10>)
10001902:	0212      	lsls	r2, r2, #8
10001904:	400b      	ands	r3, r1
10001906:	431a      	orrs	r2, r3
10001908:	6102      	str	r2, [r0, #16]
1000190a:	4770      	bx	lr
1000190c:	ffffc0ff 	.word	0xffffc0ff

10001910 <XMC_USIC_CH_SetInterruptNodePointer>:
10001910:	b510      	push	{r4, lr}
10001912:	2407      	movs	r4, #7
10001914:	408c      	lsls	r4, r1
10001916:	408a      	lsls	r2, r1
10001918:	6983      	ldr	r3, [r0, #24]
1000191a:	43a3      	bics	r3, r4
1000191c:	4313      	orrs	r3, r2
1000191e:	6183      	str	r3, [r0, #24]
10001920:	bd10      	pop	{r4, pc}

10001922 <XMC_USIC_CH_TXFIFO_SetInterruptNodePointer>:
10001922:	b510      	push	{r4, lr}
10001924:	2407      	movs	r4, #7
10001926:	408c      	lsls	r4, r1
10001928:	408a      	lsls	r2, r1
1000192a:	30fc      	adds	r0, #252	; 0xfc
1000192c:	68c3      	ldr	r3, [r0, #12]
1000192e:	43a3      	bics	r3, r4
10001930:	4313      	orrs	r3, r2
10001932:	60c3      	str	r3, [r0, #12]
10001934:	bd10      	pop	{r4, pc}

10001936 <XMC_USIC_CH_RXFIFO_SetInterruptNodePointer>:
10001936:	b510      	push	{r4, lr}
10001938:	2407      	movs	r4, #7
1000193a:	408c      	lsls	r4, r1
1000193c:	408a      	lsls	r2, r1
1000193e:	30fc      	adds	r0, #252	; 0xfc
10001940:	6903      	ldr	r3, [r0, #16]
10001942:	43a3      	bics	r3, r4
10001944:	4313      	orrs	r3, r2
10001946:	6103      	str	r3, [r0, #16]
10001948:	bd10      	pop	{r4, pc}
	...

1000194c <XMC_VADC_GLOBAL_EnableModule>:
1000194c:	22ff      	movs	r2, #255	; 0xff
1000194e:	b508      	push	{r3, lr}
10001950:	4b02      	ldr	r3, [pc, #8]	; (1000195c <XMC_VADC_GLOBAL_EnableModule+0x10>)
10001952:	2001      	movs	r0, #1
10001954:	601a      	str	r2, [r3, #0]
10001956:	f7ff fc13 	bl	10001180 <XMC_SCU_CLOCK_UngatePeripheralClock>
1000195a:	bd08      	pop	{r3, pc}
1000195c:	40010500 	.word	0x40010500

10001960 <XMC_VADC_GLOBAL_Init>:
10001960:	b538      	push	{r3, r4, r5, lr}
10001962:	1c04      	adds	r4, r0, #0
10001964:	1c0d      	adds	r5, r1, #0
10001966:	f7ff fff1 	bl	1000194c <XMC_VADC_GLOBAL_EnableModule>
1000196a:	1c23      	adds	r3, r4, #0
1000196c:	696a      	ldr	r2, [r5, #20]
1000196e:	c304      	stmia	r3!, {r2}
10001970:	2280      	movs	r2, #128	; 0x80
10001972:	6869      	ldr	r1, [r5, #4]
10001974:	0212      	lsls	r2, r2, #8
10001976:	430a      	orrs	r2, r1
10001978:	67da      	str	r2, [r3, #124]	; 0x7c
1000197a:	1c23      	adds	r3, r4, #0
1000197c:	68aa      	ldr	r2, [r5, #8]
1000197e:	33a0      	adds	r3, #160	; 0xa0
10001980:	601a      	str	r2, [r3, #0]
10001982:	68ea      	ldr	r2, [r5, #12]
10001984:	605a      	str	r2, [r3, #4]
10001986:	23a0      	movs	r3, #160	; 0xa0
10001988:	692a      	ldr	r2, [r5, #16]
1000198a:	009b      	lsls	r3, r3, #2
1000198c:	50e2      	str	r2, [r4, r3]
1000198e:	682b      	ldr	r3, [r5, #0]
10001990:	34b8      	adds	r4, #184	; 0xb8
10001992:	6023      	str	r3, [r4, #0]
10001994:	bd38      	pop	{r3, r4, r5, pc}
	...

10001998 <XMC_VADC_GLOBAL_StartupCalibration>:
10001998:	2280      	movs	r2, #128	; 0x80
1000199a:	3004      	adds	r0, #4
1000199c:	6fc3      	ldr	r3, [r0, #124]	; 0x7c
1000199e:	0612      	lsls	r2, r2, #24
100019a0:	4313      	orrs	r3, r2
100019a2:	22c0      	movs	r2, #192	; 0xc0
100019a4:	67c3      	str	r3, [r0, #124]	; 0x7c
100019a6:	4b10      	ldr	r3, [pc, #64]	; (100019e8 <XMC_VADC_GLOBAL_StartupCalibration+0x50>)
100019a8:	0292      	lsls	r2, r2, #10
100019aa:	6fd9      	ldr	r1, [r3, #124]	; 0x7c
100019ac:	4211      	tst	r1, r2
100019ae:	d009      	beq.n	100019c4 <XMC_VADC_GLOBAL_StartupCalibration+0x2c>
100019b0:	6fda      	ldr	r2, [r3, #124]	; 0x7c
100019b2:	0092      	lsls	r2, r2, #2
100019b4:	d504      	bpl.n	100019c0 <XMC_VADC_GLOBAL_StartupCalibration+0x28>
100019b6:	6fda      	ldr	r2, [r3, #124]	; 0x7c
100019b8:	00d2      	lsls	r2, r2, #3
100019ba:	d503      	bpl.n	100019c4 <XMC_VADC_GLOBAL_StartupCalibration+0x2c>
100019bc:	46c0      	nop			; (mov r8, r8)
100019be:	e7fa      	b.n	100019b6 <XMC_VADC_GLOBAL_StartupCalibration+0x1e>
100019c0:	46c0      	nop			; (mov r8, r8)
100019c2:	e7f5      	b.n	100019b0 <XMC_VADC_GLOBAL_StartupCalibration+0x18>
100019c4:	22c0      	movs	r2, #192	; 0xc0
100019c6:	4b09      	ldr	r3, [pc, #36]	; (100019ec <XMC_VADC_GLOBAL_StartupCalibration+0x54>)
100019c8:	0292      	lsls	r2, r2, #10
100019ca:	6fd9      	ldr	r1, [r3, #124]	; 0x7c
100019cc:	4211      	tst	r1, r2
100019ce:	d009      	beq.n	100019e4 <XMC_VADC_GLOBAL_StartupCalibration+0x4c>
100019d0:	6fda      	ldr	r2, [r3, #124]	; 0x7c
100019d2:	0092      	lsls	r2, r2, #2
100019d4:	d401      	bmi.n	100019da <XMC_VADC_GLOBAL_StartupCalibration+0x42>
100019d6:	46c0      	nop			; (mov r8, r8)
100019d8:	e7fa      	b.n	100019d0 <XMC_VADC_GLOBAL_StartupCalibration+0x38>
100019da:	6fda      	ldr	r2, [r3, #124]	; 0x7c
100019dc:	00d2      	lsls	r2, r2, #3
100019de:	d501      	bpl.n	100019e4 <XMC_VADC_GLOBAL_StartupCalibration+0x4c>
100019e0:	46c0      	nop			; (mov r8, r8)
100019e2:	e7fa      	b.n	100019da <XMC_VADC_GLOBAL_StartupCalibration+0x42>
100019e4:	4770      	bx	lr
100019e6:	46c0      	nop			; (mov r8, r8)
100019e8:	48030404 	.word	0x48030404
100019ec:	48030804 	.word	0x48030804

100019f0 <XMC_VADC_GROUP_InputClassInit>:
100019f0:	b5f0      	push	{r4, r5, r6, r7, lr}
100019f2:	2a00      	cmp	r2, #0
100019f4:	d108      	bne.n	10001a08 <XMC_VADC_GROUP_InputClassInit+0x18>
100019f6:	26e0      	movs	r6, #224	; 0xe0
100019f8:	06cc      	lsls	r4, r1, #27
100019fa:	0549      	lsls	r1, r1, #21
100019fc:	0ee4      	lsrs	r4, r4, #27
100019fe:	0f49      	lsrs	r1, r1, #29
10001a00:	251f      	movs	r5, #31
10001a02:	00f6      	lsls	r6, r6, #3
10001a04:	2708      	movs	r7, #8
10001a06:	e009      	b.n	10001a1c <XMC_VADC_GROUP_InputClassInit+0x2c>
10001a08:	25f8      	movs	r5, #248	; 0xf8
10001a0a:	26e0      	movs	r6, #224	; 0xe0
10001a0c:	2210      	movs	r2, #16
10001a0e:	2718      	movs	r7, #24
10001a10:	02cc      	lsls	r4, r1, #11
10001a12:	0149      	lsls	r1, r1, #5
10001a14:	0ee4      	lsrs	r4, r4, #27
10001a16:	0f49      	lsrs	r1, r1, #29
10001a18:	036d      	lsls	r5, r5, #13
10001a1a:	04f6      	lsls	r6, r6, #19
10001a1c:	40b9      	lsls	r1, r7
10001a1e:	4094      	lsls	r4, r2
10001a20:	009b      	lsls	r3, r3, #2
10001a22:	18c0      	adds	r0, r0, r3
10001a24:	30a0      	adds	r0, #160	; 0xa0
10001a26:	6803      	ldr	r3, [r0, #0]
10001a28:	43b3      	bics	r3, r6
10001a2a:	4319      	orrs	r1, r3
10001a2c:	43a9      	bics	r1, r5
10001a2e:	4321      	orrs	r1, r4
10001a30:	6001      	str	r1, [r0, #0]
10001a32:	bdf0      	pop	{r4, r5, r6, r7, pc}

10001a34 <XMC_VADC_GROUP_Init>:
10001a34:	2200      	movs	r2, #0
10001a36:	b5f8      	push	{r3, r4, r5, r6, r7, lr}
10001a38:	1c04      	adds	r4, r0, #0
10001a3a:	1c0d      	adds	r5, r1, #0
10001a3c:	1c13      	adds	r3, r2, #0
10001a3e:	6849      	ldr	r1, [r1, #4]
10001a40:	f7ff ffd6 	bl	100019f0 <XMC_VADC_GROUP_InputClassInit>
10001a44:	1c20      	adds	r0, r4, #0
10001a46:	6869      	ldr	r1, [r5, #4]
10001a48:	2201      	movs	r2, #1
10001a4a:	2300      	movs	r3, #0
10001a4c:	f7ff ffd0 	bl	100019f0 <XMC_VADC_GROUP_InputClassInit>
10001a50:	1c20      	adds	r0, r4, #0
10001a52:	68a9      	ldr	r1, [r5, #8]
10001a54:	2200      	movs	r2, #0
10001a56:	2301      	movs	r3, #1
10001a58:	f7ff ffca 	bl	100019f0 <XMC_VADC_GROUP_InputClassInit>
10001a5c:	2201      	movs	r2, #1
10001a5e:	1c20      	adds	r0, r4, #0
10001a60:	68a9      	ldr	r1, [r5, #8]
10001a62:	1c13      	adds	r3, r2, #0
10001a64:	f7ff ffc4 	bl	100019f0 <XMC_VADC_GROUP_InputClassInit>
10001a68:	692a      	ldr	r2, [r5, #16]
10001a6a:	1d23      	adds	r3, r4, #4
10001a6c:	67da      	str	r2, [r3, #124]	; 0x7c
10001a6e:	68ea      	ldr	r2, [r5, #12]
10001a70:	33b4      	adds	r3, #180	; 0xb4
10001a72:	601a      	str	r2, [r3, #0]
10001a74:	886e      	ldrh	r6, [r5, #2]
10001a76:	78eb      	ldrb	r3, [r5, #3]
10001a78:	782d      	ldrb	r5, [r5, #0]
10001a7a:	05b6      	lsls	r6, r6, #22
10001a7c:	076d      	lsls	r5, r5, #29
10001a7e:	09b6      	lsrs	r6, r6, #6
10001a80:	0f6d      	lsrs	r5, r5, #29
10001a82:	4335      	orrs	r5, r6
10001a84:	26f8      	movs	r6, #248	; 0xf8
10001a86:	2780      	movs	r7, #128	; 0x80
10001a88:	0076      	lsls	r6, r6, #1
10001a8a:	51a5      	str	r5, [r4, r6]
10001a8c:	59a5      	ldr	r5, [r4, r6]
10001a8e:	06d8      	lsls	r0, r3, #27
10001a90:	063f      	lsls	r7, r7, #24
10001a92:	0719      	lsls	r1, r3, #28
10001a94:	0fc0      	lsrs	r0, r0, #31
10001a96:	433d      	orrs	r5, r7
10001a98:	069a      	lsls	r2, r3, #26
10001a9a:	0f89      	lsrs	r1, r1, #30
10001a9c:	0700      	lsls	r0, r0, #28
10001a9e:	4328      	orrs	r0, r5
10001aa0:	0fd2      	lsrs	r2, r2, #31
10001aa2:	065b      	lsls	r3, r3, #25
10001aa4:	0689      	lsls	r1, r1, #26
10001aa6:	4301      	orrs	r1, r0
10001aa8:	0fdb      	lsrs	r3, r3, #31
10001aaa:	0752      	lsls	r2, r2, #29
10001aac:	430a      	orrs	r2, r1
10001aae:	079b      	lsls	r3, r3, #30
10001ab0:	4313      	orrs	r3, r2
10001ab2:	51a3      	str	r3, [r4, r6]
10001ab4:	bdf8      	pop	{r3, r4, r5, r6, r7, pc}

10001ab6 <XMC_VADC_GROUP_SetPowerMode>:
10001ab6:	2203      	movs	r2, #3
10001ab8:	3004      	adds	r0, #4
10001aba:	6fc3      	ldr	r3, [r0, #124]	; 0x7c
10001abc:	4393      	bics	r3, r2
10001abe:	4319      	orrs	r1, r3
10001ac0:	67c1      	str	r1, [r0, #124]	; 0x7c
10001ac2:	4770      	bx	lr

10001ac4 <XMC_VADC_GLOBAL_SHS_EnableAcceleratedMode>:
10001ac4:	2900      	cmp	r1, #0
10001ac6:	d105      	bne.n	10001ad4 <XMC_VADC_GLOBAL_SHS_EnableAcceleratedMode+0x10>
10001ac8:	2201      	movs	r2, #1
10001aca:	3004      	adds	r0, #4
10001acc:	6fc3      	ldr	r3, [r0, #124]	; 0x7c
10001ace:	4313      	orrs	r3, r2
10001ad0:	67c3      	str	r3, [r0, #124]	; 0x7c
10001ad2:	e005      	b.n	10001ae0 <XMC_VADC_GLOBAL_SHS_EnableAcceleratedMode+0x1c>
10001ad4:	2901      	cmp	r1, #1
10001ad6:	d103      	bne.n	10001ae0 <XMC_VADC_GLOBAL_SHS_EnableAcceleratedMode+0x1c>
10001ad8:	3008      	adds	r0, #8
10001ada:	6fc3      	ldr	r3, [r0, #124]	; 0x7c
10001adc:	4319      	orrs	r1, r3
10001ade:	67c1      	str	r1, [r0, #124]	; 0x7c
10001ae0:	4770      	bx	lr
	...

10001ae4 <XMC_VADC_GROUP_QueueInit>:
10001ae4:	b570      	push	{r4, r5, r6, lr}
10001ae6:	1c04      	adds	r4, r0, #0
10001ae8:	2503      	movs	r5, #3
10001aea:	3408      	adds	r4, #8
10001aec:	6fe2      	ldr	r2, [r4, #124]	; 0x7c
10001aee:	4b13      	ldr	r3, [pc, #76]	; (10001b3c <XMC_VADC_GROUP_QueueInit+0x58>)
10001af0:	780e      	ldrb	r6, [r1, #0]
10001af2:	4013      	ands	r3, r2
10001af4:	67e3      	str	r3, [r4, #124]	; 0x7c
10001af6:	6fe3      	ldr	r3, [r4, #124]	; 0x7c
10001af8:	43ab      	bics	r3, r5
10001afa:	1c1a      	adds	r2, r3, #0
10001afc:	0733      	lsls	r3, r6, #28
10001afe:	0f9b      	lsrs	r3, r3, #30
10001b00:	4313      	orrs	r3, r2
10001b02:	1c32      	adds	r2, r6, #0
10001b04:	402a      	ands	r2, r5
10001b06:	d001      	beq.n	10001b0c <XMC_VADC_GROUP_QueueInit+0x28>
10001b08:	3505      	adds	r5, #5
10001b0a:	432b      	orrs	r3, r5
10001b0c:	67e3      	str	r3, [r4, #124]	; 0x7c
10001b0e:	684d      	ldr	r5, [r1, #4]
10001b10:	4b0b      	ldr	r3, [pc, #44]	; (10001b40 <XMC_VADC_GROUP_QueueInit+0x5c>)
10001b12:	30fc      	adds	r0, #252	; 0xfc
10001b14:	432b      	orrs	r3, r5
10001b16:	6043      	str	r3, [r0, #4]
10001b18:	688b      	ldr	r3, [r1, #8]
10001b1a:	2101      	movs	r1, #1
10001b1c:	430b      	orrs	r3, r1
10001b1e:	6083      	str	r3, [r0, #8]
10001b20:	2a02      	cmp	r2, #2
10001b22:	d104      	bne.n	10001b2e <XMC_VADC_GROUP_QueueInit+0x4a>
10001b24:	2280      	movs	r2, #128	; 0x80
10001b26:	6883      	ldr	r3, [r0, #8]
10001b28:	0252      	lsls	r2, r2, #9
10001b2a:	4313      	orrs	r3, r2
10001b2c:	6083      	str	r3, [r0, #8]
10001b2e:	2280      	movs	r2, #128	; 0x80
10001b30:	6fe3      	ldr	r3, [r4, #124]	; 0x7c
10001b32:	0452      	lsls	r2, r2, #17
10001b34:	4313      	orrs	r3, r2
10001b36:	67e3      	str	r3, [r4, #124]	; 0x7c
10001b38:	bd70      	pop	{r4, r5, r6, pc}
10001b3a:	46c0      	nop			; (mov r8, r8)
10001b3c:	feffffff 	.word	0xfeffffff
10001b40:	80808000 	.word	0x80808000

10001b44 <XMC_VADC_GROUP_QueueSetReqSrcEventInterruptNode>:
10001b44:	22e0      	movs	r2, #224	; 0xe0
10001b46:	b510      	push	{r4, lr}
10001b48:	240f      	movs	r4, #15
10001b4a:	0052      	lsls	r2, r2, #1
10001b4c:	5883      	ldr	r3, [r0, r2]
10001b4e:	43a3      	bics	r3, r4
10001b50:	4319      	orrs	r1, r3
10001b52:	5081      	str	r1, [r0, r2]
10001b54:	bd10      	pop	{r4, pc}
	...

10001b58 <XMC_VADC_GROUP_ChannelInit>:
10001b58:	b570      	push	{r4, r5, r6, lr}
10001b5a:	2401      	movs	r4, #1
10001b5c:	1c05      	adds	r5, r0, #0
10001b5e:	408c      	lsls	r4, r1
10001b60:	3588      	adds	r5, #136	; 0x88
10001b62:	682b      	ldr	r3, [r5, #0]
10001b64:	43a3      	bics	r3, r4
10001b66:	7b14      	ldrb	r4, [r2, #12]
10001b68:	408c      	lsls	r4, r1
10001b6a:	4323      	orrs	r3, r4
10001b6c:	602b      	str	r3, [r5, #0]
10001b6e:	7b53      	ldrb	r3, [r2, #13]
10001b70:	2b7f      	cmp	r3, #127	; 0x7f
10001b72:	d817      	bhi.n	10001ba4 <XMC_VADC_GROUP_ChannelInit+0x4c>
10001b74:	1c03      	adds	r3, r0, #0
10001b76:	33b0      	adds	r3, #176	; 0xb0
10001b78:	2901      	cmp	r1, #1
10001b7a:	d105      	bne.n	10001b88 <XMC_VADC_GROUP_ChannelInit+0x30>
10001b7c:	681d      	ldr	r5, [r3, #0]
10001b7e:	4c11      	ldr	r4, [pc, #68]	; (10001bc4 <XMC_VADC_GROUP_ChannelInit+0x6c>)
10001b80:	2608      	movs	r6, #8
10001b82:	402c      	ands	r4, r5
10001b84:	601c      	str	r4, [r3, #0]
10001b86:	e007      	b.n	10001b98 <XMC_VADC_GROUP_ChannelInit+0x40>
10001b88:	2600      	movs	r6, #0
10001b8a:	42b1      	cmp	r1, r6
10001b8c:	d104      	bne.n	10001b98 <XMC_VADC_GROUP_ChannelInit+0x40>
10001b8e:	251f      	movs	r5, #31
10001b90:	1c0e      	adds	r6, r1, #0
10001b92:	681c      	ldr	r4, [r3, #0]
10001b94:	43ac      	bics	r4, r5
10001b96:	601c      	str	r4, [r3, #0]
10001b98:	240d      	movs	r4, #13
10001b9a:	5714      	ldrsb	r4, [r2, r4]
10001b9c:	681d      	ldr	r5, [r3, #0]
10001b9e:	40b4      	lsls	r4, r6
10001ba0:	432c      	orrs	r4, r5
10001ba2:	601c      	str	r4, [r3, #0]
10001ba4:	1c04      	adds	r4, r0, #0
10001ba6:	34c8      	adds	r4, #200	; 0xc8
10001ba8:	6823      	ldr	r3, [r4, #0]
10001baa:	6855      	ldr	r5, [r2, #4]
10001bac:	3180      	adds	r1, #128	; 0x80
10001bae:	432b      	orrs	r3, r5
10001bb0:	6023      	str	r3, [r4, #0]
10001bb2:	6895      	ldr	r5, [r2, #8]
10001bb4:	68a3      	ldr	r3, [r4, #8]
10001bb6:	0089      	lsls	r1, r1, #2
10001bb8:	432b      	orrs	r3, r5
10001bba:	60a3      	str	r3, [r4, #8]
10001bbc:	6813      	ldr	r3, [r2, #0]
10001bbe:	500b      	str	r3, [r1, r0]
10001bc0:	bd70      	pop	{r4, r5, r6, pc}
10001bc2:	46c0      	nop			; (mov r8, r8)
10001bc4:	ffffe0ff 	.word	0xffffe0ff

10001bc8 <_sbrk>:
10001bc8:	4a0c      	ldr	r2, [pc, #48]	; (10001bfc <_sbrk+0x34>)
10001bca:	b508      	push	{r3, lr}
10001bcc:	6811      	ldr	r1, [r2, #0]
10001bce:	1c03      	adds	r3, r0, #0
10001bd0:	2900      	cmp	r1, #0
10001bd2:	d101      	bne.n	10001bd8 <_sbrk+0x10>
10001bd4:	490a      	ldr	r1, [pc, #40]	; (10001c00 <_sbrk+0x38>)
10001bd6:	6011      	str	r1, [r2, #0]
10001bd8:	2103      	movs	r1, #3
10001bda:	6810      	ldr	r0, [r2, #0]
10001bdc:	3303      	adds	r3, #3
10001bde:	438b      	bics	r3, r1
10001be0:	4908      	ldr	r1, [pc, #32]	; (10001c04 <_sbrk+0x3c>)
10001be2:	18c3      	adds	r3, r0, r3
10001be4:	428b      	cmp	r3, r1
10001be6:	d201      	bcs.n	10001bec <_sbrk+0x24>
10001be8:	6013      	str	r3, [r2, #0]
10001bea:	e005      	b.n	10001bf8 <_sbrk+0x30>
10001bec:	f001 fb46 	bl	1000327c <__errno>
10001bf0:	230c      	movs	r3, #12
10001bf2:	6003      	str	r3, [r0, #0]
10001bf4:	2001      	movs	r0, #1
10001bf6:	4240      	negs	r0, r0
10001bf8:	bd08      	pop	{r3, pc}
10001bfa:	46c0      	nop			; (mov r8, r8)
10001bfc:	200018a0 	.word	0x200018a0
10001c00:	20001a20 	.word	0x20001a20
10001c04:	20003ffc 	.word	0x20003ffc

10001c08 <_init>:
10001c08:	4770      	bx	lr

10001c0a <UART_lReconfigureRxFIFO>:
10001c0a:	b510      	push	{r4, lr}
10001c0c:	6843      	ldr	r3, [r0, #4]
10001c0e:	1c0c      	adds	r4, r1, #0
10001c10:	332c      	adds	r3, #44	; 0x2c
10001c12:	7819      	ldrb	r1, [r3, #0]
10001c14:	2301      	movs	r3, #1
10001c16:	408b      	lsls	r3, r1
10001c18:	1e5a      	subs	r2, r3, #1
10001c1a:	429c      	cmp	r4, r3
10001c1c:	d200      	bcs.n	10001c20 <UART_lReconfigureRxFIFO+0x16>
10001c1e:	1e62      	subs	r2, r4, #1
10001c20:	6800      	ldr	r0, [r0, #0]
10001c22:	f7ff fe6b 	bl	100018fc <XMC_USIC_CH_RXFIFO_SetSizeTriggerLimit>
10001c26:	bd10      	pop	{r4, pc}

10001c28 <UART_Init>:
10001c28:	b508      	push	{r3, lr}
10001c2a:	6843      	ldr	r3, [r0, #4]
10001c2c:	685b      	ldr	r3, [r3, #4]
10001c2e:	4798      	blx	r3
10001c30:	bd08      	pop	{r3, pc}
	...

10001c34 <UART_lTransmitHandler>:
10001c34:	b538      	push	{r3, r4, r5, lr}
10001c36:	6884      	ldr	r4, [r0, #8]
10001c38:	1c05      	adds	r5, r0, #0
10001c3a:	68e2      	ldr	r2, [r4, #12]
10001c3c:	68a3      	ldr	r3, [r4, #8]
10001c3e:	429a      	cmp	r2, r3
10001c40:	d21f      	bcs.n	10001c82 <UART_lTransmitHandler+0x4e>
10001c42:	6843      	ldr	r3, [r0, #4]
10001c44:	332b      	adds	r3, #43	; 0x2b
10001c46:	781b      	ldrb	r3, [r3, #0]
10001c48:	2b00      	cmp	r3, #0
10001c4a:	d011      	beq.n	10001c70 <UART_lTransmitHandler+0x3c>
10001c4c:	6828      	ldr	r0, [r5, #0]
10001c4e:	1c03      	adds	r3, r0, #0
10001c50:	33fc      	adds	r3, #252	; 0xfc
10001c52:	699b      	ldr	r3, [r3, #24]
10001c54:	04db      	lsls	r3, r3, #19
10001c56:	d436      	bmi.n	10001cc6 <UART_lTransmitHandler+0x92>
10001c58:	68e3      	ldr	r3, [r4, #12]
10001c5a:	68a2      	ldr	r2, [r4, #8]
10001c5c:	4293      	cmp	r3, r2
10001c5e:	d232      	bcs.n	10001cc6 <UART_lTransmitHandler+0x92>
10001c60:	6822      	ldr	r2, [r4, #0]
10001c62:	5cd1      	ldrb	r1, [r2, r3]
10001c64:	f7ff fd2e 	bl	100016c4 <XMC_UART_CH_Transmit>
10001c68:	68e3      	ldr	r3, [r4, #12]
10001c6a:	3301      	adds	r3, #1
10001c6c:	60e3      	str	r3, [r4, #12]
10001c6e:	e7ed      	b.n	10001c4c <UART_lTransmitHandler+0x18>
10001c70:	6823      	ldr	r3, [r4, #0]
10001c72:	6800      	ldr	r0, [r0, #0]
10001c74:	5c99      	ldrb	r1, [r3, r2]
10001c76:	f7ff fd25 	bl	100016c4 <XMC_UART_CH_Transmit>
10001c7a:	68e3      	ldr	r3, [r4, #12]
10001c7c:	3301      	adds	r3, #1
10001c7e:	60e3      	str	r3, [r4, #12]
10001c80:	e021      	b.n	10001cc6 <UART_lTransmitHandler+0x92>
10001c82:	6802      	ldr	r2, [r0, #0]
10001c84:	1c13      	adds	r3, r2, #0
10001c86:	33fc      	adds	r3, #252	; 0xfc
10001c88:	6999      	ldr	r1, [r3, #24]
10001c8a:	0509      	lsls	r1, r1, #20
10001c8c:	d51b      	bpl.n	10001cc6 <UART_lTransmitHandler+0x92>
10001c8e:	6841      	ldr	r1, [r0, #4]
10001c90:	1c08      	adds	r0, r1, #0
10001c92:	302b      	adds	r0, #43	; 0x2b
10001c94:	7800      	ldrb	r0, [r0, #0]
10001c96:	2800      	cmp	r0, #0
10001c98:	d004      	beq.n	10001ca4 <UART_lTransmitHandler+0x70>
10001c9a:	68dd      	ldr	r5, [r3, #12]
10001c9c:	480a      	ldr	r0, [pc, #40]	; (10001cc8 <UART_lTransmitHandler+0x94>)
10001c9e:	4028      	ands	r0, r5
10001ca0:	60d8      	str	r0, [r3, #12]
10001ca2:	e003      	b.n	10001cac <UART_lTransmitHandler+0x78>
10001ca4:	6c10      	ldr	r0, [r2, #64]	; 0x40
10001ca6:	4b09      	ldr	r3, [pc, #36]	; (10001ccc <UART_lTransmitHandler+0x98>)
10001ca8:	4003      	ands	r3, r0
10001caa:	6413      	str	r3, [r2, #64]	; 0x40
10001cac:	207f      	movs	r0, #127	; 0x7f
10001cae:	6b93      	ldr	r3, [r2, #56]	; 0x38
10001cb0:	4383      	bics	r3, r0
10001cb2:	b2db      	uxtb	r3, r3
10001cb4:	2b80      	cmp	r3, #128	; 0x80
10001cb6:	d0f9      	beq.n	10001cac <UART_lTransmitHandler+0x78>
10001cb8:	2300      	movs	r3, #0
10001cba:	7623      	strb	r3, [r4, #24]
10001cbc:	6023      	str	r3, [r4, #0]
10001cbe:	688b      	ldr	r3, [r1, #8]
10001cc0:	2b00      	cmp	r3, #0
10001cc2:	d000      	beq.n	10001cc6 <UART_lTransmitHandler+0x92>
10001cc4:	4798      	blx	r3
10001cc6:	bd38      	pop	{r3, r4, r5, pc}
10001cc8:	bfffffff 	.word	0xbfffffff
10001ccc:	ffffdfff 	.word	0xffffdfff

10001cd0 <UART_lReceiveHandler>:
10001cd0:	b570      	push	{r4, r5, r6, lr}
10001cd2:	6843      	ldr	r3, [r0, #4]
10001cd4:	1c05      	adds	r5, r0, #0
10001cd6:	332c      	adds	r3, #44	; 0x2c
10001cd8:	781b      	ldrb	r3, [r3, #0]
10001cda:	6884      	ldr	r4, [r0, #8]
10001cdc:	2b00      	cmp	r3, #0
10001cde:	d02b      	beq.n	10001d38 <UART_lReceiveHandler+0x68>
10001ce0:	6828      	ldr	r0, [r5, #0]
10001ce2:	1c03      	adds	r3, r0, #0
10001ce4:	33fc      	adds	r3, #252	; 0xfc
10001ce6:	699b      	ldr	r3, [r3, #24]
10001ce8:	071b      	lsls	r3, r3, #28
10001cea:	d41c      	bmi.n	10001d26 <UART_lReceiveHandler+0x56>
10001cec:	6963      	ldr	r3, [r4, #20]
10001cee:	6922      	ldr	r2, [r4, #16]
10001cf0:	4293      	cmp	r3, r2
10001cf2:	d207      	bcs.n	10001d04 <UART_lReceiveHandler+0x34>
10001cf4:	6862      	ldr	r2, [r4, #4]
10001cf6:	18d6      	adds	r6, r2, r3
10001cf8:	f7ff fcfb 	bl	100016f2 <XMC_UART_CH_GetReceivedData>
10001cfc:	7030      	strb	r0, [r6, #0]
10001cfe:	6963      	ldr	r3, [r4, #20]
10001d00:	3301      	adds	r3, #1
10001d02:	6163      	str	r3, [r4, #20]
10001d04:	6963      	ldr	r3, [r4, #20]
10001d06:	6922      	ldr	r2, [r4, #16]
10001d08:	4293      	cmp	r3, r2
10001d0a:	d1e9      	bne.n	10001ce0 <UART_lReceiveHandler+0x10>
10001d0c:	2300      	movs	r3, #0
10001d0e:	7663      	strb	r3, [r4, #25]
10001d10:	682b      	ldr	r3, [r5, #0]
10001d12:	4a18      	ldr	r2, [pc, #96]	; (10001d74 <UART_lReceiveHandler+0xa4>)
10001d14:	33fc      	adds	r3, #252	; 0xfc
10001d16:	6919      	ldr	r1, [r3, #16]
10001d18:	400a      	ands	r2, r1
10001d1a:	611a      	str	r2, [r3, #16]
10001d1c:	686b      	ldr	r3, [r5, #4]
10001d1e:	68db      	ldr	r3, [r3, #12]
10001d20:	2b00      	cmp	r3, #0
10001d22:	d000      	beq.n	10001d26 <UART_lReceiveHandler+0x56>
10001d24:	4798      	blx	r3
10001d26:	6961      	ldr	r1, [r4, #20]
10001d28:	6923      	ldr	r3, [r4, #16]
10001d2a:	4299      	cmp	r1, r3
10001d2c:	d221      	bcs.n	10001d72 <UART_lReceiveHandler+0xa2>
10001d2e:	1a59      	subs	r1, r3, r1
10001d30:	1c28      	adds	r0, r5, #0
10001d32:	f7ff ff6a 	bl	10001c0a <UART_lReconfigureRxFIFO>
10001d36:	e01c      	b.n	10001d72 <UART_lReceiveHandler+0xa2>
10001d38:	6963      	ldr	r3, [r4, #20]
10001d3a:	6922      	ldr	r2, [r4, #16]
10001d3c:	4293      	cmp	r3, r2
10001d3e:	d208      	bcs.n	10001d52 <UART_lReceiveHandler+0x82>
10001d40:	6862      	ldr	r2, [r4, #4]
10001d42:	6800      	ldr	r0, [r0, #0]
10001d44:	18d6      	adds	r6, r2, r3
10001d46:	f7ff fcd4 	bl	100016f2 <XMC_UART_CH_GetReceivedData>
10001d4a:	7030      	strb	r0, [r6, #0]
10001d4c:	6963      	ldr	r3, [r4, #20]
10001d4e:	3301      	adds	r3, #1
10001d50:	6163      	str	r3, [r4, #20]
10001d52:	6963      	ldr	r3, [r4, #20]
10001d54:	6922      	ldr	r2, [r4, #16]
10001d56:	4293      	cmp	r3, r2
10001d58:	d10b      	bne.n	10001d72 <UART_lReceiveHandler+0xa2>
10001d5a:	2300      	movs	r3, #0
10001d5c:	682a      	ldr	r2, [r5, #0]
10001d5e:	7663      	strb	r3, [r4, #25]
10001d60:	6c11      	ldr	r1, [r2, #64]	; 0x40
10001d62:	4b05      	ldr	r3, [pc, #20]	; (10001d78 <UART_lReceiveHandler+0xa8>)
10001d64:	400b      	ands	r3, r1
10001d66:	6413      	str	r3, [r2, #64]	; 0x40
10001d68:	686b      	ldr	r3, [r5, #4]
10001d6a:	68db      	ldr	r3, [r3, #12]
10001d6c:	2b00      	cmp	r3, #0
10001d6e:	d000      	beq.n	10001d72 <UART_lReceiveHandler+0xa2>
10001d70:	4798      	blx	r3
10001d72:	bd70      	pop	{r4, r5, r6, pc}
10001d74:	9fffffff 	.word	0x9fffffff
10001d78:	ffff3fff 	.word	0xffff3fff

10001d7c <UART_0_init>:
10001d7c:	b5f8      	push	{r3, r4, r5, r6, r7, lr}
10001d7e:	2507      	movs	r5, #7
10001d80:	2702      	movs	r7, #2
10001d82:	4e2c      	ldr	r6, [pc, #176]	; (10001e34 <UART_0_init+0xb8>)
10001d84:	4c2c      	ldr	r4, [pc, #176]	; (10001e38 <UART_0_init+0xbc>)
10001d86:	1c30      	adds	r0, r6, #0
10001d88:	2106      	movs	r1, #6
10001d8a:	4a2c      	ldr	r2, [pc, #176]	; (10001e3c <UART_0_init+0xc0>)
10001d8c:	f7ff f9b2 	bl	100010f4 <XMC_GPIO_Init>
10001d90:	1c20      	adds	r0, r4, #0
10001d92:	492b      	ldr	r1, [pc, #172]	; (10001e40 <UART_0_init+0xc4>)
10001d94:	2201      	movs	r2, #1
10001d96:	f7ff fc53 	bl	10001640 <XMC_UART_CH_InitEx>
10001d9a:	69e3      	ldr	r3, [r4, #28]
10001d9c:	1c20      	adds	r0, r4, #0
10001d9e:	43ab      	bics	r3, r5
10001da0:	433b      	orrs	r3, r7
10001da2:	61e3      	str	r3, [r4, #28]
10001da4:	6aa3      	ldr	r3, [r4, #40]	; 0x28
10001da6:	2110      	movs	r1, #16
10001da8:	43ab      	bics	r3, r5
10001daa:	62a3      	str	r3, [r4, #40]	; 0x28
10001dac:	6b23      	ldr	r3, [r4, #48]	; 0x30
10001dae:	2204      	movs	r2, #4
10001db0:	43ab      	bics	r3, r5
10001db2:	6323      	str	r3, [r4, #48]	; 0x30
10001db4:	2301      	movs	r3, #1
10001db6:	f7ff fd75 	bl	100018a4 <XMC_USIC_CH_TXFIFO_Configure>
10001dba:	2100      	movs	r1, #0
10001dbc:	1c20      	adds	r0, r4, #0
10001dbe:	1c0b      	adds	r3, r1, #0
10001dc0:	2204      	movs	r2, #4
10001dc2:	f7ff fd83 	bl	100018cc <XMC_USIC_CH_RXFIFO_Configure>
10001dc6:	220f      	movs	r2, #15
10001dc8:	6c23      	ldr	r3, [r4, #64]	; 0x40
10001dca:	1c30      	adds	r0, r6, #0
10001dcc:	4393      	bics	r3, r2
10001dce:	433b      	orrs	r3, r7
10001dd0:	6423      	str	r3, [r4, #64]	; 0x40
10001dd2:	1c29      	adds	r1, r5, #0
10001dd4:	4a1b      	ldr	r2, [pc, #108]	; (10001e44 <UART_0_init+0xc8>)
10001dd6:	f7ff f98d 	bl	100010f4 <XMC_GPIO_Init>
10001dda:	1c20      	adds	r0, r4, #0
10001ddc:	2110      	movs	r1, #16
10001dde:	2201      	movs	r2, #1
10001de0:	f7ff fd96 	bl	10001910 <XMC_USIC_CH_SetInterruptNodePointer>
10001de4:	1c20      	adds	r0, r4, #0
10001de6:	2110      	movs	r1, #16
10001de8:	2201      	movs	r2, #1
10001dea:	f7ff fd9a 	bl	10001922 <XMC_USIC_CH_TXFIFO_SetInterruptNodePointer>
10001dee:	1c20      	adds	r0, r4, #0
10001df0:	2110      	movs	r1, #16
10001df2:	2200      	movs	r2, #0
10001df4:	f7ff fd9f 	bl	10001936 <XMC_USIC_CH_RXFIFO_SetInterruptNodePointer>
10001df8:	1c20      	adds	r0, r4, #0
10001dfa:	2113      	movs	r1, #19
10001dfc:	2200      	movs	r2, #0
10001dfe:	f7ff fd9a 	bl	10001936 <XMC_USIC_CH_RXFIFO_SetInterruptNodePointer>
10001e02:	21c2      	movs	r1, #194	; 0xc2
10001e04:	4b10      	ldr	r3, [pc, #64]	; (10001e48 <UART_0_init+0xcc>)
10001e06:	0089      	lsls	r1, r1, #2
10001e08:	5858      	ldr	r0, [r3, r1]
10001e0a:	4a10      	ldr	r2, [pc, #64]	; (10001e4c <UART_0_init+0xd0>)
10001e0c:	4002      	ands	r2, r0
10001e0e:	20c0      	movs	r0, #192	; 0xc0
10001e10:	0400      	lsls	r0, r0, #16
10001e12:	4302      	orrs	r2, r0
10001e14:	505a      	str	r2, [r3, r1]
10001e16:	2280      	movs	r2, #128	; 0x80
10001e18:	00d2      	lsls	r2, r2, #3
10001e1a:	601a      	str	r2, [r3, #0]
10001e1c:	4a0c      	ldr	r2, [pc, #48]	; (10001e50 <UART_0_init+0xd4>)
10001e1e:	5858      	ldr	r0, [r3, r1]
10001e20:	4002      	ands	r2, r0
10001e22:	20c0      	movs	r0, #192	; 0xc0
10001e24:	0200      	lsls	r0, r0, #8
10001e26:	4302      	orrs	r2, r0
10001e28:	505a      	str	r2, [r3, r1]
10001e2a:	2280      	movs	r2, #128	; 0x80
10001e2c:	0092      	lsls	r2, r2, #2
10001e2e:	601a      	str	r2, [r3, #0]
10001e30:	2000      	movs	r0, #0
10001e32:	bdf8      	pop	{r3, r4, r5, r6, r7, pc}
10001e34:	40040000 	.word	0x40040000
10001e38:	48000200 	.word	0x48000200
10001e3c:	10008c94 	.word	0x10008c94
10001e40:	10008cb0 	.word	0x10008cb0
10001e44:	10008ca8 	.word	0x10008ca8
10001e48:	e000e100 	.word	0xe000e100
10001e4c:	ff00ffff 	.word	0xff00ffff
10001e50:	ffff00ff 	.word	0xffff00ff

10001e54 <USIC0_1_IRQHandler>:
10001e54:	b508      	push	{r3, lr}
10001e56:	4802      	ldr	r0, [pc, #8]	; (10001e60 <USIC0_1_IRQHandler+0xc>)
10001e58:	f7ff feec 	bl	10001c34 <UART_lTransmitHandler>
10001e5c:	bd08      	pop	{r3, pc}
10001e5e:	46c0      	nop			; (mov r8, r8)
10001e60:	20000548 	.word	0x20000548

10001e64 <USIC0_0_IRQHandler>:
10001e64:	b508      	push	{r3, lr}
10001e66:	4802      	ldr	r0, [pc, #8]	; (10001e70 <USIC0_0_IRQHandler+0xc>)
10001e68:	f7ff ff32 	bl	10001cd0 <UART_lReceiveHandler>
10001e6c:	bd08      	pop	{r3, pc}
10001e6e:	46c0      	nop			; (mov r8, r8)
10001e70:	20000548 	.word	0x20000548

10001e74 <PWM_SVM_lEnableEvent>:
10001e74:	6803      	ldr	r3, [r0, #0]
10001e76:	b510      	push	{r4, lr}
10001e78:	1c1a      	adds	r2, r3, #0
10001e7a:	3244      	adds	r2, #68	; 0x44
10001e7c:	7814      	ldrb	r4, [r2, #0]
10001e7e:	2c01      	cmp	r4, #1
10001e80:	d105      	bne.n	10001e8e <PWM_SVM_lEnableEvent+0x1a>
10001e82:	6882      	ldr	r2, [r0, #8]
10001e84:	6812      	ldr	r2, [r2, #0]
10001e86:	32a4      	adds	r2, #164	; 0xa4
10001e88:	6811      	ldr	r1, [r2, #0]
10001e8a:	4321      	orrs	r1, r4
10001e8c:	6011      	str	r1, [r2, #0]
10001e8e:	3345      	adds	r3, #69	; 0x45
10001e90:	781b      	ldrb	r3, [r3, #0]
10001e92:	2b01      	cmp	r3, #1
10001e94:	d107      	bne.n	10001ea6 <PWM_SVM_lEnableEvent+0x32>
10001e96:	2180      	movs	r1, #128	; 0x80
10001e98:	6883      	ldr	r3, [r0, #8]
10001e9a:	00c9      	lsls	r1, r1, #3
10001e9c:	681b      	ldr	r3, [r3, #0]
10001e9e:	33a4      	adds	r3, #164	; 0xa4
10001ea0:	681a      	ldr	r2, [r3, #0]
10001ea2:	430a      	orrs	r2, r1
10001ea4:	601a      	str	r2, [r3, #0]
10001ea6:	bd10      	pop	{r4, pc}

10001ea8 <PWM_SVM_InverterDisable>:
10001ea8:	6803      	ldr	r3, [r0, #0]
10001eaa:	7cdb      	ldrb	r3, [r3, #19]
10001eac:	2b01      	cmp	r3, #1
10001eae:	d105      	bne.n	10001ebc <PWM_SVM_InverterDisable+0x14>
10001eb0:	6d83      	ldr	r3, [r0, #88]	; 0x58
10001eb2:	681a      	ldr	r2, [r3, #0]
10001eb4:	7919      	ldrb	r1, [r3, #4]
10001eb6:	2380      	movs	r3, #128	; 0x80
10001eb8:	025b      	lsls	r3, r3, #9
10001eba:	e005      	b.n	10001ec8 <PWM_SVM_InverterDisable+0x20>
10001ebc:	2b02      	cmp	r3, #2
10001ebe:	d105      	bne.n	10001ecc <PWM_SVM_InverterDisable+0x24>
10001ec0:	6d83      	ldr	r3, [r0, #88]	; 0x58
10001ec2:	681a      	ldr	r2, [r3, #0]
10001ec4:	7919      	ldrb	r1, [r3, #4]
10001ec6:	2301      	movs	r3, #1
10001ec8:	408b      	lsls	r3, r1
10001eca:	6053      	str	r3, [r2, #4]
10001ecc:	4770      	bx	lr

10001ece <PWM_SVM_InverterEnable>:
10001ece:	6803      	ldr	r3, [r0, #0]
10001ed0:	7cdb      	ldrb	r3, [r3, #19]
10001ed2:	2b01      	cmp	r3, #1
10001ed4:	d105      	bne.n	10001ee2 <PWM_SVM_InverterEnable+0x14>
10001ed6:	6d82      	ldr	r2, [r0, #88]	; 0x58
10001ed8:	6811      	ldr	r1, [r2, #0]
10001eda:	7912      	ldrb	r2, [r2, #4]
10001edc:	4093      	lsls	r3, r2
10001ede:	604b      	str	r3, [r1, #4]
10001ee0:	e008      	b.n	10001ef4 <PWM_SVM_InverterEnable+0x26>
10001ee2:	2b02      	cmp	r3, #2
10001ee4:	d106      	bne.n	10001ef4 <PWM_SVM_InverterEnable+0x26>
10001ee6:	6d83      	ldr	r3, [r0, #88]	; 0x58
10001ee8:	7919      	ldrb	r1, [r3, #4]
10001eea:	681a      	ldr	r2, [r3, #0]
10001eec:	2380      	movs	r3, #128	; 0x80
10001eee:	025b      	lsls	r3, r3, #9
10001ef0:	408b      	lsls	r3, r1
10001ef2:	6053      	str	r3, [r2, #4]
10001ef4:	4770      	bx	lr

10001ef6 <PWM_SVM_lCurrentTrigSliceInit>:
10001ef6:	b570      	push	{r4, r5, r6, lr}
10001ef8:	1c04      	adds	r4, r0, #0
10001efa:	1c26      	adds	r6, r4, #0
10001efc:	6943      	ldr	r3, [r0, #20]
10001efe:	69e1      	ldr	r1, [r4, #28]
10001f00:	6818      	ldr	r0, [r3, #0]
10001f02:	f7ff fa89 	bl	10001418 <XMC_CCU8_SLICE_CompareInit>
10001f06:	6963      	ldr	r3, [r4, #20]
10001f08:	369c      	adds	r6, #156	; 0x9c
10001f0a:	6818      	ldr	r0, [r3, #0]
10001f0c:	8831      	ldrh	r1, [r6, #0]
10001f0e:	f7ff fb02 	bl	10001516 <XMC_CCU8_SLICE_SetTimerPeriodMatch>
10001f12:	6963      	ldr	r3, [r4, #20]
10001f14:	2101      	movs	r1, #1
10001f16:	6818      	ldr	r0, [r3, #0]
10001f18:	6e62      	ldr	r2, [r4, #100]	; 0x64
10001f1a:	f7ff fad1 	bl	100014c0 <XMC_CCU8_SLICE_ConfigureEvent>
10001f1e:	2201      	movs	r2, #1
10001f20:	6963      	ldr	r3, [r4, #20]
10001f22:	6861      	ldr	r1, [r4, #4]
10001f24:	7918      	ldrb	r0, [r3, #4]
10001f26:	4082      	lsls	r2, r0
10001f28:	60ca      	str	r2, [r1, #12]
10001f2a:	6822      	ldr	r2, [r4, #0]
10001f2c:	7c15      	ldrb	r5, [r2, #16]
10001f2e:	2d02      	cmp	r5, #2
10001f30:	d10d      	bne.n	10001f4e <PWM_SVM_lCurrentTrigSliceInit+0x58>
10001f32:	7ad1      	ldrb	r1, [r2, #11]
10001f34:	6832      	ldr	r2, [r6, #0]
10001f36:	6818      	ldr	r0, [r3, #0]
10001f38:	b292      	uxth	r2, r2
10001f3a:	0852      	lsrs	r2, r2, #1
10001f3c:	f7ff faed 	bl	1000151a <XMC_CCU8_SLICE_SetTimerCompareMatch>
10001f40:	6963      	ldr	r3, [r4, #20]
10001f42:	681b      	ldr	r3, [r3, #0]
10001f44:	33a4      	adds	r3, #164	; 0xa4
10001f46:	681a      	ldr	r2, [r3, #0]
10001f48:	4315      	orrs	r5, r2
10001f4a:	601d      	str	r5, [r3, #0]
10001f4c:	e02e      	b.n	10001fac <PWM_SVM_lCurrentTrigSliceInit+0xb6>
10001f4e:	2d01      	cmp	r5, #1
10001f50:	d12c      	bne.n	10001fac <PWM_SVM_lCurrentTrigSliceInit+0xb6>
10001f52:	8832      	ldrh	r2, [r6, #0]
10001f54:	6818      	ldr	r0, [r3, #0]
10001f56:	0892      	lsrs	r2, r2, #2
10001f58:	2100      	movs	r1, #0
10001f5a:	f7ff fade 	bl	1000151a <XMC_CCU8_SLICE_SetTimerCompareMatch>
10001f5e:	6832      	ldr	r2, [r6, #0]
10001f60:	6963      	ldr	r3, [r4, #20]
10001f62:	b292      	uxth	r2, r2
10001f64:	0852      	lsrs	r2, r2, #1
10001f66:	6818      	ldr	r0, [r3, #0]
10001f68:	1c29      	adds	r1, r5, #0
10001f6a:	f7ff fad6 	bl	1000151a <XMC_CCU8_SLICE_SetTimerCompareMatch>
10001f6e:	1c23      	adds	r3, r4, #0
10001f70:	3392      	adds	r3, #146	; 0x92
10001f72:	781a      	ldrb	r2, [r3, #0]
10001f74:	6963      	ldr	r3, [r4, #20]
10001f76:	681b      	ldr	r3, [r3, #0]
10001f78:	33a4      	adds	r3, #164	; 0xa4
10001f7a:	2a00      	cmp	r2, #0
10001f7c:	d10e      	bne.n	10001f9c <PWM_SVM_lCurrentTrigSliceInit+0xa6>
10001f7e:	2104      	movs	r1, #4
10001f80:	681a      	ldr	r2, [r3, #0]
10001f82:	430a      	orrs	r2, r1
10001f84:	601a      	str	r2, [r3, #0]
10001f86:	681a      	ldr	r2, [r3, #0]
10001f88:	1849      	adds	r1, r1, r1
10001f8a:	430a      	orrs	r2, r1
10001f8c:	601a      	str	r2, [r3, #0]
10001f8e:	681a      	ldr	r2, [r3, #0]
10001f90:	3108      	adds	r1, #8
10001f92:	430a      	orrs	r2, r1
10001f94:	601a      	str	r2, [r3, #0]
10001f96:	681a      	ldr	r2, [r3, #0]
10001f98:	3110      	adds	r1, #16
10001f9a:	e005      	b.n	10001fa8 <PWM_SVM_lCurrentTrigSliceInit+0xb2>
10001f9c:	2104      	movs	r1, #4
10001f9e:	681a      	ldr	r2, [r3, #0]
10001fa0:	430a      	orrs	r2, r1
10001fa2:	601a      	str	r2, [r3, #0]
10001fa4:	681a      	ldr	r2, [r3, #0]
10001fa6:	310c      	adds	r1, #12
10001fa8:	430a      	orrs	r2, r1
10001faa:	601a      	str	r2, [r3, #0]
10001fac:	6963      	ldr	r3, [r4, #20]
10001fae:	6822      	ldr	r2, [r4, #0]
10001fb0:	681b      	ldr	r3, [r3, #0]
10001fb2:	6b52      	ldr	r2, [r2, #52]	; 0x34
10001fb4:	33a8      	adds	r3, #168	; 0xa8
10001fb6:	6819      	ldr	r1, [r3, #0]
10001fb8:	430a      	orrs	r2, r1
10001fba:	601a      	str	r2, [r3, #0]
10001fbc:	bd70      	pop	{r4, r5, r6, pc}

10001fbe <PWM_SVM_Init>:
10001fbe:	1c03      	adds	r3, r0, #0
10001fc0:	b5f7      	push	{r0, r1, r2, r4, r5, r6, r7, lr}
10001fc2:	2200      	movs	r2, #0
10001fc4:	3390      	adds	r3, #144	; 0x90
10001fc6:	781b      	ldrb	r3, [r3, #0]
10001fc8:	6806      	ldr	r6, [r0, #0]
10001fca:	9200      	str	r2, [sp, #0]
10001fcc:	4293      	cmp	r3, r2
10001fce:	d000      	beq.n	10001fd2 <PWM_SVM_Init+0x14>
10001fd0:	e0aa      	b.n	10002128 <PWM_SVM_Init+0x16a>
10001fd2:	1c04      	adds	r4, r0, #0
10001fd4:	6e80      	ldr	r0, [r0, #104]	; 0x68
10001fd6:	f000 fe60 	bl	10002c9a <GLOBAL_CCU8_Init>
10001fda:	1c25      	adds	r5, r4, #0
10001fdc:	1c27      	adds	r7, r4, #0
10001fde:	9001      	str	r0, [sp, #4]
10001fe0:	9000      	str	r0, [sp, #0]
10001fe2:	3520      	adds	r5, #32
10001fe4:	3738      	adds	r7, #56	; 0x38
10001fe6:	682b      	ldr	r3, [r5, #0]
10001fe8:	69aa      	ldr	r2, [r5, #24]
10001fea:	7919      	ldrb	r1, [r3, #4]
10001fec:	6818      	ldr	r0, [r3, #0]
10001fee:	3504      	adds	r5, #4
10001ff0:	f7ff f880 	bl	100010f4 <XMC_GPIO_Init>
10001ff4:	42bd      	cmp	r5, r7
10001ff6:	d1f6      	bne.n	10001fe6 <PWM_SVM_Init+0x28>
10001ff8:	1c33      	adds	r3, r6, #0
10001ffa:	3347      	adds	r3, #71	; 0x47
10001ffc:	781b      	ldrb	r3, [r3, #0]
10001ffe:	2b01      	cmp	r3, #1
10002000:	d10c      	bne.n	1000201c <PWM_SVM_Init+0x5e>
10002002:	6d23      	ldr	r3, [r4, #80]	; 0x50
10002004:	6d62      	ldr	r2, [r4, #84]	; 0x54
10002006:	7919      	ldrb	r1, [r3, #4]
10002008:	6818      	ldr	r0, [r3, #0]
1000200a:	f7ff f873 	bl	100010f4 <XMC_GPIO_Init>
1000200e:	6d23      	ldr	r3, [r4, #80]	; 0x50
10002010:	6822      	ldr	r2, [r4, #0]
10002012:	7919      	ldrb	r1, [r3, #4]
10002014:	7c92      	ldrb	r2, [r2, #18]
10002016:	6818      	ldr	r0, [r3, #0]
10002018:	f7ff fa98 	bl	1000154c <XMC_GPIO_SetHardwareControl>
1000201c:	7cf3      	ldrb	r3, [r6, #19]
1000201e:	2b00      	cmp	r3, #0
10002020:	d005      	beq.n	1000202e <PWM_SVM_Init+0x70>
10002022:	6da3      	ldr	r3, [r4, #88]	; 0x58
10002024:	6de2      	ldr	r2, [r4, #92]	; 0x5c
10002026:	7919      	ldrb	r1, [r3, #4]
10002028:	6818      	ldr	r0, [r3, #0]
1000202a:	f7ff f863 	bl	100010f4 <XMC_GPIO_Init>
1000202e:	1c20      	adds	r0, r4, #0
10002030:	1c25      	adds	r5, r4, #0
10002032:	f7ff ff39 	bl	10001ea8 <PWM_SVM_InverterDisable>
10002036:	2700      	movs	r7, #0
10002038:	3508      	adds	r5, #8
1000203a:	682b      	ldr	r3, [r5, #0]
1000203c:	69a1      	ldr	r1, [r4, #24]
1000203e:	6818      	ldr	r0, [r3, #0]
10002040:	f7ff f9ea 	bl	10001418 <XMC_CCU8_SLICE_CompareInit>
10002044:	682b      	ldr	r3, [r5, #0]
10002046:	6ee1      	ldr	r1, [r4, #108]	; 0x6c
10002048:	6818      	ldr	r0, [r3, #0]
1000204a:	f7ff fa6c 	bl	10001526 <XMC_CCU8_SLICE_DeadTimeInit>
1000204e:	682b      	ldr	r3, [r5, #0]
10002050:	2101      	movs	r1, #1
10002052:	6818      	ldr	r0, [r3, #0]
10002054:	6e62      	ldr	r2, [r4, #100]	; 0x64
10002056:	f7ff fa33 	bl	100014c0 <XMC_CCU8_SLICE_ConfigureEvent>
1000205a:	1c33      	adds	r3, r6, #0
1000205c:	3347      	adds	r3, #71	; 0x47
1000205e:	781b      	ldrb	r3, [r3, #0]
10002060:	2b01      	cmp	r3, #1
10002062:	d110      	bne.n	10002086 <PWM_SVM_Init+0xc8>
10002064:	682b      	ldr	r3, [r5, #0]
10002066:	2103      	movs	r1, #3
10002068:	6818      	ldr	r0, [r3, #0]
1000206a:	6e22      	ldr	r2, [r4, #96]	; 0x60
1000206c:	f7ff fa28 	bl	100014c0 <XMC_CCU8_SLICE_ConfigureEvent>
10002070:	1c32      	adds	r2, r6, #0
10002072:	3248      	adds	r2, #72	; 0x48
10002074:	7812      	ldrb	r2, [r2, #0]
10002076:	682b      	ldr	r3, [r5, #0]
10002078:	1e50      	subs	r0, r2, #1
1000207a:	4182      	sbcs	r2, r0
1000207c:	7c71      	ldrb	r1, [r6, #17]
1000207e:	b2d2      	uxtb	r2, r2
10002080:	6818      	ldr	r0, [r3, #0]
10002082:	f7ff f9ff 	bl	10001484 <XMC_CCU8_SLICE_TrapConfig>
10002086:	1c22      	adds	r2, r4, #0
10002088:	329c      	adds	r2, #156	; 0x9c
1000208a:	682b      	ldr	r3, [r5, #0]
1000208c:	6811      	ldr	r1, [r2, #0]
1000208e:	6818      	ldr	r0, [r3, #0]
10002090:	b289      	uxth	r1, r1
10002092:	f7ff fa40 	bl	10001516 <XMC_CCU8_SLICE_SetTimerPeriodMatch>
10002096:	2100      	movs	r1, #0
10002098:	682b      	ldr	r3, [r5, #0]
1000209a:	1c0a      	adds	r2, r1, #0
1000209c:	6818      	ldr	r0, [r3, #0]
1000209e:	f7ff fa3c 	bl	1000151a <XMC_CCU8_SLICE_SetTimerCompareMatch>
100020a2:	682b      	ldr	r3, [r5, #0]
100020a4:	2101      	movs	r1, #1
100020a6:	6818      	ldr	r0, [r3, #0]
100020a8:	2200      	movs	r2, #0
100020aa:	f7ff fa36 	bl	1000151a <XMC_CCU8_SLICE_SetTimerCompareMatch>
100020ae:	6823      	ldr	r3, [r4, #0]
100020b0:	682a      	ldr	r2, [r5, #0]
100020b2:	19db      	adds	r3, r3, r7
100020b4:	7b19      	ldrb	r1, [r3, #12]
100020b6:	6810      	ldr	r0, [r2, #0]
100020b8:	f7ff fa3c 	bl	10001534 <XMC_CCU8_SLICE_ConfigureStatusBitOutput>
100020bc:	cd01      	ldmia	r5!, {r0}
100020be:	00b9      	lsls	r1, r7, #2
100020c0:	6803      	ldr	r3, [r0, #0]
100020c2:	1871      	adds	r1, r6, r1
100020c4:	33a8      	adds	r3, #168	; 0xa8
100020c6:	681a      	ldr	r2, [r3, #0]
100020c8:	3701      	adds	r7, #1
100020ca:	4694      	mov	ip, r2
100020cc:	6a8a      	ldr	r2, [r1, #40]	; 0x28
100020ce:	4661      	mov	r1, ip
100020d0:	430a      	orrs	r2, r1
100020d2:	601a      	str	r2, [r3, #0]
100020d4:	2301      	movs	r3, #1
100020d6:	7901      	ldrb	r1, [r0, #4]
100020d8:	6862      	ldr	r2, [r4, #4]
100020da:	408b      	lsls	r3, r1
100020dc:	60d3      	str	r3, [r2, #12]
100020de:	2f03      	cmp	r7, #3
100020e0:	d1ab      	bne.n	1000203a <PWM_SVM_Init+0x7c>
100020e2:	1c20      	adds	r0, r4, #0
100020e4:	f7ff fec6 	bl	10001e74 <PWM_SVM_lEnableEvent>
100020e8:	7c33      	ldrb	r3, [r6, #16]
100020ea:	2b00      	cmp	r3, #0
100020ec:	d002      	beq.n	100020f4 <PWM_SVM_Init+0x136>
100020ee:	1c20      	adds	r0, r4, #0
100020f0:	f7ff ff01 	bl	10001ef6 <PWM_SVM_lCurrentTrigSliceInit>
100020f4:	2080      	movs	r0, #128	; 0x80
100020f6:	0040      	lsls	r0, r0, #1
100020f8:	f7ff f842 	bl	10001180 <XMC_SCU_CLOCK_UngatePeripheralClock>
100020fc:	6863      	ldr	r3, [r4, #4]
100020fe:	6a72      	ldr	r2, [r6, #36]	; 0x24
10002100:	611a      	str	r2, [r3, #16]
10002102:	1c22      	adds	r2, r4, #0
10002104:	6ee3      	ldr	r3, [r4, #108]	; 0x6c
10002106:	3294      	adds	r2, #148	; 0x94
10002108:	7919      	ldrb	r1, [r3, #4]
1000210a:	6011      	str	r1, [r2, #0]
1000210c:	7959      	ldrb	r1, [r3, #5]
1000210e:	781b      	ldrb	r3, [r3, #0]
10002110:	6051      	str	r1, [r2, #4]
10002112:	099b      	lsrs	r3, r3, #6
10002114:	3a03      	subs	r2, #3
10002116:	7013      	strb	r3, [r2, #0]
10002118:	9b01      	ldr	r3, [sp, #4]
1000211a:	2b01      	cmp	r3, #1
1000211c:	d004      	beq.n	10002128 <PWM_SVM_Init+0x16a>
1000211e:	2301      	movs	r3, #1
10002120:	3490      	adds	r4, #144	; 0x90
10002122:	7023      	strb	r3, [r4, #0]
10002124:	2300      	movs	r3, #0
10002126:	9300      	str	r3, [sp, #0]
10002128:	9800      	ldr	r0, [sp, #0]
1000212a:	bdfe      	pop	{r1, r2, r3, r4, r5, r6, r7, pc}

1000212c <PWM_SVM_Start>:
1000212c:	1c03      	adds	r3, r0, #0
1000212e:	b5f7      	push	{r0, r1, r2, r4, r5, r6, r7, lr}
10002130:	2202      	movs	r2, #2
10002132:	3390      	adds	r3, #144	; 0x90
10002134:	9300      	str	r3, [sp, #0]
10002136:	781b      	ldrb	r3, [r3, #0]
10002138:	6805      	ldr	r5, [r0, #0]
1000213a:	4393      	bics	r3, r2
1000213c:	2b01      	cmp	r3, #1
1000213e:	d000      	beq.n	10002142 <PWM_SVM_Start+0x16>
10002140:	e092      	b.n	10002268 <PWM_SVM_Start+0x13c>
10002142:	1c02      	adds	r2, r0, #0
10002144:	2300      	movs	r3, #0
10002146:	1c04      	adds	r4, r0, #0
10002148:	32ae      	adds	r2, #174	; 0xae
1000214a:	8013      	strh	r3, [r2, #0]
1000214c:	8053      	strh	r3, [r2, #2]
1000214e:	8093      	strh	r3, [r2, #4]
10002150:	80d3      	strh	r3, [r2, #6]
10002152:	8113      	strh	r3, [r2, #8]
10002154:	8153      	strh	r3, [r2, #10]
10002156:	8193      	strh	r3, [r2, #12]
10002158:	81d3      	strh	r3, [r2, #14]
1000215a:	3a0a      	subs	r2, #10
1000215c:	6013      	str	r3, [r2, #0]
1000215e:	8393      	strh	r3, [r2, #28]
10002160:	f7ff feb5 	bl	10001ece <PWM_SVM_InverterEnable>
10002164:	1c23      	adds	r3, r4, #0
10002166:	1c26      	adds	r6, r4, #0
10002168:	3314      	adds	r3, #20
1000216a:	3608      	adds	r6, #8
1000216c:	9301      	str	r3, [sp, #4]
1000216e:	1c2f      	adds	r7, r5, #0
10002170:	3747      	adds	r7, #71	; 0x47
10002172:	783b      	ldrb	r3, [r7, #0]
10002174:	2b01      	cmp	r3, #1
10002176:	d108      	bne.n	1000218a <PWM_SVM_Start+0x5e>
10002178:	2280      	movs	r2, #128	; 0x80
1000217a:	6833      	ldr	r3, [r6, #0]
1000217c:	00d2      	lsls	r2, r2, #3
1000217e:	681b      	ldr	r3, [r3, #0]
10002180:	33b0      	adds	r3, #176	; 0xb0
10002182:	601a      	str	r2, [r3, #0]
10002184:	2280      	movs	r2, #128	; 0x80
10002186:	0112      	lsls	r2, r2, #4
10002188:	601a      	str	r2, [r3, #0]
1000218a:	2101      	movs	r1, #1
1000218c:	ce08      	ldmia	r6!, {r3}
1000218e:	1c0a      	adds	r2, r1, #0
10002190:	6818      	ldr	r0, [r3, #0]
10002192:	f7ff f963 	bl	1000145c <XMC_CCU8_SLICE_StartConfig>
10002196:	9b01      	ldr	r3, [sp, #4]
10002198:	429e      	cmp	r6, r3
1000219a:	d1e8      	bne.n	1000216e <PWM_SVM_Start+0x42>
1000219c:	783b      	ldrb	r3, [r7, #0]
1000219e:	2b01      	cmp	r3, #1
100021a0:	d11a      	bne.n	100021d8 <PWM_SVM_Start+0xac>
100021a2:	68a3      	ldr	r3, [r4, #8]
100021a4:	6819      	ldr	r1, [r3, #0]
100021a6:	7d2b      	ldrb	r3, [r5, #20]
100021a8:	694a      	ldr	r2, [r1, #20]
100021aa:	0058      	lsls	r0, r3, #1
100021ac:	4303      	orrs	r3, r0
100021ae:	045b      	lsls	r3, r3, #17
100021b0:	4313      	orrs	r3, r2
100021b2:	614b      	str	r3, [r1, #20]
100021b4:	68e3      	ldr	r3, [r4, #12]
100021b6:	6819      	ldr	r1, [r3, #0]
100021b8:	7d6b      	ldrb	r3, [r5, #21]
100021ba:	694a      	ldr	r2, [r1, #20]
100021bc:	0058      	lsls	r0, r3, #1
100021be:	4303      	orrs	r3, r0
100021c0:	045b      	lsls	r3, r3, #17
100021c2:	4313      	orrs	r3, r2
100021c4:	614b      	str	r3, [r1, #20]
100021c6:	6923      	ldr	r3, [r4, #16]
100021c8:	6819      	ldr	r1, [r3, #0]
100021ca:	7dab      	ldrb	r3, [r5, #22]
100021cc:	694a      	ldr	r2, [r1, #20]
100021ce:	0058      	lsls	r0, r3, #1
100021d0:	4303      	orrs	r3, r0
100021d2:	045b      	lsls	r3, r3, #17
100021d4:	4313      	orrs	r3, r2
100021d6:	614b      	str	r3, [r1, #20]
100021d8:	7c2b      	ldrb	r3, [r5, #16]
100021da:	2b00      	cmp	r3, #0
100021dc:	d01d      	beq.n	1000221a <PWM_SVM_Start+0xee>
100021de:	2101      	movs	r1, #1
100021e0:	6963      	ldr	r3, [r4, #20]
100021e2:	1c0a      	adds	r2, r1, #0
100021e4:	6818      	ldr	r0, [r3, #0]
100021e6:	f7ff f939 	bl	1000145c <XMC_CCU8_SLICE_StartConfig>
100021ea:	68a3      	ldr	r3, [r4, #8]
100021ec:	7c2a      	ldrb	r2, [r5, #16]
100021ee:	681e      	ldr	r6, [r3, #0]
100021f0:	68e0      	ldr	r0, [r4, #12]
100021f2:	6921      	ldr	r1, [r4, #16]
100021f4:	1c23      	adds	r3, r4, #0
100021f6:	2a01      	cmp	r2, #1
100021f8:	d103      	bne.n	10002202 <PWM_SVM_Start+0xd6>
100021fa:	33c2      	adds	r3, #194	; 0xc2
100021fc:	881b      	ldrh	r3, [r3, #0]
100021fe:	085b      	lsrs	r3, r3, #1
10002200:	e002      	b.n	10002208 <PWM_SVM_Start+0xdc>
10002202:	3394      	adds	r3, #148	; 0x94
10002204:	681b      	ldr	r3, [r3, #0]
10002206:	b2db      	uxtb	r3, r3
10002208:	1caa      	adds	r2, r5, #2
1000220a:	8fd2      	ldrh	r2, [r2, #62]	; 0x3e
1000220c:	189b      	adds	r3, r3, r2
1000220e:	6802      	ldr	r2, [r0, #0]
10002210:	b29b      	uxth	r3, r3
10002212:	6733      	str	r3, [r6, #112]	; 0x70
10002214:	6713      	str	r3, [r2, #112]	; 0x70
10002216:	680a      	ldr	r2, [r1, #0]
10002218:	6713      	str	r3, [r2, #112]	; 0x70
1000221a:	4e14      	ldr	r6, [pc, #80]	; (1000226c <PWM_SVM_Start+0x140>)
1000221c:	6a2a      	ldr	r2, [r5, #32]
1000221e:	6b33      	ldr	r3, [r6, #48]	; 0x30
10002220:	2100      	movs	r1, #0
10002222:	4313      	orrs	r3, r2
10002224:	6333      	str	r3, [r6, #48]	; 0x30
10002226:	68a3      	ldr	r3, [r4, #8]
10002228:	2201      	movs	r2, #1
1000222a:	6818      	ldr	r0, [r3, #0]
1000222c:	f7ff f916 	bl	1000145c <XMC_CCU8_SLICE_StartConfig>
10002230:	68e3      	ldr	r3, [r4, #12]
10002232:	2100      	movs	r1, #0
10002234:	6818      	ldr	r0, [r3, #0]
10002236:	2201      	movs	r2, #1
10002238:	f7ff f910 	bl	1000145c <XMC_CCU8_SLICE_StartConfig>
1000223c:	6923      	ldr	r3, [r4, #16]
1000223e:	2100      	movs	r1, #0
10002240:	6818      	ldr	r0, [r3, #0]
10002242:	2201      	movs	r2, #1
10002244:	f7ff f90a 	bl	1000145c <XMC_CCU8_SLICE_StartConfig>
10002248:	7c2b      	ldrb	r3, [r5, #16]
1000224a:	2b00      	cmp	r3, #0
1000224c:	d005      	beq.n	1000225a <PWM_SVM_Start+0x12e>
1000224e:	6963      	ldr	r3, [r4, #20]
10002250:	2100      	movs	r1, #0
10002252:	6818      	ldr	r0, [r3, #0]
10002254:	2201      	movs	r2, #1
10002256:	f7ff f901 	bl	1000145c <XMC_CCU8_SLICE_StartConfig>
1000225a:	6a2a      	ldr	r2, [r5, #32]
1000225c:	6b33      	ldr	r3, [r6, #48]	; 0x30
1000225e:	4393      	bics	r3, r2
10002260:	6333      	str	r3, [r6, #48]	; 0x30
10002262:	2302      	movs	r3, #2
10002264:	9a00      	ldr	r2, [sp, #0]
10002266:	7013      	strb	r3, [r2, #0]
10002268:	bdf7      	pop	{r0, r1, r2, r4, r5, r6, r7, pc}
1000226a:	46c0      	nop			; (mov r8, r8)
1000226c:	40010000 	.word	0x40010000

10002270 <PWM_SVM_Stop>:
10002270:	b5f7      	push	{r0, r1, r2, r4, r5, r6, r7, lr}
10002272:	6805      	ldr	r5, [r0, #0]
10002274:	1c04      	adds	r4, r0, #0
10002276:	f7ff fe17 	bl	10001ea8 <PWM_SVM_InverterDisable>
1000227a:	1c2b      	adds	r3, r5, #0
1000227c:	3347      	adds	r3, #71	; 0x47
1000227e:	781b      	ldrb	r3, [r3, #0]
10002280:	68a7      	ldr	r7, [r4, #8]
10002282:	2b01      	cmp	r3, #1
10002284:	d123      	bne.n	100022ce <PWM_SVM_Stop+0x5e>
10002286:	7d2b      	ldrb	r3, [r5, #20]
10002288:	6838      	ldr	r0, [r7, #0]
1000228a:	0059      	lsls	r1, r3, #1
1000228c:	6942      	ldr	r2, [r0, #20]
1000228e:	430b      	orrs	r3, r1
10002290:	045b      	lsls	r3, r3, #17
10002292:	439a      	bics	r2, r3
10002294:	68e3      	ldr	r3, [r4, #12]
10002296:	6142      	str	r2, [r0, #20]
10002298:	6819      	ldr	r1, [r3, #0]
1000229a:	7d6b      	ldrb	r3, [r5, #21]
1000229c:	694a      	ldr	r2, [r1, #20]
1000229e:	005e      	lsls	r6, r3, #1
100022a0:	4333      	orrs	r3, r6
100022a2:	045b      	lsls	r3, r3, #17
100022a4:	439a      	bics	r2, r3
100022a6:	6923      	ldr	r3, [r4, #16]
100022a8:	614a      	str	r2, [r1, #20]
100022aa:	681a      	ldr	r2, [r3, #0]
100022ac:	7dab      	ldrb	r3, [r5, #22]
100022ae:	6956      	ldr	r6, [r2, #20]
100022b0:	30b0      	adds	r0, #176	; 0xb0
100022b2:	9601      	str	r6, [sp, #4]
100022b4:	005e      	lsls	r6, r3, #1
100022b6:	4333      	orrs	r3, r6
100022b8:	9e01      	ldr	r6, [sp, #4]
100022ba:	045b      	lsls	r3, r3, #17
100022bc:	439e      	bics	r6, r3
100022be:	2380      	movs	r3, #128	; 0x80
100022c0:	6156      	str	r6, [r2, #20]
100022c2:	011b      	lsls	r3, r3, #4
100022c4:	31b0      	adds	r1, #176	; 0xb0
100022c6:	32b0      	adds	r2, #176	; 0xb0
100022c8:	6003      	str	r3, [r0, #0]
100022ca:	600b      	str	r3, [r1, #0]
100022cc:	6013      	str	r3, [r2, #0]
100022ce:	2301      	movs	r3, #1
100022d0:	683a      	ldr	r2, [r7, #0]
100022d2:	6113      	str	r3, [r2, #16]
100022d4:	68e2      	ldr	r2, [r4, #12]
100022d6:	6812      	ldr	r2, [r2, #0]
100022d8:	6113      	str	r3, [r2, #16]
100022da:	6922      	ldr	r2, [r4, #16]
100022dc:	6812      	ldr	r2, [r2, #0]
100022de:	6113      	str	r3, [r2, #16]
100022e0:	7c2a      	ldrb	r2, [r5, #16]
100022e2:	2a00      	cmp	r2, #0
100022e4:	d002      	beq.n	100022ec <PWM_SVM_Stop+0x7c>
100022e6:	6962      	ldr	r2, [r4, #20]
100022e8:	6812      	ldr	r2, [r2, #0]
100022ea:	6113      	str	r3, [r2, #16]
100022ec:	4a04      	ldr	r2, [pc, #16]	; (10002300 <PWM_SVM_Stop+0x90>)
100022ee:	6a29      	ldr	r1, [r5, #32]
100022f0:	6b13      	ldr	r3, [r2, #48]	; 0x30
100022f2:	3490      	adds	r4, #144	; 0x90
100022f4:	438b      	bics	r3, r1
100022f6:	6313      	str	r3, [r2, #48]	; 0x30
100022f8:	2303      	movs	r3, #3
100022fa:	7023      	strb	r3, [r4, #0]
100022fc:	bdf7      	pop	{r0, r1, r2, r4, r5, r6, r7, pc}
100022fe:	46c0      	nop			; (mov r8, r8)
10002300:	40010000 	.word	0x40010000

10002304 <PMSM_FOC_ISRInit>:
10002304:	7801      	ldrb	r1, [r0, #0]
10002306:	7842      	ldrb	r2, [r0, #1]
10002308:	b24b      	sxtb	r3, r1
1000230a:	b5f0      	push	{r4, r5, r6, r7, lr}
1000230c:	0192      	lsls	r2, r2, #6
1000230e:	2b00      	cmp	r3, #0
10002310:	db13      	blt.n	1000233a <PMSM_FOC_ISRInit+0x36>
10002312:	4c1a      	ldr	r4, [pc, #104]	; (1000237c <PMSM_FOC_ISRInit+0x78>)
10002314:	089b      	lsrs	r3, r3, #2
10002316:	009b      	lsls	r3, r3, #2
10002318:	191b      	adds	r3, r3, r4
1000231a:	2403      	movs	r4, #3
1000231c:	4021      	ands	r1, r4
1000231e:	40a1      	lsls	r1, r4
10002320:	34fc      	adds	r4, #252	; 0xfc
10002322:	1c27      	adds	r7, r4, #0
10002324:	25c0      	movs	r5, #192	; 0xc0
10002326:	408f      	lsls	r7, r1
10002328:	00ad      	lsls	r5, r5, #2
1000232a:	595e      	ldr	r6, [r3, r5]
1000232c:	4014      	ands	r4, r2
1000232e:	43be      	bics	r6, r7
10002330:	408c      	lsls	r4, r1
10002332:	1c32      	adds	r2, r6, #0
10002334:	4322      	orrs	r2, r4
10002336:	515a      	str	r2, [r3, r5]
10002338:	e013      	b.n	10002362 <PMSM_FOC_ISRInit+0x5e>
1000233a:	230f      	movs	r3, #15
1000233c:	400b      	ands	r3, r1
1000233e:	3b08      	subs	r3, #8
10002340:	4c0f      	ldr	r4, [pc, #60]	; (10002380 <PMSM_FOC_ISRInit+0x7c>)
10002342:	089b      	lsrs	r3, r3, #2
10002344:	2503      	movs	r5, #3
10002346:	009b      	lsls	r3, r3, #2
10002348:	191b      	adds	r3, r3, r4
1000234a:	24ff      	movs	r4, #255	; 0xff
1000234c:	4029      	ands	r1, r5
1000234e:	40a9      	lsls	r1, r5
10002350:	1c25      	adds	r5, r4, #0
10002352:	408d      	lsls	r5, r1
10002354:	69de      	ldr	r6, [r3, #28]
10002356:	4014      	ands	r4, r2
10002358:	43ae      	bics	r6, r5
1000235a:	408c      	lsls	r4, r1
1000235c:	1c32      	adds	r2, r6, #0
1000235e:	4322      	orrs	r2, r4
10002360:	61da      	str	r2, [r3, #28]
10002362:	7802      	ldrb	r2, [r0, #0]
10002364:	b253      	sxtb	r3, r2
10002366:	2b00      	cmp	r3, #0
10002368:	db06      	blt.n	10002378 <PMSM_FOC_ISRInit+0x74>
1000236a:	231f      	movs	r3, #31
1000236c:	4013      	ands	r3, r2
1000236e:	2201      	movs	r2, #1
10002370:	409a      	lsls	r2, r3
10002372:	1c13      	adds	r3, r2, #0
10002374:	4a01      	ldr	r2, [pc, #4]	; (1000237c <PMSM_FOC_ISRInit+0x78>)
10002376:	6013      	str	r3, [r2, #0]
10002378:	bdf0      	pop	{r4, r5, r6, r7, pc}
1000237a:	46c0      	nop			; (mov r8, r8)
1000237c:	e000e100 	.word	0xe000e100
10002380:	e000ed00 	.word	0xe000ed00

10002384 <PMSM_FOC_Init>:
10002384:	2300      	movs	r3, #0
10002386:	b5f0      	push	{r4, r5, r6, r7, lr}
10002388:	b087      	sub	sp, #28
1000238a:	9305      	str	r3, [sp, #20]
1000238c:	9305      	str	r3, [sp, #20]
1000238e:	9a05      	ldr	r2, [sp, #20]
10002390:	4b48      	ldr	r3, [pc, #288]	; (100024b4 <PMSM_FOC_Init+0x130>)
10002392:	429a      	cmp	r2, r3
10002394:	d802      	bhi.n	1000239c <PMSM_FOC_Init+0x18>
10002396:	9b05      	ldr	r3, [sp, #20]
10002398:	3301      	adds	r3, #1
1000239a:	e7f7      	b.n	1000238c <PMSM_FOC_Init+0x8>
1000239c:	1c03      	adds	r3, r0, #0
1000239e:	33b6      	adds	r3, #182	; 0xb6
100023a0:	781a      	ldrb	r2, [r3, #0]
100023a2:	2300      	movs	r3, #0
100023a4:	429a      	cmp	r2, r3
100023a6:	d000      	beq.n	100023aa <PMSM_FOC_Init+0x26>
100023a8:	e081      	b.n	100024ae <PMSM_FOC_Init+0x12a>
100023aa:	1c04      	adds	r4, r0, #0
100023ac:	6880      	ldr	r0, [r0, #8]
100023ae:	f7ff ffa9 	bl	10002304 <PMSM_FOC_ISRInit>
100023b2:	1c23      	adds	r3, r4, #0
100023b4:	33a4      	adds	r3, #164	; 0xa4
100023b6:	6818      	ldr	r0, [r3, #0]
100023b8:	f7ff ffa4 	bl	10002304 <PMSM_FOC_ISRInit>
100023bc:	6860      	ldr	r0, [r4, #4]
100023be:	f7ff fdfe 	bl	10001fbe <PWM_SVM_Init>
100023c2:	6823      	ldr	r3, [r4, #0]
100023c4:	9003      	str	r0, [sp, #12]
100023c6:	3346      	adds	r3, #70	; 0x46
100023c8:	781b      	ldrb	r3, [r3, #0]
100023ca:	2b01      	cmp	r3, #1
100023cc:	d907      	bls.n	100023de <PMSM_FOC_Init+0x5a>
100023ce:	2102      	movs	r1, #2
100023d0:	6863      	ldr	r3, [r4, #4]
100023d2:	68db      	ldr	r3, [r3, #12]
100023d4:	681b      	ldr	r3, [r3, #0]
100023d6:	33a4      	adds	r3, #164	; 0xa4
100023d8:	681a      	ldr	r2, [r3, #0]
100023da:	430a      	orrs	r2, r1
100023dc:	601a      	str	r2, [r3, #0]
100023de:	6965      	ldr	r5, [r4, #20]
100023e0:	2200      	movs	r2, #0
100023e2:	1c2b      	adds	r3, r5, #0
100023e4:	3394      	adds	r3, #148	; 0x94
100023e6:	781b      	ldrb	r3, [r3, #0]
100023e8:	9201      	str	r2, [sp, #4]
100023ea:	4293      	cmp	r3, r2
100023ec:	d103      	bne.n	100023f6 <PMSM_FOC_Init+0x72>
100023ee:	6ba8      	ldr	r0, [r5, #56]	; 0x38
100023f0:	f000 fcf2 	bl	10002dd8 <ADC_QUEUE_Init>
100023f4:	9001      	str	r0, [sp, #4]
100023f6:	1c2b      	adds	r3, r5, #0
100023f8:	3395      	adds	r3, #149	; 0x95
100023fa:	781b      	ldrb	r3, [r3, #0]
100023fc:	2b00      	cmp	r3, #0
100023fe:	d105      	bne.n	1000240c <PMSM_FOC_Init+0x88>
10002400:	6be8      	ldr	r0, [r5, #60]	; 0x3c
10002402:	f000 fce9 	bl	10002dd8 <ADC_QUEUE_Init>
10002406:	9b01      	ldr	r3, [sp, #4]
10002408:	4303      	orrs	r3, r0
1000240a:	9301      	str	r3, [sp, #4]
1000240c:	1c2b      	adds	r3, r5, #0
1000240e:	1c2e      	adds	r6, r5, #0
10002410:	1c2f      	adds	r7, r5, #0
10002412:	3354      	adds	r3, #84	; 0x54
10002414:	3638      	adds	r6, #56	; 0x38
10002416:	3796      	adds	r7, #150	; 0x96
10002418:	9302      	str	r3, [sp, #8]
1000241a:	6a71      	ldr	r1, [r6, #36]	; 0x24
1000241c:	2900      	cmp	r1, #0
1000241e:	d00d      	beq.n	1000243c <PMSM_FOC_Init+0xb8>
10002420:	2003      	movs	r0, #3
10002422:	6833      	ldr	r3, [r6, #0]
10002424:	7edb      	ldrb	r3, [r3, #27]
10002426:	4003      	ands	r3, r0
10002428:	1c1a      	adds	r2, r3, #0
1000242a:	780b      	ldrb	r3, [r1, #0]
1000242c:	4383      	bics	r3, r0
1000242e:	4313      	orrs	r3, r2
10002430:	700b      	strb	r3, [r1, #0]
10002432:	7839      	ldrb	r1, [r7, #0]
10002434:	6c30      	ldr	r0, [r6, #64]	; 0x40
10002436:	6a72      	ldr	r2, [r6, #36]	; 0x24
10002438:	f7ff fb8e 	bl	10001b58 <XMC_VADC_GROUP_ChannelInit>
1000243c:	68b2      	ldr	r2, [r6, #8]
1000243e:	2a00      	cmp	r2, #0
10002440:	d005      	beq.n	1000244e <PMSM_FOC_Init+0xca>
10002442:	79fb      	ldrb	r3, [r7, #7]
10002444:	6812      	ldr	r2, [r2, #0]
10002446:	33a0      	adds	r3, #160	; 0xa0
10002448:	6c31      	ldr	r1, [r6, #64]	; 0x40
1000244a:	009b      	lsls	r3, r3, #2
1000244c:	505a      	str	r2, [r3, r1]
1000244e:	9b02      	ldr	r3, [sp, #8]
10002450:	3604      	adds	r6, #4
10002452:	3701      	adds	r7, #1
10002454:	429e      	cmp	r6, r3
10002456:	d1e0      	bne.n	1000241a <PMSM_FOC_Init+0x96>
10002458:	1c2b      	adds	r3, r5, #0
1000245a:	1c2f      	adds	r7, r5, #0
1000245c:	3308      	adds	r3, #8
1000245e:	3794      	adds	r7, #148	; 0x94
10002460:	9302      	str	r3, [sp, #8]
10002462:	783e      	ldrb	r6, [r7, #0]
10002464:	2e00      	cmp	r6, #0
10002466:	d10b      	bne.n	10002480 <PMSM_FOC_Init+0xfc>
10002468:	59a9      	ldr	r1, [r5, r6]
1000246a:	2900      	cmp	r1, #0
1000246c:	d002      	beq.n	10002474 <PMSM_FOC_Init+0xf0>
1000246e:	6ba8      	ldr	r0, [r5, #56]	; 0x38
10002470:	f000 fd20 	bl	10002eb4 <ADC_QUEUE_InsertQueueEntry>
10002474:	3608      	adds	r6, #8
10002476:	2e38      	cmp	r6, #56	; 0x38
10002478:	d1f6      	bne.n	10002468 <PMSM_FOC_Init+0xe4>
1000247a:	6ba8      	ldr	r0, [r5, #56]	; 0x38
1000247c:	f000 fd52 	bl	10002f24 <ADC_QUEUE_AllEntriesInserted>
10002480:	9b02      	ldr	r3, [sp, #8]
10002482:	3504      	adds	r5, #4
10002484:	3701      	adds	r7, #1
10002486:	429d      	cmp	r5, r3
10002488:	d1eb      	bne.n	10002462 <PMSM_FOC_Init+0xde>
1000248a:	2301      	movs	r3, #1
1000248c:	9a01      	ldr	r2, [sp, #4]
1000248e:	429a      	cmp	r2, r3
10002490:	d006      	beq.n	100024a0 <PMSM_FOC_Init+0x11c>
10002492:	9a03      	ldr	r2, [sp, #12]
10002494:	429a      	cmp	r2, r3
10002496:	d003      	beq.n	100024a0 <PMSM_FOC_Init+0x11c>
10002498:	34b6      	adds	r4, #182	; 0xb6
1000249a:	7023      	strb	r3, [r4, #0]
1000249c:	2300      	movs	r3, #0
1000249e:	e006      	b.n	100024ae <PMSM_FOC_Init+0x12a>
100024a0:	6c22      	ldr	r2, [r4, #64]	; 0x40
100024a2:	3430      	adds	r4, #48	; 0x30
100024a4:	4313      	orrs	r3, r2
100024a6:	6123      	str	r3, [r4, #16]
100024a8:	230f      	movs	r3, #15
100024aa:	7023      	strb	r3, [r4, #0]
100024ac:	3b0e      	subs	r3, #14
100024ae:	b2d8      	uxtb	r0, r3
100024b0:	b007      	add	sp, #28
100024b2:	bdf0      	pop	{r4, r5, r6, r7, pc}
100024b4:	0007fffe 	.word	0x0007fffe

100024b8 <PMSM_FOC_MotorParamInit>:
100024b8:	6843      	ldr	r3, [r0, #4]
100024ba:	b5f0      	push	{r4, r5, r6, r7, lr}
100024bc:	681a      	ldr	r2, [r3, #0]
100024be:	1c04      	adds	r4, r0, #0
100024c0:	6811      	ldr	r1, [r2, #0]
100024c2:	6852      	ldr	r2, [r2, #4]
100024c4:	6759      	str	r1, [r3, #116]	; 0x74
100024c6:	679a      	str	r2, [r3, #120]	; 0x78
100024c8:	1c02      	adds	r2, r0, #0
100024ca:	2101      	movs	r1, #1
100024cc:	2502      	movs	r5, #2
100024ce:	1c06      	adds	r6, r0, #0
100024d0:	34b7      	adds	r4, #183	; 0xb7
100024d2:	32b8      	adds	r2, #184	; 0xb8
100024d4:	7021      	strb	r1, [r4, #0]
100024d6:	36b2      	adds	r6, #178	; 0xb2
100024d8:	7015      	strb	r5, [r2, #0]
100024da:	7836      	ldrb	r6, [r6, #0]
100024dc:	b276      	sxtb	r6, r6
100024de:	3601      	adds	r6, #1
100024e0:	d106      	bne.n	100024f0 <PMSM_FOC_MotorParamInit+0x38>
100024e2:	681e      	ldr	r6, [r3, #0]
100024e4:	6877      	ldr	r7, [r6, #4]
100024e6:	6836      	ldr	r6, [r6, #0]
100024e8:	675f      	str	r7, [r3, #116]	; 0x74
100024ea:	679e      	str	r6, [r3, #120]	; 0x78
100024ec:	7025      	strb	r5, [r4, #0]
100024ee:	7011      	strb	r1, [r2, #0]
100024f0:	1c02      	adds	r2, r0, #0
100024f2:	2300      	movs	r3, #0
100024f4:	32a0      	adds	r2, #160	; 0xa0
100024f6:	6583      	str	r3, [r0, #88]	; 0x58
100024f8:	65c3      	str	r3, [r0, #92]	; 0x5c
100024fa:	6543      	str	r3, [r0, #84]	; 0x54
100024fc:	6443      	str	r3, [r0, #68]	; 0x44
100024fe:	3a04      	subs	r2, #4
10002500:	6053      	str	r3, [r2, #4]
10002502:	6643      	str	r3, [r0, #100]	; 0x64
10002504:	6783      	str	r3, [r0, #120]	; 0x78
10002506:	64c3      	str	r3, [r0, #76]	; 0x4c
10002508:	7613      	strb	r3, [r2, #24]
1000250a:	6812      	ldr	r2, [r2, #0]
1000250c:	6801      	ldr	r1, [r0, #0]
1000250e:	63c2      	str	r2, [r0, #60]	; 0x3c
10002510:	1c02      	adds	r2, r0, #0
10002512:	3288      	adds	r2, #136	; 0x88
10002514:	6a4c      	ldr	r4, [r1, #36]	; 0x24
10002516:	6812      	ldr	r2, [r2, #0]
10002518:	1d06      	adds	r6, r0, #4
1000251a:	4094      	lsls	r4, r2
1000251c:	67f4      	str	r4, [r6, #124]	; 0x7c
1000251e:	6a8c      	ldr	r4, [r1, #40]	; 0x28
10002520:	1c05      	adds	r5, r0, #0
10002522:	3a01      	subs	r2, #1
10002524:	4094      	lsls	r4, r2
10002526:	6a0a      	ldr	r2, [r1, #32]
10002528:	3508      	adds	r5, #8
1000252a:	67ec      	str	r4, [r5, #124]	; 0x7c
1000252c:	67c2      	str	r2, [r0, #124]	; 0x7c
1000252e:	6a82      	ldr	r2, [r0, #40]	; 0x28
10002530:	62d3      	str	r3, [r2, #44]	; 0x2c
10002532:	6313      	str	r3, [r2, #48]	; 0x30
10002534:	6353      	str	r3, [r2, #52]	; 0x34
10002536:	6a02      	ldr	r2, [r0, #32]
10002538:	6093      	str	r3, [r2, #8]
1000253a:	6a42      	ldr	r2, [r0, #36]	; 0x24
1000253c:	6093      	str	r3, [r2, #8]
1000253e:	6982      	ldr	r2, [r0, #24]
10002540:	6093      	str	r3, [r2, #8]
10002542:	69c2      	ldr	r2, [r0, #28]
10002544:	6093      	str	r3, [r2, #8]
10002546:	bdf0      	pop	{r4, r5, r6, r7, pc}

10002548 <PMSM_FOC_MotorStart>:
10002548:	b508      	push	{r3, lr}
1000254a:	1c03      	adds	r3, r0, #0
1000254c:	3330      	adds	r3, #48	; 0x30
1000254e:	781a      	ldrb	r2, [r3, #0]
10002550:	2a00      	cmp	r2, #0
10002552:	d103      	bne.n	1000255c <PMSM_FOC_MotorStart+0x14>
10002554:	3201      	adds	r2, #1
10002556:	701a      	strb	r2, [r3, #0]
10002558:	f006 fb6a 	bl	10008c30 <__PMSM_FOC_MSM_veneer>
1000255c:	bd08      	pop	{r3, pc}

1000255e <PMSM_FOC_MotorStop>:
1000255e:	b510      	push	{r4, lr}
10002560:	1c04      	adds	r4, r0, #0
10002562:	6840      	ldr	r0, [r0, #4]
10002564:	f7ff fe84 	bl	10002270 <PWM_SVM_Stop>
10002568:	2300      	movs	r3, #0
1000256a:	6563      	str	r3, [r4, #84]	; 0x54
1000256c:	1c23      	adds	r3, r4, #0
1000256e:	6c22      	ldr	r2, [r4, #64]	; 0x40
10002570:	3330      	adds	r3, #48	; 0x30
10002572:	2a00      	cmp	r2, #0
10002574:	d005      	beq.n	10002582 <PMSM_FOC_MotorStop+0x24>
10002576:	220f      	movs	r2, #15
10002578:	1c20      	adds	r0, r4, #0
1000257a:	701a      	strb	r2, [r3, #0]
1000257c:	f006 fb58 	bl	10008c30 <__PMSM_FOC_MSM_veneer>
10002580:	e000      	b.n	10002584 <PMSM_FOC_MotorStop+0x26>
10002582:	701a      	strb	r2, [r3, #0]
10002584:	bd10      	pop	{r4, pc}

10002586 <PMSM_FOC_AmpBiasVoltCalibration>:
10002586:	b57f      	push	{r0, r1, r2, r3, r4, r5, r6, lr}
10002588:	6802      	ldr	r2, [r0, #0]
1000258a:	2300      	movs	r3, #0
1000258c:	1c11      	adds	r1, r2, #0
1000258e:	3147      	adds	r1, #71	; 0x47
10002590:	7809      	ldrb	r1, [r1, #0]
10002592:	9301      	str	r3, [sp, #4]
10002594:	0789      	lsls	r1, r1, #30
10002596:	d52d      	bpl.n	100025f4 <PMSM_FOC_AmpBiasVoltCalibration+0x6e>
10002598:	3244      	adds	r2, #68	; 0x44
1000259a:	7812      	ldrb	r2, [r2, #0]
1000259c:	429a      	cmp	r2, r3
1000259e:	d100      	bne.n	100025a2 <PMSM_FOC_AmpBiasVoltCalibration+0x1c>
100025a0:	3303      	adds	r3, #3
100025a2:	2200      	movs	r2, #0
100025a4:	9202      	str	r2, [sp, #8]
100025a6:	9a02      	ldr	r2, [sp, #8]
100025a8:	2a0f      	cmp	r2, #15
100025aa:	d820      	bhi.n	100025ee <PMSM_FOC_AmpBiasVoltCalibration+0x68>
100025ac:	1c19      	adds	r1, r3, #0
100025ae:	6942      	ldr	r2, [r0, #20]
100025b0:	311e      	adds	r1, #30
100025b2:	0089      	lsls	r1, r1, #2
100025b4:	5889      	ldr	r1, [r1, r2]
100025b6:	2680      	movs	r6, #128	; 0x80
100025b8:	1c0d      	adds	r5, r1, #0
100025ba:	35fc      	adds	r5, #252	; 0xfc
100025bc:	68ac      	ldr	r4, [r5, #8]
100025be:	00b6      	lsls	r6, r6, #2
100025c0:	4334      	orrs	r4, r6
100025c2:	60ac      	str	r4, [r5, #8]
100025c4:	2400      	movs	r4, #0
100025c6:	9403      	str	r4, [sp, #12]
100025c8:	9c03      	ldr	r4, [sp, #12]
100025ca:	2cfe      	cmp	r4, #254	; 0xfe
100025cc:	d802      	bhi.n	100025d4 <PMSM_FOC_AmpBiasVoltCalibration+0x4e>
100025ce:	9c03      	ldr	r4, [sp, #12]
100025d0:	3401      	adds	r4, #1
100025d2:	e7f8      	b.n	100025c6 <PMSM_FOC_AmpBiasVoltCalibration+0x40>
100025d4:	18d2      	adds	r2, r2, r3
100025d6:	3298      	adds	r2, #152	; 0x98
100025d8:	7952      	ldrb	r2, [r2, #5]
100025da:	32c0      	adds	r2, #192	; 0xc0
100025dc:	0092      	lsls	r2, r2, #2
100025de:	5852      	ldr	r2, [r2, r1]
100025e0:	9901      	ldr	r1, [sp, #4]
100025e2:	b292      	uxth	r2, r2
100025e4:	1852      	adds	r2, r2, r1
100025e6:	9201      	str	r2, [sp, #4]
100025e8:	9a02      	ldr	r2, [sp, #8]
100025ea:	3201      	adds	r2, #1
100025ec:	e7da      	b.n	100025a4 <PMSM_FOC_AmpBiasVoltCalibration+0x1e>
100025ee:	9b01      	ldr	r3, [sp, #4]
100025f0:	091b      	lsrs	r3, r3, #4
100025f2:	e001      	b.n	100025f8 <PMSM_FOC_AmpBiasVoltCalibration+0x72>
100025f4:	8f93      	ldrh	r3, [r2, #60]	; 0x3c
100025f6:	089b      	lsrs	r3, r3, #2
100025f8:	30ac      	adds	r0, #172	; 0xac
100025fa:	8003      	strh	r3, [r0, #0]
100025fc:	bd7f      	pop	{r0, r1, r2, r3, r4, r5, r6, pc}
	...

10002600 <PMSM_FOC_StartPWMTimer>:
10002600:	b537      	push	{r0, r1, r2, r4, r5, lr}
10002602:	466b      	mov	r3, sp
10002604:	1ddc      	adds	r4, r3, #7
10002606:	2300      	movs	r3, #0
10002608:	6845      	ldr	r5, [r0, #4]
1000260a:	7023      	strb	r3, [r4, #0]
1000260c:	7823      	ldrb	r3, [r4, #0]
1000260e:	2b03      	cmp	r3, #3
10002610:	d80c      	bhi.n	1000262c <PMSM_FOC_StartPWMTimer+0x2c>
10002612:	2101      	movs	r1, #1
10002614:	7823      	ldrb	r3, [r4, #0]
10002616:	1c0a      	adds	r2, r1, #0
10002618:	3302      	adds	r3, #2
1000261a:	009b      	lsls	r3, r3, #2
1000261c:	595b      	ldr	r3, [r3, r5]
1000261e:	6818      	ldr	r0, [r3, #0]
10002620:	f7fe ff1c 	bl	1000145c <XMC_CCU8_SLICE_StartConfig>
10002624:	7823      	ldrb	r3, [r4, #0]
10002626:	3301      	adds	r3, #1
10002628:	b2db      	uxtb	r3, r3
1000262a:	e7ee      	b.n	1000260a <PMSM_FOC_StartPWMTimer+0xa>
1000262c:	4a0c      	ldr	r2, [pc, #48]	; (10002660 <PMSM_FOC_StartPWMTimer+0x60>)
1000262e:	682b      	ldr	r3, [r5, #0]
10002630:	6b11      	ldr	r1, [r2, #48]	; 0x30
10002632:	6a1b      	ldr	r3, [r3, #32]
10002634:	430b      	orrs	r3, r1
10002636:	6313      	str	r3, [r2, #48]	; 0x30
10002638:	2300      	movs	r3, #0
1000263a:	7023      	strb	r3, [r4, #0]
1000263c:	7823      	ldrb	r3, [r4, #0]
1000263e:	2b03      	cmp	r3, #3
10002640:	d80c      	bhi.n	1000265c <PMSM_FOC_StartPWMTimer+0x5c>
10002642:	7823      	ldrb	r3, [r4, #0]
10002644:	2100      	movs	r1, #0
10002646:	3302      	adds	r3, #2
10002648:	009b      	lsls	r3, r3, #2
1000264a:	595b      	ldr	r3, [r3, r5]
1000264c:	2201      	movs	r2, #1
1000264e:	6818      	ldr	r0, [r3, #0]
10002650:	f7fe ff04 	bl	1000145c <XMC_CCU8_SLICE_StartConfig>
10002654:	7823      	ldrb	r3, [r4, #0]
10002656:	3301      	adds	r3, #1
10002658:	b2db      	uxtb	r3, r3
1000265a:	e7ee      	b.n	1000263a <PMSM_FOC_StartPWMTimer+0x3a>
1000265c:	bd37      	pop	{r0, r1, r2, r4, r5, pc}
1000265e:	46c0      	nop			; (mov r8, r8)
10002660:	40010000 	.word	0x40010000

10002664 <PMSM_FOC_StopPWMTimer>:
10002664:	6841      	ldr	r1, [r0, #4]
10002666:	4a03      	ldr	r2, [pc, #12]	; (10002674 <PMSM_FOC_StopPWMTimer+0x10>)
10002668:	6809      	ldr	r1, [r1, #0]
1000266a:	6b13      	ldr	r3, [r2, #48]	; 0x30
1000266c:	6a09      	ldr	r1, [r1, #32]
1000266e:	438b      	bics	r3, r1
10002670:	6313      	str	r3, [r2, #48]	; 0x30
10002672:	4770      	bx	lr
10002674:	40010000 	.word	0x40010000

10002678 <PMSM_FOC_BootstrapConfiguration>:
10002678:	b573      	push	{r0, r1, r4, r5, r6, lr}
1000267a:	466b      	mov	r3, sp
1000267c:	1c06      	adds	r6, r0, #0
1000267e:	1ddc      	adds	r4, r3, #7
10002680:	2300      	movs	r3, #0
10002682:	6845      	ldr	r5, [r0, #4]
10002684:	7023      	strb	r3, [r4, #0]
10002686:	7823      	ldrb	r3, [r4, #0]
10002688:	2b02      	cmp	r3, #2
1000268a:	d816      	bhi.n	100026ba <PMSM_FOC_BootstrapConfiguration+0x42>
1000268c:	7823      	ldrb	r3, [r4, #0]
1000268e:	2100      	movs	r1, #0
10002690:	3302      	adds	r3, #2
10002692:	009b      	lsls	r3, r3, #2
10002694:	595b      	ldr	r3, [r3, r5]
10002696:	4a0b      	ldr	r2, [pc, #44]	; (100026c4 <PMSM_FOC_BootstrapConfiguration+0x4c>)
10002698:	6818      	ldr	r0, [r3, #0]
1000269a:	f7fe ff3e 	bl	1000151a <XMC_CCU8_SLICE_SetTimerCompareMatch>
1000269e:	2101      	movs	r1, #1
100026a0:	7823      	ldrb	r3, [r4, #0]
100026a2:	6872      	ldr	r2, [r6, #4]
100026a4:	3302      	adds	r3, #2
100026a6:	009b      	lsls	r3, r3, #2
100026a8:	589b      	ldr	r3, [r3, r2]
100026aa:	681a      	ldr	r2, [r3, #0]
100026ac:	6c93      	ldr	r3, [r2, #72]	; 0x48
100026ae:	438b      	bics	r3, r1
100026b0:	6493      	str	r3, [r2, #72]	; 0x48
100026b2:	7823      	ldrb	r3, [r4, #0]
100026b4:	185b      	adds	r3, r3, r1
100026b6:	b2db      	uxtb	r3, r3
100026b8:	e7e4      	b.n	10002684 <PMSM_FOC_BootstrapConfiguration+0xc>
100026ba:	cd0c      	ldmia	r5!, {r2, r3}
100026bc:	6a52      	ldr	r2, [r2, #36]	; 0x24
100026be:	611a      	str	r2, [r3, #16]
100026c0:	bd73      	pop	{r0, r1, r4, r5, r6, pc}
100026c2:	46c0      	nop			; (mov r8, r8)
100026c4:	0000ffff 	.word	0x0000ffff

100026c8 <PMSM_FOC_Bootstrap>:
100026c8:	b510      	push	{r4, lr}
100026ca:	1c04      	adds	r4, r0, #0
100026cc:	6c41      	ldr	r1, [r0, #68]	; 0x44
100026ce:	6c80      	ldr	r0, [r0, #72]	; 0x48
100026d0:	6863      	ldr	r3, [r4, #4]
100026d2:	4281      	cmp	r1, r0
100026d4:	d20a      	bcs.n	100026ec <PMSM_FOC_Bootstrap+0x24>
100026d6:	689b      	ldr	r3, [r3, #8]
100026d8:	4927      	ldr	r1, [pc, #156]	; (10002778 <PMSM_FOC_Bootstrap+0xb0>)
100026da:	6818      	ldr	r0, [r3, #0]
100026dc:	f7fe feb7 	bl	1000144e <XMC_CCU8_SLICE_SetOutPath>
100026e0:	21f0      	movs	r1, #240	; 0xf0
100026e2:	6863      	ldr	r3, [r4, #4]
100026e4:	0349      	lsls	r1, r1, #13
100026e6:	68db      	ldr	r3, [r3, #12]
100026e8:	6818      	ldr	r0, [r3, #0]
100026ea:	e00c      	b.n	10002706 <PMSM_FOC_Bootstrap+0x3e>
100026ec:	0042      	lsls	r2, r0, #1
100026ee:	4291      	cmp	r1, r2
100026f0:	d214      	bcs.n	1000271c <PMSM_FOC_Bootstrap+0x54>
100026f2:	21f0      	movs	r1, #240	; 0xf0
100026f4:	689b      	ldr	r3, [r3, #8]
100026f6:	0349      	lsls	r1, r1, #13
100026f8:	6818      	ldr	r0, [r3, #0]
100026fa:	f7fe fea8 	bl	1000144e <XMC_CCU8_SLICE_SetOutPath>
100026fe:	6863      	ldr	r3, [r4, #4]
10002700:	491d      	ldr	r1, [pc, #116]	; (10002778 <PMSM_FOC_Bootstrap+0xb0>)
10002702:	68db      	ldr	r3, [r3, #12]
10002704:	6818      	ldr	r0, [r3, #0]
10002706:	f7fe fea2 	bl	1000144e <XMC_CCU8_SLICE_SetOutPath>
1000270a:	21f0      	movs	r1, #240	; 0xf0
1000270c:	6863      	ldr	r3, [r4, #4]
1000270e:	0349      	lsls	r1, r1, #13
10002710:	691b      	ldr	r3, [r3, #16]
10002712:	6818      	ldr	r0, [r3, #0]
10002714:	f7fe fe9b 	bl	1000144e <XMC_CCU8_SLICE_SetOutPath>
10002718:	2000      	movs	r0, #0
1000271a:	e028      	b.n	1000276e <PMSM_FOC_Bootstrap+0xa6>
1000271c:	2203      	movs	r2, #3
1000271e:	4342      	muls	r2, r0
10002720:	689b      	ldr	r3, [r3, #8]
10002722:	6818      	ldr	r0, [r3, #0]
10002724:	4291      	cmp	r1, r2
10002726:	d20f      	bcs.n	10002748 <PMSM_FOC_Bootstrap+0x80>
10002728:	21f0      	movs	r1, #240	; 0xf0
1000272a:	0349      	lsls	r1, r1, #13
1000272c:	f7fe fe8f 	bl	1000144e <XMC_CCU8_SLICE_SetOutPath>
10002730:	21f0      	movs	r1, #240	; 0xf0
10002732:	6863      	ldr	r3, [r4, #4]
10002734:	0349      	lsls	r1, r1, #13
10002736:	68db      	ldr	r3, [r3, #12]
10002738:	6818      	ldr	r0, [r3, #0]
1000273a:	f7fe fe88 	bl	1000144e <XMC_CCU8_SLICE_SetOutPath>
1000273e:	6863      	ldr	r3, [r4, #4]
10002740:	490d      	ldr	r1, [pc, #52]	; (10002778 <PMSM_FOC_Bootstrap+0xb0>)
10002742:	691b      	ldr	r3, [r3, #16]
10002744:	6818      	ldr	r0, [r3, #0]
10002746:	e7e5      	b.n	10002714 <PMSM_FOC_Bootstrap+0x4c>
10002748:	21f0      	movs	r1, #240	; 0xf0
1000274a:	0349      	lsls	r1, r1, #13
1000274c:	f7fe fe7f 	bl	1000144e <XMC_CCU8_SLICE_SetOutPath>
10002750:	21f0      	movs	r1, #240	; 0xf0
10002752:	6863      	ldr	r3, [r4, #4]
10002754:	0349      	lsls	r1, r1, #13
10002756:	68db      	ldr	r3, [r3, #12]
10002758:	6818      	ldr	r0, [r3, #0]
1000275a:	f7fe fe78 	bl	1000144e <XMC_CCU8_SLICE_SetOutPath>
1000275e:	21f0      	movs	r1, #240	; 0xf0
10002760:	6863      	ldr	r3, [r4, #4]
10002762:	0349      	lsls	r1, r1, #13
10002764:	691b      	ldr	r3, [r3, #16]
10002766:	6818      	ldr	r0, [r3, #0]
10002768:	f7fe fe71 	bl	1000144e <XMC_CCU8_SLICE_SetOutPath>
1000276c:	2001      	movs	r0, #1
1000276e:	6c63      	ldr	r3, [r4, #68]	; 0x44
10002770:	3301      	adds	r3, #1
10002772:	6463      	str	r3, [r4, #68]	; 0x44
10002774:	bd10      	pop	{r4, pc}
10002776:	46c0      	nop			; (mov r8, r8)
10002778:	001e0014 	.word	0x001e0014

1000277c <PMSM_FOC_Vf_Open_Loop>:
1000277c:	b5f0      	push	{r4, r5, r6, r7, lr}
1000277e:	6a84      	ldr	r4, [r0, #40]	; 0x28
10002780:	6ac1      	ldr	r1, [r0, #44]	; 0x2c
10002782:	6b22      	ldr	r2, [r4, #48]	; 0x30
10002784:	6b66      	ldr	r6, [r4, #52]	; 0x34
10002786:	6ae3      	ldr	r3, [r4, #44]	; 0x2c
10002788:	1995      	adds	r5, r2, r6
1000278a:	005b      	lsls	r3, r3, #1
1000278c:	1b5b      	subs	r3, r3, r5
1000278e:	4d24      	ldr	r5, [pc, #144]	; (10002820 <PMSM_FOC_Vf_Open_Loop+0xa4>)
10002790:	1b92      	subs	r2, r2, r6
10002792:	436b      	muls	r3, r5
10002794:	600b      	str	r3, [r1, #0]
10002796:	4b23      	ldr	r3, [pc, #140]	; (10002824 <PMSM_FOC_Vf_Open_Loop+0xa8>)
10002798:	6b85      	ldr	r5, [r0, #56]	; 0x38
1000279a:	435a      	muls	r2, r3
1000279c:	6bc3      	ldr	r3, [r0, #60]	; 0x3c
1000279e:	604a      	str	r2, [r1, #4]
100027a0:	42ab      	cmp	r3, r5
100027a2:	d016      	beq.n	100027d2 <PMSM_FOC_Vf_Open_Loop+0x56>
100027a4:	6f82      	ldr	r2, [r0, #120]	; 0x78
100027a6:	6fc1      	ldr	r1, [r0, #124]	; 0x7c
100027a8:	3201      	adds	r2, #1
100027aa:	6782      	str	r2, [r0, #120]	; 0x78
100027ac:	42ab      	cmp	r3, r5
100027ae:	da09      	bge.n	100027c4 <PMSM_FOC_Vf_Open_Loop+0x48>
100027b0:	428a      	cmp	r2, r1
100027b2:	d915      	bls.n	100027e0 <PMSM_FOC_Vf_Open_Loop+0x64>
100027b4:	6802      	ldr	r2, [r0, #0]
100027b6:	6a12      	ldr	r2, [r2, #32]
100027b8:	4291      	cmp	r1, r2
100027ba:	d901      	bls.n	100027c0 <PMSM_FOC_Vf_Open_Loop+0x44>
100027bc:	3901      	subs	r1, #1
100027be:	67c1      	str	r1, [r0, #124]	; 0x7c
100027c0:	3301      	adds	r3, #1
100027c2:	e002      	b.n	100027ca <PMSM_FOC_Vf_Open_Loop+0x4e>
100027c4:	428a      	cmp	r2, r1
100027c6:	d90b      	bls.n	100027e0 <PMSM_FOC_Vf_Open_Loop+0x64>
100027c8:	3b01      	subs	r3, #1
100027ca:	63c3      	str	r3, [r0, #60]	; 0x3c
100027cc:	2300      	movs	r3, #0
100027ce:	6783      	str	r3, [r0, #120]	; 0x78
100027d0:	e006      	b.n	100027e0 <PMSM_FOC_Vf_Open_Loop+0x64>
100027d2:	1c02      	adds	r2, r0, #0
100027d4:	6803      	ldr	r3, [r0, #0]
100027d6:	3288      	adds	r2, #136	; 0x88
100027d8:	6a1b      	ldr	r3, [r3, #32]
100027da:	6812      	ldr	r2, [r2, #0]
100027dc:	4093      	lsls	r3, r2
100027de:	67c3      	str	r3, [r0, #124]	; 0x7c
100027e0:	6bc5      	ldr	r5, [r0, #60]	; 0x3c
100027e2:	8923      	ldrh	r3, [r4, #8]
100027e4:	1c2c      	adds	r4, r5, #0
100027e6:	40dc      	lsrs	r4, r3
100027e8:	68c2      	ldr	r2, [r0, #12]
100027ea:	1c06      	adds	r6, r0, #0
100027ec:	6811      	ldr	r1, [r2, #0]
100027ee:	3698      	adds	r6, #152	; 0x98
100027f0:	434c      	muls	r4, r1
100027f2:	6851      	ldr	r1, [r2, #4]
100027f4:	1c02      	adds	r2, r0, #0
100027f6:	6837      	ldr	r7, [r6, #0]
100027f8:	3294      	adds	r2, #148	; 0x94
100027fa:	6017      	str	r7, [r2, #0]
100027fc:	2210      	movs	r2, #16
100027fe:	1ad3      	subs	r3, r2, r3
10002800:	1c2a      	adds	r2, r5, #0
10002802:	409a      	lsls	r2, r3
10002804:	18bb      	adds	r3, r7, r2
10002806:	6033      	str	r3, [r6, #0]
10002808:	4a07      	ldr	r2, [pc, #28]	; (10002828 <PMSM_FOC_Vf_Open_Loop+0xac>)
1000280a:	121b      	asrs	r3, r3, #8
1000280c:	6583      	str	r3, [r0, #88]	; 0x58
1000280e:	1863      	adds	r3, r4, r1
10002810:	6545      	str	r5, [r0, #84]	; 0x54
10002812:	4293      	cmp	r3, r2
10002814:	d900      	bls.n	10002818 <PMSM_FOC_Vf_Open_Loop+0x9c>
10002816:	1c13      	adds	r3, r2, #0
10002818:	085b      	lsrs	r3, r3, #1
1000281a:	65c3      	str	r3, [r0, #92]	; 0x5c
1000281c:	bdf0      	pop	{r4, r5, r6, r7, pc}
1000281e:	46c0      	nop			; (mov r8, r8)
10002820:	00001555 	.word	0x00001555
10002824:	000024f0 	.word	0x000024f0
10002828:	00007fff 	.word	0x00007fff

1000282c <PMSM_FOC_Controller_Init_OnceOnly>:
1000282c:	1c02      	adds	r2, r0, #0
1000282e:	3298      	adds	r2, #152	; 0x98
10002830:	6a83      	ldr	r3, [r0, #40]	; 0x28
10002832:	6812      	ldr	r2, [r2, #0]
10002834:	b510      	push	{r4, lr}
10002836:	629a      	str	r2, [r3, #40]	; 0x28
10002838:	1c02      	adds	r2, r0, #0
1000283a:	3290      	adds	r2, #144	; 0x90
1000283c:	6812      	ldr	r2, [r2, #0]
1000283e:	6a41      	ldr	r1, [r0, #36]	; 0x24
10002840:	625a      	str	r2, [r3, #36]	; 0x24
10002842:	6d42      	ldr	r2, [r0, #84]	; 0x54
10002844:	655a      	str	r2, [r3, #84]	; 0x54
10002846:	639a      	str	r2, [r3, #56]	; 0x38
10002848:	2410      	movs	r4, #16
1000284a:	5f08      	ldrsh	r0, [r1, r4]
1000284c:	336e      	adds	r3, #110	; 0x6e
1000284e:	4082      	lsls	r2, r0
10002850:	608a      	str	r2, [r1, #8]
10002852:	2200      	movs	r2, #0
10002854:	801a      	strh	r2, [r3, #0]
10002856:	bd10      	pop	{r4, pc}

10002858 <PMSM_FOC_Vf_RampUp>:
10002858:	b5f7      	push	{r0, r1, r2, r4, r5, r6, r7, lr}
1000285a:	6a81      	ldr	r1, [r0, #40]	; 0x28
1000285c:	6ac4      	ldr	r4, [r0, #44]	; 0x2c
1000285e:	6b0a      	ldr	r2, [r1, #48]	; 0x30
10002860:	6b4e      	ldr	r6, [r1, #52]	; 0x34
10002862:	6acb      	ldr	r3, [r1, #44]	; 0x2c
10002864:	1995      	adds	r5, r2, r6
10002866:	005b      	lsls	r3, r3, #1
10002868:	1b5b      	subs	r3, r3, r5
1000286a:	4d4c      	ldr	r5, [pc, #304]	; (1000299c <PMSM_FOC_Vf_RampUp+0x144>)
1000286c:	1b92      	subs	r2, r2, r6
1000286e:	436b      	muls	r3, r5
10002870:	6023      	str	r3, [r4, #0]
10002872:	4b4b      	ldr	r3, [pc, #300]	; (100029a0 <PMSM_FOC_Vf_RampUp+0x148>)
10002874:	435a      	muls	r2, r3
10002876:	6e43      	ldr	r3, [r0, #100]	; 0x64
10002878:	6062      	str	r2, [r4, #4]
1000287a:	6e82      	ldr	r2, [r0, #104]	; 0x68
1000287c:	3301      	adds	r3, #1
1000287e:	6643      	str	r3, [r0, #100]	; 0x64
10002880:	4293      	cmp	r3, r2
10002882:	d200      	bcs.n	10002886 <PMSM_FOC_Vf_RampUp+0x2e>
10002884:	e089      	b.n	1000299a <PMSM_FOC_Vf_RampUp+0x142>
10002886:	1c04      	adds	r4, r0, #0
10002888:	890b      	ldrh	r3, [r1, #8]
1000288a:	6be2      	ldr	r2, [r4, #60]	; 0x3c
1000288c:	469c      	mov	ip, r3
1000288e:	1c13      	adds	r3, r2, #0
10002890:	4665      	mov	r5, ip
10002892:	40eb      	lsrs	r3, r5
10002894:	68c0      	ldr	r0, [r0, #12]
10002896:	4667      	mov	r7, ip
10002898:	6805      	ldr	r5, [r0, #0]
1000289a:	436b      	muls	r3, r5
1000289c:	6845      	ldr	r5, [r0, #4]
1000289e:	195b      	adds	r3, r3, r5
100028a0:	1c25      	adds	r5, r4, #0
100028a2:	9301      	str	r3, [sp, #4]
100028a4:	1c23      	adds	r3, r4, #0
100028a6:	3598      	adds	r5, #152	; 0x98
100028a8:	682e      	ldr	r6, [r5, #0]
100028aa:	3394      	adds	r3, #148	; 0x94
100028ac:	601e      	str	r6, [r3, #0]
100028ae:	2310      	movs	r3, #16
100028b0:	1bdb      	subs	r3, r3, r7
100028b2:	1c17      	adds	r7, r2, #0
100028b4:	409f      	lsls	r7, r3
100028b6:	19f3      	adds	r3, r6, r7
100028b8:	1c26      	adds	r6, r4, #0
100028ba:	602b      	str	r3, [r5, #0]
100028bc:	121b      	asrs	r3, r3, #8
100028be:	65a3      	str	r3, [r4, #88]	; 0x58
100028c0:	36b4      	adds	r6, #180	; 0xb4
100028c2:	7833      	ldrb	r3, [r6, #0]
100028c4:	2b00      	cmp	r3, #0
100028c6:	d11f      	bne.n	10002908 <PMSM_FOC_Vf_RampUp+0xb0>
100028c8:	6881      	ldr	r1, [r0, #8]
100028ca:	428a      	cmp	r2, r1
100028cc:	da10      	bge.n	100028f0 <PMSM_FOC_Vf_RampUp+0x98>
100028ce:	6fa3      	ldr	r3, [r4, #120]	; 0x78
100028d0:	1c59      	adds	r1, r3, #1
100028d2:	6fe3      	ldr	r3, [r4, #124]	; 0x7c
100028d4:	67a1      	str	r1, [r4, #120]	; 0x78
100028d6:	4299      	cmp	r1, r3
100028d8:	d94b      	bls.n	10002972 <PMSM_FOC_Vf_RampUp+0x11a>
100028da:	6821      	ldr	r1, [r4, #0]
100028dc:	6a09      	ldr	r1, [r1, #32]
100028de:	428b      	cmp	r3, r1
100028e0:	d901      	bls.n	100028e6 <PMSM_FOC_Vf_RampUp+0x8e>
100028e2:	3b01      	subs	r3, #1
100028e4:	67e3      	str	r3, [r4, #124]	; 0x7c
100028e6:	2300      	movs	r3, #0
100028e8:	3201      	adds	r2, #1
100028ea:	63e2      	str	r2, [r4, #60]	; 0x3c
100028ec:	67a3      	str	r3, [r4, #120]	; 0x78
100028ee:	e040      	b.n	10002972 <PMSM_FOC_Vf_RampUp+0x11a>
100028f0:	1c21      	adds	r1, r4, #0
100028f2:	31a0      	adds	r1, #160	; 0xa0
100028f4:	680a      	ldr	r2, [r1, #0]
100028f6:	68c0      	ldr	r0, [r0, #12]
100028f8:	3201      	adds	r2, #1
100028fa:	600a      	str	r2, [r1, #0]
100028fc:	4282      	cmp	r2, r0
100028fe:	d938      	bls.n	10002972 <PMSM_FOC_Vf_RampUp+0x11a>
10002900:	2201      	movs	r2, #1
10002902:	7032      	strb	r2, [r6, #0]
10002904:	600b      	str	r3, [r1, #0]
10002906:	e034      	b.n	10002972 <PMSM_FOC_Vf_RampUp+0x11a>
10002908:	1c27      	adds	r7, r4, #0
1000290a:	2304      	movs	r3, #4
1000290c:	3730      	adds	r7, #48	; 0x30
1000290e:	703b      	strb	r3, [r7, #0]
10002910:	2300      	movs	r3, #0
10002912:	4660      	mov	r0, ip
10002914:	61cb      	str	r3, [r1, #28]
10002916:	620b      	str	r3, [r1, #32]
10002918:	8a8b      	ldrh	r3, [r1, #20]
1000291a:	4353      	muls	r3, r2
1000291c:	40c3      	lsrs	r3, r0
1000291e:	610b      	str	r3, [r1, #16]
10002920:	6823      	ldr	r3, [r4, #0]
10002922:	3348      	adds	r3, #72	; 0x48
10002924:	7819      	ldrb	r1, [r3, #0]
10002926:	2301      	movs	r3, #1
10002928:	400b      	ands	r3, r1
1000292a:	d10d      	bne.n	10002948 <PMSM_FOC_Vf_RampUp+0xf0>
1000292c:	2105      	movs	r1, #5
1000292e:	7039      	strb	r1, [r7, #0]
10002930:	6a61      	ldr	r1, [r4, #36]	; 0x24
10002932:	9801      	ldr	r0, [sp, #4]
10002934:	604a      	str	r2, [r1, #4]
10002936:	69e1      	ldr	r1, [r4, #28]
10002938:	8a0a      	ldrh	r2, [r1, #16]
1000293a:	4090      	lsls	r0, r2
1000293c:	6a22      	ldr	r2, [r4, #32]
1000293e:	6088      	str	r0, [r1, #8]
10002940:	6093      	str	r3, [r2, #8]
10002942:	1c20      	adds	r0, r4, #0
10002944:	f7ff ff72 	bl	1000282c <PMSM_FOC_Controller_Init_OnceOnly>
10002948:	6821      	ldr	r1, [r4, #0]
1000294a:	1c0b      	adds	r3, r1, #0
1000294c:	3348      	adds	r3, #72	; 0x48
1000294e:	781b      	ldrb	r3, [r3, #0]
10002950:	079b      	lsls	r3, r3, #30
10002952:	d501      	bpl.n	10002958 <PMSM_FOC_Vf_RampUp+0x100>
10002954:	230c      	movs	r3, #12
10002956:	703b      	strb	r3, [r7, #0]
10002958:	1c22      	adds	r2, r4, #0
1000295a:	2300      	movs	r3, #0
1000295c:	32a0      	adds	r2, #160	; 0xa0
1000295e:	6013      	str	r3, [r2, #0]
10002960:	67a3      	str	r3, [r4, #120]	; 0x78
10002962:	6663      	str	r3, [r4, #100]	; 0x64
10002964:	3a18      	subs	r2, #24
10002966:	7033      	strb	r3, [r6, #0]
10002968:	6a4b      	ldr	r3, [r1, #36]	; 0x24
1000296a:	6812      	ldr	r2, [r2, #0]
1000296c:	1d20      	adds	r0, r4, #4
1000296e:	4093      	lsls	r3, r2
10002970:	67c3      	str	r3, [r0, #124]	; 0x7c
10002972:	1c22      	adds	r2, r4, #0
10002974:	1c21      	adds	r1, r4, #0
10002976:	9b01      	ldr	r3, [sp, #4]
10002978:	3290      	adds	r2, #144	; 0x90
1000297a:	6810      	ldr	r0, [r2, #0]
1000297c:	085b      	lsrs	r3, r3, #1
1000297e:	65e3      	str	r3, [r4, #92]	; 0x5c
10002980:	318c      	adds	r1, #140	; 0x8c
10002982:	03db      	lsls	r3, r3, #15
10002984:	6008      	str	r0, [r1, #0]
10002986:	6013      	str	r3, [r2, #0]
10002988:	6aa3      	ldr	r3, [r4, #40]	; 0x28
1000298a:	682a      	ldr	r2, [r5, #0]
1000298c:	1c20      	adds	r0, r4, #0
1000298e:	629a      	str	r2, [r3, #40]	; 0x28
10002990:	6be1      	ldr	r1, [r4, #60]	; 0x3c
10002992:	f000 fb37 	bl	10003004 <Init_Smooth_Transition_To_FOC>
10002996:	6be3      	ldr	r3, [r4, #60]	; 0x3c
10002998:	6563      	str	r3, [r4, #84]	; 0x54
1000299a:	bdf7      	pop	{r0, r1, r2, r4, r5, r6, r7, pc}
1000299c:	00001555 	.word	0x00001555
100029a0:	000024f0 	.word	0x000024f0

100029a4 <PMSM_FOC_Transition_to_FOC>:
100029a4:	1c03      	adds	r3, r0, #0
100029a6:	2205      	movs	r2, #5
100029a8:	b510      	push	{r4, lr}
100029aa:	1c04      	adds	r4, r0, #0
100029ac:	3330      	adds	r3, #48	; 0x30
100029ae:	701a      	strb	r2, [r3, #0]
100029b0:	f000 fbf6 	bl	100031a0 <Init_FOC_RotorAngle>
100029b4:	1c20      	adds	r0, r4, #0
100029b6:	f000 fc03 	bl	100031c0 <Init_FOC_PI_Iks>
100029ba:	6be3      	ldr	r3, [r4, #60]	; 0x3c
100029bc:	6a62      	ldr	r2, [r4, #36]	; 0x24
100029be:	1c20      	adds	r0, r4, #0
100029c0:	6053      	str	r3, [r2, #4]
100029c2:	6aa2      	ldr	r2, [r4, #40]	; 0x28
100029c4:	6393      	str	r3, [r2, #56]	; 0x38
100029c6:	f7ff ff31 	bl	1000282c <PMSM_FOC_Controller_Init_OnceOnly>
100029ca:	1c22      	adds	r2, r4, #0
100029cc:	2300      	movs	r3, #0
100029ce:	32b4      	adds	r2, #180	; 0xb4
100029d0:	7013      	strb	r3, [r2, #0]
100029d2:	3a14      	subs	r2, #20
100029d4:	6013      	str	r3, [r2, #0]
100029d6:	67a3      	str	r3, [r4, #120]	; 0x78
100029d8:	bd10      	pop	{r4, pc}

100029da <PMSM_FOC_METTransition>:
100029da:	1c01      	adds	r1, r0, #0
100029dc:	b538      	push	{r3, r4, r5, lr}
100029de:	31b4      	adds	r1, #180	; 0xb4
100029e0:	780c      	ldrb	r4, [r1, #0]
100029e2:	2c00      	cmp	r4, #0
100029e4:	d117      	bne.n	10002a16 <PMSM_FOC_METTransition+0x3c>
100029e6:	68c3      	ldr	r3, [r0, #12]
100029e8:	6bc2      	ldr	r2, [r0, #60]	; 0x3c
100029ea:	689d      	ldr	r5, [r3, #8]
100029ec:	6f83      	ldr	r3, [r0, #120]	; 0x78
100029ee:	3301      	adds	r3, #1
100029f0:	6783      	str	r3, [r0, #120]	; 0x78
100029f2:	42aa      	cmp	r2, r5
100029f4:	da07      	bge.n	10002a06 <PMSM_FOC_METTransition+0x2c>
100029f6:	1d01      	adds	r1, r0, #4
100029f8:	6fc9      	ldr	r1, [r1, #124]	; 0x7c
100029fa:	428b      	cmp	r3, r1
100029fc:	d90d      	bls.n	10002a1a <PMSM_FOC_METTransition+0x40>
100029fe:	3201      	adds	r2, #1
10002a00:	63c2      	str	r2, [r0, #60]	; 0x3c
10002a02:	6784      	str	r4, [r0, #120]	; 0x78
10002a04:	e009      	b.n	10002a1a <PMSM_FOC_METTransition+0x40>
10002a06:	6f42      	ldr	r2, [r0, #116]	; 0x74
10002a08:	4293      	cmp	r3, r2
10002a0a:	d906      	bls.n	10002a1a <PMSM_FOC_METTransition+0x40>
10002a0c:	2301      	movs	r3, #1
10002a0e:	30a0      	adds	r0, #160	; 0xa0
10002a10:	700b      	strb	r3, [r1, #0]
10002a12:	6004      	str	r4, [r0, #0]
10002a14:	e001      	b.n	10002a1a <PMSM_FOC_METTransition+0x40>
10002a16:	f7ff ffc5 	bl	100029a4 <PMSM_FOC_Transition_to_FOC>
10002a1a:	bd38      	pop	{r3, r4, r5, pc}

10002a1c <PMSM_FOC_Rotor_Pre_Positioning>:
10002a1c:	b5f8      	push	{r3, r4, r5, r6, r7, lr}
10002a1e:	1c04      	adds	r4, r0, #0
10002a20:	6a83      	ldr	r3, [r0, #40]	; 0x28
10002a22:	6ac1      	ldr	r1, [r0, #44]	; 0x2c
10002a24:	6b5d      	ldr	r5, [r3, #52]	; 0x34
10002a26:	6b1a      	ldr	r2, [r3, #48]	; 0x30
10002a28:	6adb      	ldr	r3, [r3, #44]	; 0x2c
10002a2a:	1950      	adds	r0, r2, r5
10002a2c:	005b      	lsls	r3, r3, #1
10002a2e:	1a1b      	subs	r3, r3, r0
10002a30:	481b      	ldr	r0, [pc, #108]	; (10002aa0 <PMSM_FOC_Rotor_Pre_Positioning+0x84>)
10002a32:	1b52      	subs	r2, r2, r5
10002a34:	4343      	muls	r3, r0
10002a36:	600b      	str	r3, [r1, #0]
10002a38:	4b1a      	ldr	r3, [pc, #104]	; (10002aa4 <PMSM_FOC_Rotor_Pre_Positioning+0x88>)
10002a3a:	1c25      	adds	r5, r4, #0
10002a3c:	435a      	muls	r2, r3
10002a3e:	2305      	movs	r3, #5
10002a40:	3530      	adds	r5, #48	; 0x30
10002a42:	604a      	str	r2, [r1, #4]
10002a44:	702b      	strb	r3, [r5, #0]
10002a46:	1c23      	adds	r3, r4, #0
10002a48:	2200      	movs	r2, #0
10002a4a:	33b4      	adds	r3, #180	; 0xb4
10002a4c:	701a      	strb	r2, [r3, #0]
10002a4e:	6d61      	ldr	r1, [r4, #84]	; 0x54
10002a50:	6a63      	ldr	r3, [r4, #36]	; 0x24
10002a52:	6662      	str	r2, [r4, #100]	; 0x64
10002a54:	6059      	str	r1, [r3, #4]
10002a56:	6de3      	ldr	r3, [r4, #92]	; 0x5c
10002a58:	69e6      	ldr	r6, [r4, #28]
10002a5a:	1c1f      	adds	r7, r3, #0
10002a5c:	8a30      	ldrh	r0, [r6, #16]
10002a5e:	4087      	lsls	r7, r0
10002a60:	6a20      	ldr	r0, [r4, #32]
10002a62:	60b7      	str	r7, [r6, #8]
10002a64:	6082      	str	r2, [r0, #8]
10002a66:	6820      	ldr	r0, [r4, #0]
10002a68:	1c02      	adds	r2, r0, #0
10002a6a:	3247      	adds	r2, #71	; 0x47
10002a6c:	7812      	ldrb	r2, [r2, #0]
10002a6e:	09d2      	lsrs	r2, r2, #7
10002a70:	d003      	beq.n	10002a7a <PMSM_FOC_Rotor_Pre_Positioning+0x5e>
10002a72:	6a42      	ldr	r2, [r0, #36]	; 0x24
10002a74:	1d26      	adds	r6, r4, #4
10002a76:	0092      	lsls	r2, r2, #2
10002a78:	67f2      	str	r2, [r6, #124]	; 0x7c
10002a7a:	1c20      	adds	r0, r4, #0
10002a7c:	1c22      	adds	r2, r4, #0
10002a7e:	3090      	adds	r0, #144	; 0x90
10002a80:	6806      	ldr	r6, [r0, #0]
10002a82:	039b      	lsls	r3, r3, #14
10002a84:	328c      	adds	r2, #140	; 0x8c
10002a86:	6016      	str	r6, [r2, #0]
10002a88:	6003      	str	r3, [r0, #0]
10002a8a:	1c20      	adds	r0, r4, #0
10002a8c:	f000 faba 	bl	10003004 <Init_Smooth_Transition_To_FOC>
10002a90:	782b      	ldrb	r3, [r5, #0]
10002a92:	2b05      	cmp	r3, #5
10002a94:	d102      	bne.n	10002a9c <PMSM_FOC_Rotor_Pre_Positioning+0x80>
10002a96:	1c20      	adds	r0, r4, #0
10002a98:	f7ff fec8 	bl	1000282c <PMSM_FOC_Controller_Init_OnceOnly>
10002a9c:	bdf8      	pop	{r3, r4, r5, r6, r7, pc}
10002a9e:	46c0      	nop			; (mov r8, r8)
10002aa0:	00001555 	.word	0x00001555
10002aa4:	000024f0 	.word	0x000024f0

10002aa8 <HALL_POSIF_Init>:
10002aa8:	b5f7      	push	{r0, r1, r2, r4, r5, r6, r7, lr}
10002aaa:	1c06      	adds	r6, r0, #0
10002aac:	2500      	movs	r5, #0
10002aae:	3684      	adds	r6, #132	; 0x84
10002ab0:	9601      	str	r6, [sp, #4]
10002ab2:	7833      	ldrb	r3, [r6, #0]
10002ab4:	42ab      	cmp	r3, r5
10002ab6:	d000      	beq.n	10002aba <HALL_POSIF_Init+0x12>
10002ab8:	e0d7      	b.n	10002c6a <HALL_POSIF_Init+0x1c2>
10002aba:	1c04      	adds	r4, r0, #0
10002abc:	6e00      	ldr	r0, [r0, #96]	; 0x60
10002abe:	f000 f8d9 	bl	10002c74 <GLOBAL_POSIF_Init>
10002ac2:	1c07      	adds	r7, r0, #0
10002ac4:	6ea0      	ldr	r0, [r4, #104]	; 0x68
10002ac6:	f000 f8f9 	bl	10002cbc <GLOBAL_CCU4_Init>
10002aca:	1e05      	subs	r5, r0, #0
10002acc:	2d01      	cmp	r5, #1
10002ace:	d003      	beq.n	10002ad8 <HALL_POSIF_Init+0x30>
10002ad0:	1e7d      	subs	r5, r7, #1
10002ad2:	426b      	negs	r3, r5
10002ad4:	416b      	adcs	r3, r5
10002ad6:	b2dd      	uxtb	r5, r3
10002ad8:	6aa3      	ldr	r3, [r4, #40]	; 0x28
10002ada:	6de2      	ldr	r2, [r4, #92]	; 0x5c
10002adc:	7919      	ldrb	r1, [r3, #4]
10002ade:	6818      	ldr	r0, [r3, #0]
10002ae0:	f7fe fb08 	bl	100010f4 <XMC_GPIO_Init>
10002ae4:	6ae3      	ldr	r3, [r4, #44]	; 0x2c
10002ae6:	6de2      	ldr	r2, [r4, #92]	; 0x5c
10002ae8:	7919      	ldrb	r1, [r3, #4]
10002aea:	6818      	ldr	r0, [r3, #0]
10002aec:	f7fe fb02 	bl	100010f4 <XMC_GPIO_Init>
10002af0:	6c23      	ldr	r3, [r4, #64]	; 0x40
10002af2:	7b5b      	ldrb	r3, [r3, #13]
10002af4:	2b00      	cmp	r3, #0
10002af6:	d105      	bne.n	10002b04 <HALL_POSIF_Init+0x5c>
10002af8:	6b23      	ldr	r3, [r4, #48]	; 0x30
10002afa:	6de2      	ldr	r2, [r4, #92]	; 0x5c
10002afc:	7919      	ldrb	r1, [r3, #4]
10002afe:	6818      	ldr	r0, [r3, #0]
10002b00:	f7fe faf8 	bl	100010f4 <XMC_GPIO_Init>
10002b04:	6d23      	ldr	r3, [r4, #80]	; 0x50
10002b06:	6ba1      	ldr	r1, [r4, #56]	; 0x38
10002b08:	6818      	ldr	r0, [r3, #0]
10002b0a:	f7fe fbf8 	bl	100012fe <XMC_CCU4_SLICE_CaptureInit>
10002b0e:	6b62      	ldr	r2, [r4, #52]	; 0x34
10002b10:	6d23      	ldr	r3, [r4, #80]	; 0x50
10002b12:	7911      	ldrb	r1, [r2, #4]
10002b14:	6818      	ldr	r0, [r3, #0]
10002b16:	0709      	lsls	r1, r1, #28
10002b18:	0f09      	lsrs	r1, r1, #28
10002b1a:	f7fe fc47 	bl	100013ac <XMC_CCU4_SLICE_SetPrescaler>
10002b1e:	6ce3      	ldr	r3, [r4, #76]	; 0x4c
10002b20:	6b61      	ldr	r1, [r4, #52]	; 0x34
10002b22:	6818      	ldr	r0, [r3, #0]
10002b24:	f7fe fbd4 	bl	100012d0 <XMC_CCU4_SLICE_CompareInit>
10002b28:	6be0      	ldr	r0, [r4, #60]	; 0x3c
10002b2a:	6ca1      	ldr	r1, [r4, #72]	; 0x48
10002b2c:	f7fe fd66 	bl	100015fc <XMC_POSIF_Init>
10002b30:	6be0      	ldr	r0, [r4, #60]	; 0x3c
10002b32:	6c61      	ldr	r1, [r4, #68]	; 0x44
10002b34:	f7fe fd6c 	bl	10001610 <XMC_POSIF_HSC_Init>
10002b38:	2801      	cmp	r0, #1
10002b3a:	d100      	bne.n	10002b3e <HALL_POSIF_Init+0x96>
10002b3c:	1c05      	adds	r5, r0, #0
10002b3e:	6ce1      	ldr	r1, [r4, #76]	; 0x4c
10002b40:	6c23      	ldr	r3, [r4, #64]	; 0x40
10002b42:	6808      	ldr	r0, [r1, #0]
10002b44:	8ada      	ldrh	r2, [r3, #22]
10002b46:	6e66      	ldr	r6, [r4, #100]	; 0x64
10002b48:	63c2      	str	r2, [r0, #60]	; 0x3c
10002b4a:	8b1b      	ldrh	r3, [r3, #24]
10002b4c:	6d22      	ldr	r2, [r4, #80]	; 0x50
10002b4e:	6343      	str	r3, [r0, #52]	; 0x34
10002b50:	6817      	ldr	r7, [r2, #0]
10002b52:	199b      	adds	r3, r3, r6
10002b54:	b29b      	uxth	r3, r3
10002b56:	63fb      	str	r3, [r7, #60]	; 0x3c
10002b58:	4e45      	ldr	r6, [pc, #276]	; (10002c70 <HALL_POSIF_Init+0x1c8>)
10002b5a:	3301      	adds	r3, #1
10002b5c:	b29b      	uxth	r3, r3
10002b5e:	637e      	str	r6, [r7, #52]	; 0x34
10002b60:	673b      	str	r3, [r7, #112]	; 0x70
10002b62:	684b      	ldr	r3, [r1, #4]
10002b64:	6889      	ldr	r1, [r1, #8]
10002b66:	2701      	movs	r7, #1
10002b68:	6119      	str	r1, [r3, #16]
10002b6a:	6853      	ldr	r3, [r2, #4]
10002b6c:	6892      	ldr	r2, [r2, #8]
10002b6e:	2101      	movs	r1, #1
10002b70:	611a      	str	r2, [r3, #16]
10002b72:	6d62      	ldr	r2, [r4, #84]	; 0x54
10002b74:	f7fe fbef 	bl	10001356 <XMC_CCU4_SLICE_ConfigureEvent>
10002b78:	2101      	movs	r1, #1
10002b7a:	6ce3      	ldr	r3, [r4, #76]	; 0x4c
10002b7c:	1c0a      	adds	r2, r1, #0
10002b7e:	6818      	ldr	r0, [r3, #0]
10002b80:	f7fe fbce 	bl	10001320 <XMC_CCU4_SLICE_StartConfig>
10002b84:	6d23      	ldr	r3, [r4, #80]	; 0x50
10002b86:	6da2      	ldr	r2, [r4, #88]	; 0x58
10002b88:	6818      	ldr	r0, [r3, #0]
10002b8a:	2101      	movs	r1, #1
10002b8c:	f7fe fbe3 	bl	10001356 <XMC_CCU4_SLICE_ConfigureEvent>
10002b90:	6d23      	ldr	r3, [r4, #80]	; 0x50
10002b92:	2101      	movs	r1, #1
10002b94:	6818      	ldr	r0, [r3, #0]
10002b96:	f7fe fbd7 	bl	10001348 <XMC_CCU4_SLICE_Capture1Config>
10002b9a:	1c38      	adds	r0, r7, #0
10002b9c:	6ce3      	ldr	r3, [r4, #76]	; 0x4c
10002b9e:	7b1a      	ldrb	r2, [r3, #12]
10002ba0:	6859      	ldr	r1, [r3, #4]
10002ba2:	4090      	lsls	r0, r2
10002ba4:	60c8      	str	r0, [r1, #12]
10002ba6:	1c38      	adds	r0, r7, #0
10002ba8:	6d22      	ldr	r2, [r4, #80]	; 0x50
10002baa:	6851      	ldr	r1, [r2, #4]
10002bac:	7b12      	ldrb	r2, [r2, #12]
10002bae:	4090      	lsls	r0, r2
10002bb0:	6c22      	ldr	r2, [r4, #64]	; 0x40
10002bb2:	60c8      	str	r0, [r1, #12]
10002bb4:	7812      	ldrb	r2, [r2, #0]
10002bb6:	6818      	ldr	r0, [r3, #0]
10002bb8:	2100      	movs	r1, #0
10002bba:	f7fe fc01 	bl	100013c0 <XMC_CCU4_SLICE_SetInterruptNode>
10002bbe:	6ce3      	ldr	r3, [r4, #76]	; 0x4c
10002bc0:	6c22      	ldr	r2, [r4, #64]	; 0x40
10002bc2:	6818      	ldr	r0, [r3, #0]
10002bc4:	7852      	ldrb	r2, [r2, #1]
10002bc6:	2102      	movs	r1, #2
10002bc8:	f7fe fbfa 	bl	100013c0 <XMC_CCU4_SLICE_SetInterruptNode>
10002bcc:	6ce3      	ldr	r3, [r4, #76]	; 0x4c
10002bce:	6c22      	ldr	r2, [r4, #64]	; 0x40
10002bd0:	6818      	ldr	r0, [r3, #0]
10002bd2:	7892      	ldrb	r2, [r2, #2]
10002bd4:	2108      	movs	r1, #8
10002bd6:	f7fe fbf3 	bl	100013c0 <XMC_CCU4_SLICE_SetInterruptNode>
10002bda:	6ce3      	ldr	r3, [r4, #76]	; 0x4c
10002bdc:	6c22      	ldr	r2, [r4, #64]	; 0x40
10002bde:	6818      	ldr	r0, [r3, #0]
10002be0:	78d2      	ldrb	r2, [r2, #3]
10002be2:	2109      	movs	r1, #9
10002be4:	f7fe fbec 	bl	100013c0 <XMC_CCU4_SLICE_SetInterruptNode>
10002be8:	6ce3      	ldr	r3, [r4, #76]	; 0x4c
10002bea:	6c22      	ldr	r2, [r4, #64]	; 0x40
10002bec:	6818      	ldr	r0, [r3, #0]
10002bee:	7912      	ldrb	r2, [r2, #4]
10002bf0:	210a      	movs	r1, #10
10002bf2:	f7fe fbe5 	bl	100013c0 <XMC_CCU4_SLICE_SetInterruptNode>
10002bf6:	6d23      	ldr	r3, [r4, #80]	; 0x50
10002bf8:	6c22      	ldr	r2, [r4, #64]	; 0x40
10002bfa:	6818      	ldr	r0, [r3, #0]
10002bfc:	7952      	ldrb	r2, [r2, #5]
10002bfe:	2100      	movs	r1, #0
10002c00:	f7fe fbde 	bl	100013c0 <XMC_CCU4_SLICE_SetInterruptNode>
10002c04:	6d23      	ldr	r3, [r4, #80]	; 0x50
10002c06:	6c22      	ldr	r2, [r4, #64]	; 0x40
10002c08:	6818      	ldr	r0, [r3, #0]
10002c0a:	7992      	ldrb	r2, [r2, #6]
10002c0c:	2102      	movs	r1, #2
10002c0e:	f7fe fbd7 	bl	100013c0 <XMC_CCU4_SLICE_SetInterruptNode>
10002c12:	6d23      	ldr	r3, [r4, #80]	; 0x50
10002c14:	6c22      	ldr	r2, [r4, #64]	; 0x40
10002c16:	6818      	ldr	r0, [r3, #0]
10002c18:	79d2      	ldrb	r2, [r2, #7]
10002c1a:	2108      	movs	r1, #8
10002c1c:	f7fe fbd0 	bl	100013c0 <XMC_CCU4_SLICE_SetInterruptNode>
10002c20:	6d23      	ldr	r3, [r4, #80]	; 0x50
10002c22:	6c22      	ldr	r2, [r4, #64]	; 0x40
10002c24:	6818      	ldr	r0, [r3, #0]
10002c26:	7a12      	ldrb	r2, [r2, #8]
10002c28:	2109      	movs	r1, #9
10002c2a:	f7fe fbc9 	bl	100013c0 <XMC_CCU4_SLICE_SetInterruptNode>
10002c2e:	6d23      	ldr	r3, [r4, #80]	; 0x50
10002c30:	6c22      	ldr	r2, [r4, #64]	; 0x40
10002c32:	6818      	ldr	r0, [r3, #0]
10002c34:	7a52      	ldrb	r2, [r2, #9]
10002c36:	210a      	movs	r1, #10
10002c38:	f7fe fbc2 	bl	100013c0 <XMC_CCU4_SLICE_SetInterruptNode>
10002c3c:	6c23      	ldr	r3, [r4, #64]	; 0x40
10002c3e:	6be0      	ldr	r0, [r4, #60]	; 0x3c
10002c40:	7a9a      	ldrb	r2, [r3, #10]
10002c42:	2100      	movs	r1, #0
10002c44:	f7fe fcf1 	bl	1000162a <XMC_POSIF_SetInterruptNode>
10002c48:	6c23      	ldr	r3, [r4, #64]	; 0x40
10002c4a:	6be0      	ldr	r0, [r4, #60]	; 0x3c
10002c4c:	7ada      	ldrb	r2, [r3, #11]
10002c4e:	1c39      	adds	r1, r7, #0
10002c50:	f7fe fceb 	bl	1000162a <XMC_POSIF_SetInterruptNode>
10002c54:	6c23      	ldr	r3, [r4, #64]	; 0x40
10002c56:	6be0      	ldr	r0, [r4, #60]	; 0x3c
10002c58:	7b1a      	ldrb	r2, [r3, #12]
10002c5a:	2102      	movs	r1, #2
10002c5c:	f7fe fce5 	bl	1000162a <XMC_POSIF_SetInterruptNode>
10002c60:	42bd      	cmp	r5, r7
10002c62:	d002      	beq.n	10002c6a <HALL_POSIF_Init+0x1c2>
10002c64:	2500      	movs	r5, #0
10002c66:	9b01      	ldr	r3, [sp, #4]
10002c68:	701f      	strb	r7, [r3, #0]
10002c6a:	1c28      	adds	r0, r5, #0
10002c6c:	bdfe      	pop	{r1, r2, r3, r4, r5, r6, r7, pc}
10002c6e:	46c0      	nop			; (mov r8, r8)
10002c70:	0000ffff 	.word	0x0000ffff

10002c74 <GLOBAL_POSIF_Init>:
10002c74:	b510      	push	{r4, lr}
10002c76:	7903      	ldrb	r3, [r0, #4]
10002c78:	2b00      	cmp	r3, #0
10002c7a:	d10c      	bne.n	10002c96 <GLOBAL_POSIF_Init+0x22>
10002c7c:	1c04      	adds	r4, r0, #0
10002c7e:	6800      	ldr	r0, [r0, #0]
10002c80:	f7fe fcb2 	bl	100015e8 <XMC_POSIF_Enable>
10002c84:	2103      	movs	r1, #3
10002c86:	6822      	ldr	r2, [r4, #0]
10002c88:	6813      	ldr	r3, [r2, #0]
10002c8a:	438b      	bics	r3, r1
10002c8c:	3901      	subs	r1, #1
10002c8e:	430b      	orrs	r3, r1
10002c90:	6013      	str	r3, [r2, #0]
10002c92:	2301      	movs	r3, #1
10002c94:	7123      	strb	r3, [r4, #4]
10002c96:	2000      	movs	r0, #0
10002c98:	bd10      	pop	{r4, pc}

10002c9a <GLOBAL_CCU8_Init>:
10002c9a:	b510      	push	{r4, lr}
10002c9c:	7b43      	ldrb	r3, [r0, #13]
10002c9e:	2b00      	cmp	r3, #0
10002ca0:	d10a      	bne.n	10002cb8 <GLOBAL_CCU8_Init+0x1e>
10002ca2:	1c04      	adds	r4, r0, #0
10002ca4:	7b01      	ldrb	r1, [r0, #12]
10002ca6:	6880      	ldr	r0, [r0, #8]
10002ca8:	f7fe fba0 	bl	100013ec <XMC_CCU8_Init>
10002cac:	2280      	movs	r2, #128	; 0x80
10002cae:	68a3      	ldr	r3, [r4, #8]
10002cb0:	0052      	lsls	r2, r2, #1
10002cb2:	60da      	str	r2, [r3, #12]
10002cb4:	2301      	movs	r3, #1
10002cb6:	7363      	strb	r3, [r4, #13]
10002cb8:	2000      	movs	r0, #0
10002cba:	bd10      	pop	{r4, pc}

10002cbc <GLOBAL_CCU4_Init>:
10002cbc:	b510      	push	{r4, lr}
10002cbe:	7b43      	ldrb	r3, [r0, #13]
10002cc0:	2b00      	cmp	r3, #0
10002cc2:	d10a      	bne.n	10002cda <GLOBAL_CCU4_Init+0x1e>
10002cc4:	1c04      	adds	r4, r0, #0
10002cc6:	7b01      	ldrb	r1, [r0, #12]
10002cc8:	6880      	ldr	r0, [r0, #8]
10002cca:	f7fe fae9 	bl	100012a0 <XMC_CCU4_Init>
10002cce:	2280      	movs	r2, #128	; 0x80
10002cd0:	68a3      	ldr	r3, [r4, #8]
10002cd2:	0052      	lsls	r2, r2, #1
10002cd4:	60da      	str	r2, [r3, #12]
10002cd6:	2301      	movs	r3, #1
10002cd8:	7363      	strb	r3, [r4, #13]
10002cda:	2000      	movs	r0, #0
10002cdc:	bd10      	pop	{r4, pc}
	...

10002ce0 <GLOBAL_ADC_Init>:
10002ce0:	b570      	push	{r4, r5, r6, lr}
10002ce2:	7e03      	ldrb	r3, [r0, #24]
10002ce4:	1c04      	adds	r4, r0, #0
10002ce6:	2b02      	cmp	r3, #2
10002ce8:	d13e      	bne.n	10002d68 <GLOBAL_ADC_Init+0x88>
10002cea:	68c0      	ldr	r0, [r0, #12]
10002cec:	68a1      	ldr	r1, [r4, #8]
10002cee:	f7fe fe37 	bl	10001960 <XMC_VADC_GLOBAL_Init>
10002cf2:	1c25      	adds	r5, r4, #0
10002cf4:	2600      	movs	r6, #0
10002cf6:	682b      	ldr	r3, [r5, #0]
10002cf8:	cb03      	ldmia	r3!, {r0, r1}
10002cfa:	f7fe fe9b 	bl	10001a34 <XMC_VADC_GROUP_Init>
10002cfe:	682b      	ldr	r3, [r5, #0]
10002d00:	2103      	movs	r1, #3
10002d02:	6818      	ldr	r0, [r3, #0]
10002d04:	f7fe fed7 	bl	10001ab6 <XMC_VADC_GROUP_SetPowerMode>
10002d08:	682b      	ldr	r3, [r5, #0]
10002d0a:	7a1b      	ldrb	r3, [r3, #8]
10002d0c:	2b00      	cmp	r3, #0
10002d0e:	d108      	bne.n	10002d22 <GLOBAL_ADC_Init+0x42>
10002d10:	1c30      	adds	r0, r6, #0
10002d12:	2201      	movs	r2, #1
10002d14:	3010      	adds	r0, #16
10002d16:	4082      	lsls	r2, r0
10002d18:	68e3      	ldr	r3, [r4, #12]
10002d1a:	3304      	adds	r3, #4
10002d1c:	6fd9      	ldr	r1, [r3, #124]	; 0x7c
10002d1e:	430a      	orrs	r2, r1
10002d20:	67da      	str	r2, [r3, #124]	; 0x7c
10002d22:	b2f1      	uxtb	r1, r6
10002d24:	6920      	ldr	r0, [r4, #16]
10002d26:	f7fe fecd 	bl	10001ac4 <XMC_VADC_GLOBAL_SHS_EnableAcceleratedMode>
10002d2a:	2200      	movs	r2, #0
10002d2c:	cd08      	ldmia	r5!, {r3}
10002d2e:	725a      	strb	r2, [r3, #9]
10002d30:	2e01      	cmp	r6, #1
10002d32:	d001      	beq.n	10002d38 <GLOBAL_ADC_Init+0x58>
10002d34:	2601      	movs	r6, #1
10002d36:	e7de      	b.n	10002cf6 <GLOBAL_ADC_Init+0x16>
10002d38:	2080      	movs	r0, #128	; 0x80
10002d3a:	6923      	ldr	r3, [r4, #16]
10002d3c:	4a0b      	ldr	r2, [pc, #44]	; (10002d6c <GLOBAL_ADC_Init+0x8c>)
10002d3e:	6c19      	ldr	r1, [r3, #64]	; 0x40
10002d40:	0200      	lsls	r0, r0, #8
10002d42:	4011      	ands	r1, r2
10002d44:	4301      	orrs	r1, r0
10002d46:	6419      	str	r1, [r3, #64]	; 0x40
10002d48:	6c1a      	ldr	r2, [r3, #64]	; 0x40
10002d4a:	4909      	ldr	r1, [pc, #36]	; (10002d70 <GLOBAL_ADC_Init+0x90>)
10002d4c:	4302      	orrs	r2, r0
10002d4e:	641a      	str	r2, [r3, #64]	; 0x40
10002d50:	6c1a      	ldr	r2, [r3, #64]	; 0x40
10002d52:	400a      	ands	r2, r1
10002d54:	4302      	orrs	r2, r0
10002d56:	641a      	str	r2, [r3, #64]	; 0x40
10002d58:	7e63      	ldrb	r3, [r4, #25]
10002d5a:	2b00      	cmp	r3, #0
10002d5c:	d002      	beq.n	10002d64 <GLOBAL_ADC_Init+0x84>
10002d5e:	68e0      	ldr	r0, [r4, #12]
10002d60:	f7fe fe1a 	bl	10001998 <XMC_VADC_GLOBAL_StartupCalibration>
10002d64:	2300      	movs	r3, #0
10002d66:	7623      	strb	r3, [r4, #24]
10002d68:	7e20      	ldrb	r0, [r4, #24]
10002d6a:	bd70      	pop	{r4, r5, r6, pc}
10002d6c:	ffff7ff0 	.word	0xffff7ff0
10002d70:	fffff3ff 	.word	0xfffff3ff

10002d74 <SystemCoreSetup>:
10002d74:	4770      	bx	lr

10002d76 <CLOCK_XMC1_Init>:
10002d76:	7803      	ldrb	r3, [r0, #0]
10002d78:	2b00      	cmp	r3, #0
10002d7a:	d101      	bne.n	10002d80 <CLOCK_XMC1_Init+0xa>
10002d7c:	3301      	adds	r3, #1
10002d7e:	7003      	strb	r3, [r0, #0]
10002d80:	2000      	movs	r0, #0
10002d82:	4770      	bx	lr

10002d84 <SystemCoreClockSetup>:
10002d84:	b530      	push	{r4, r5, lr}
10002d86:	b085      	sub	sp, #20
10002d88:	a801      	add	r0, sp, #4
10002d8a:	1c02      	adds	r2, r0, #0
10002d8c:	4b03      	ldr	r3, [pc, #12]	; (10002d9c <SystemCoreClockSetup+0x18>)
10002d8e:	cb32      	ldmia	r3!, {r1, r4, r5}
10002d90:	c232      	stmia	r2!, {r1, r4, r5}
10002d92:	f7fe fa63 	bl	1000125c <XMC_SCU_CLOCK_Init>
10002d96:	b005      	add	sp, #20
10002d98:	bd30      	pop	{r4, r5, pc}
10002d9a:	46c0      	nop			; (mov r8, r8)
10002d9c:	10009678 	.word	0x10009678

10002da0 <ADC_QUEUE_ResetListContents>:
10002da0:	b570      	push	{r4, r5, r6, lr}
10002da2:	1c04      	adds	r4, r0, #0
10002da4:	4e0a      	ldr	r6, [pc, #40]	; (10002dd0 <ADC_QUEUE_ResetListContents+0x30>)
10002da6:	00c5      	lsls	r5, r0, #3
10002da8:	59a8      	ldr	r0, [r5, r6]
10002daa:	21ff      	movs	r1, #255	; 0xff
10002dac:	1975      	adds	r5, r6, r5
10002dae:	2260      	movs	r2, #96	; 0x60
10002db0:	f000 fa99 	bl	100032e6 <memset>
10002db4:	6868      	ldr	r0, [r5, #4]
10002db6:	21ff      	movs	r1, #255	; 0xff
10002db8:	2260      	movs	r2, #96	; 0x60
10002dba:	f000 fa94 	bl	100032e6 <memset>
10002dbe:	4805      	ldr	r0, [pc, #20]	; (10002dd4 <ADC_QUEUE_ResetListContents+0x34>)
10002dc0:	0164      	lsls	r4, r4, #5
10002dc2:	1900      	adds	r0, r0, r4
10002dc4:	2100      	movs	r1, #0
10002dc6:	2220      	movs	r2, #32
10002dc8:	f000 fa8d 	bl	100032e6 <memset>
10002dcc:	bd70      	pop	{r4, r5, r6, pc}
10002dce:	46c0      	nop			; (mov r8, r8)
10002dd0:	2000194c 	.word	0x2000194c
10002dd4:	200018d8 	.word	0x200018d8

10002dd8 <ADC_QUEUE_Init>:
10002dd8:	b5f7      	push	{r0, r1, r2, r4, r5, r6, r7, lr}
10002dda:	7e43      	ldrb	r3, [r0, #25]
10002ddc:	1c04      	adds	r4, r0, #0
10002dde:	2b02      	cmp	r3, #2
10002de0:	d161      	bne.n	10002ea6 <ADC_QUEUE_Init+0xce>
10002de2:	6880      	ldr	r0, [r0, #8]
10002de4:	f7ff ff7c 	bl	10002ce0 <GLOBAL_ADC_Init>
10002de8:	2503      	movs	r5, #3
10002dea:	7ee3      	ldrb	r3, [r4, #27]
10002dec:	2200      	movs	r2, #0
10002dee:	6821      	ldr	r1, [r4, #0]
10002df0:	1c06      	adds	r6, r0, #0
10002df2:	68e0      	ldr	r0, [r4, #12]
10002df4:	f7fe fdfc 	bl	100019f0 <XMC_VADC_GROUP_InputClassInit>
10002df8:	68e0      	ldr	r0, [r4, #12]
10002dfa:	6861      	ldr	r1, [r4, #4]
10002dfc:	f7fe fe72 	bl	10001ae4 <XMC_VADC_GROUP_QueueInit>
10002e00:	68e3      	ldr	r3, [r4, #12]
10002e02:	7c20      	ldrb	r0, [r4, #16]
10002e04:	33fc      	adds	r3, #252	; 0xfc
10002e06:	6899      	ldr	r1, [r3, #8]
10002e08:	43a9      	bics	r1, r5
10002e0a:	6099      	str	r1, [r3, #8]
10002e0c:	689a      	ldr	r2, [r3, #8]
10002e0e:	4302      	orrs	r2, r0
10002e10:	609a      	str	r2, [r3, #8]
10002e12:	7ea0      	ldrb	r0, [r4, #26]
10002e14:	f000 f8be 	bl	10002f94 <ADC_QUEUE_lInitializeListToDefaults>
10002e18:	6963      	ldr	r3, [r4, #20]
10002e1a:	7b1a      	ldrb	r2, [r3, #12]
10002e1c:	2a00      	cmp	r2, #0
10002e1e:	d041      	beq.n	10002ea4 <ADC_QUEUE_Init+0xcc>
10002e20:	4669      	mov	r1, sp
10002e22:	681a      	ldr	r2, [r3, #0]
10002e24:	71ca      	strb	r2, [r1, #7]
10002e26:	79c9      	ldrb	r1, [r1, #7]
10002e28:	4694      	mov	ip, r2
10002e2a:	685a      	ldr	r2, [r3, #4]
10002e2c:	b24b      	sxtb	r3, r1
10002e2e:	0192      	lsls	r2, r2, #6
10002e30:	2b00      	cmp	r3, #0
10002e32:	db15      	blt.n	10002e60 <ADC_QUEUE_Init+0x88>
10002e34:	491d      	ldr	r1, [pc, #116]	; (10002eac <ADC_QUEUE_Init+0xd4>)
10002e36:	089b      	lsrs	r3, r3, #2
10002e38:	009b      	lsls	r3, r3, #2
10002e3a:	185b      	adds	r3, r3, r1
10002e3c:	21c0      	movs	r1, #192	; 0xc0
10002e3e:	0089      	lsls	r1, r1, #2
10002e40:	585f      	ldr	r7, [r3, r1]
10002e42:	4661      	mov	r1, ip
10002e44:	4029      	ands	r1, r5
10002e46:	00cd      	lsls	r5, r1, #3
10002e48:	21ff      	movs	r1, #255	; 0xff
10002e4a:	1c08      	adds	r0, r1, #0
10002e4c:	40a8      	lsls	r0, r5
10002e4e:	4011      	ands	r1, r2
10002e50:	4387      	bics	r7, r0
10002e52:	40a9      	lsls	r1, r5
10002e54:	1c3a      	adds	r2, r7, #0
10002e56:	430a      	orrs	r2, r1
10002e58:	21c0      	movs	r1, #192	; 0xc0
10002e5a:	0089      	lsls	r1, r1, #2
10002e5c:	505a      	str	r2, [r3, r1]
10002e5e:	e012      	b.n	10002e86 <ADC_QUEUE_Init+0xae>
10002e60:	230f      	movs	r3, #15
10002e62:	400b      	ands	r3, r1
10002e64:	3b08      	subs	r3, #8
10002e66:	4812      	ldr	r0, [pc, #72]	; (10002eb0 <ADC_QUEUE_Init+0xd8>)
10002e68:	089b      	lsrs	r3, r3, #2
10002e6a:	009b      	lsls	r3, r3, #2
10002e6c:	181b      	adds	r3, r3, r0
10002e6e:	20ff      	movs	r0, #255	; 0xff
10002e70:	400d      	ands	r5, r1
10002e72:	1c01      	adds	r1, r0, #0
10002e74:	00ed      	lsls	r5, r5, #3
10002e76:	40a9      	lsls	r1, r5
10002e78:	69df      	ldr	r7, [r3, #28]
10002e7a:	4010      	ands	r0, r2
10002e7c:	438f      	bics	r7, r1
10002e7e:	40a8      	lsls	r0, r5
10002e80:	1c3a      	adds	r2, r7, #0
10002e82:	4302      	orrs	r2, r0
10002e84:	61da      	str	r2, [r3, #28]
10002e86:	7e21      	ldrb	r1, [r4, #24]
10002e88:	68e0      	ldr	r0, [r4, #12]
10002e8a:	f7fe fe5b 	bl	10001b44 <XMC_VADC_GROUP_QueueSetReqSrcEventInterruptNode>
10002e8e:	6963      	ldr	r3, [r4, #20]
10002e90:	681a      	ldr	r2, [r3, #0]
10002e92:	0613      	lsls	r3, r2, #24
10002e94:	d406      	bmi.n	10002ea4 <ADC_QUEUE_Init+0xcc>
10002e96:	231f      	movs	r3, #31
10002e98:	4013      	ands	r3, r2
10002e9a:	2201      	movs	r2, #1
10002e9c:	409a      	lsls	r2, r3
10002e9e:	1c13      	adds	r3, r2, #0
10002ea0:	4a02      	ldr	r2, [pc, #8]	; (10002eac <ADC_QUEUE_Init+0xd4>)
10002ea2:	6013      	str	r3, [r2, #0]
10002ea4:	7666      	strb	r6, [r4, #25]
10002ea6:	7e60      	ldrb	r0, [r4, #25]
10002ea8:	bdfe      	pop	{r1, r2, r3, r4, r5, r6, r7, pc}
10002eaa:	46c0      	nop			; (mov r8, r8)
10002eac:	e000e100 	.word	0xe000e100
10002eb0:	e000ed00 	.word	0xe000ed00

10002eb4 <ADC_QUEUE_InsertQueueEntry>:
10002eb4:	b5f8      	push	{r3, r4, r5, r6, r7, lr}
10002eb6:	260c      	movs	r6, #12
10002eb8:	1c0d      	adds	r5, r1, #0
10002eba:	1c04      	adds	r4, r0, #0
10002ebc:	7e83      	ldrb	r3, [r0, #26]
10002ebe:	7948      	ldrb	r0, [r1, #5]
10002ec0:	4f16      	ldr	r7, [pc, #88]	; (10002f1c <ADC_QUEUE_InsertQueueEntry+0x68>)
10002ec2:	4370      	muls	r0, r6
10002ec4:	00db      	lsls	r3, r3, #3
10002ec6:	59db      	ldr	r3, [r3, r7]
10002ec8:	1c32      	adds	r2, r6, #0
10002eca:	1818      	adds	r0, r3, r0
10002ecc:	f000 fa02 	bl	100032d4 <memcpy>
10002ed0:	7928      	ldrb	r0, [r5, #4]
10002ed2:	7ea3      	ldrb	r3, [r4, #26]
10002ed4:	4370      	muls	r0, r6
10002ed6:	00db      	lsls	r3, r3, #3
10002ed8:	18fb      	adds	r3, r7, r3
10002eda:	685b      	ldr	r3, [r3, #4]
10002edc:	1c29      	adds	r1, r5, #0
10002ede:	1818      	adds	r0, r3, r0
10002ee0:	1c32      	adds	r2, r6, #0
10002ee2:	f000 f9f7 	bl	100032d4 <memcpy>
10002ee6:	7ea0      	ldrb	r0, [r4, #26]
10002ee8:	490d      	ldr	r1, [pc, #52]	; (10002f20 <ADC_QUEUE_InsertQueueEntry+0x6c>)
10002eea:	682d      	ldr	r5, [r5, #0]
10002eec:	0147      	lsls	r7, r0, #5
10002eee:	19cf      	adds	r7, r1, r7
10002ef0:	2d00      	cmp	r5, #0
10002ef2:	d011      	beq.n	10002f18 <ADC_QUEUE_InsertQueueEntry+0x64>
10002ef4:	7f63      	ldrb	r3, [r4, #29]
10002ef6:	b2da      	uxtb	r2, r3
10002ef8:	b256      	sxtb	r6, r2
10002efa:	2e00      	cmp	r6, #0
10002efc:	db06      	blt.n	10002f0c <ADC_QUEUE_InsertQueueEntry+0x58>
10002efe:	00b6      	lsls	r6, r6, #2
10002f00:	59f6      	ldr	r6, [r6, r7]
10002f02:	42ae      	cmp	r6, r5
10002f04:	d008      	beq.n	10002f18 <ADC_QUEUE_InsertQueueEntry+0x64>
10002f06:	3a01      	subs	r2, #1
10002f08:	b2d2      	uxtb	r2, r2
10002f0a:	e7f5      	b.n	10002ef8 <ADC_QUEUE_InsertQueueEntry+0x44>
10002f0c:	00c0      	lsls	r0, r0, #3
10002f0e:	1c5a      	adds	r2, r3, #1
10002f10:	18c3      	adds	r3, r0, r3
10002f12:	009b      	lsls	r3, r3, #2
10002f14:	7762      	strb	r2, [r4, #29]
10002f16:	50cd      	str	r5, [r1, r3]
10002f18:	bdf8      	pop	{r3, r4, r5, r6, r7, pc}
10002f1a:	46c0      	nop			; (mov r8, r8)
10002f1c:	2000194c 	.word	0x2000194c
10002f20:	200018d8 	.word	0x200018d8

10002f24 <ADC_QUEUE_AllEntriesInserted>:
10002f24:	b5f7      	push	{r0, r1, r2, r4, r5, r6, r7, lr}
10002f26:	2480      	movs	r4, #128	; 0x80
10002f28:	7e82      	ldrb	r2, [r0, #26]
10002f2a:	4919      	ldr	r1, [pc, #100]	; (10002f90 <ADC_QUEUE_AllEntriesInserted+0x6c>)
10002f2c:	00d2      	lsls	r2, r2, #3
10002f2e:	188a      	adds	r2, r1, r2
10002f30:	6855      	ldr	r5, [r2, #4]
10002f32:	68c2      	ldr	r2, [r0, #12]
10002f34:	00e4      	lsls	r4, r4, #3
10002f36:	32fc      	adds	r2, #252	; 0xfc
10002f38:	6891      	ldr	r1, [r2, #8]
10002f3a:	4321      	orrs	r1, r4
10002f3c:	6091      	str	r1, [r2, #8]
10002f3e:	68d1      	ldr	r1, [r2, #12]
10002f40:	0689      	lsls	r1, r1, #26
10002f42:	d5fc      	bpl.n	10002f3e <ADC_QUEUE_AllEntriesInserted+0x1a>
10002f44:	1d6a      	adds	r2, r5, #5
10002f46:	3565      	adds	r5, #101	; 0x65
10002f48:	7811      	ldrb	r1, [r2, #0]
10002f4a:	29ff      	cmp	r1, #255	; 0xff
10002f4c:	d01b      	beq.n	10002f86 <ADC_QUEUE_AllEntriesInserted+0x62>
10002f4e:	7914      	ldrb	r4, [r2, #4]
10002f50:	7897      	ldrb	r7, [r2, #2]
10002f52:	9401      	str	r4, [sp, #4]
10002f54:	241f      	movs	r4, #31
10002f56:	4021      	ands	r1, r4
10002f58:	43a3      	bics	r3, r4
10002f5a:	430b      	orrs	r3, r1
10002f5c:	2101      	movs	r1, #1
10002f5e:	1864      	adds	r4, r4, r1
10002f60:	400f      	ands	r7, r1
10002f62:	017f      	lsls	r7, r7, #5
10002f64:	43a3      	bics	r3, r4
10002f66:	433b      	orrs	r3, r7
10002f68:	2740      	movs	r7, #64	; 0x40
10002f6a:	9c01      	ldr	r4, [sp, #4]
10002f6c:	43bb      	bics	r3, r7
10002f6e:	400c      	ands	r4, r1
10002f70:	01a4      	lsls	r4, r4, #6
10002f72:	4323      	orrs	r3, r4
10002f74:	2480      	movs	r4, #128	; 0x80
10002f76:	7856      	ldrb	r6, [r2, #1]
10002f78:	43a3      	bics	r3, r4
10002f7a:	4031      	ands	r1, r6
10002f7c:	01c9      	lsls	r1, r1, #7
10002f7e:	430b      	orrs	r3, r1
10002f80:	68c1      	ldr	r1, [r0, #12]
10002f82:	31fc      	adds	r1, #252	; 0xfc
10002f84:	614b      	str	r3, [r1, #20]
10002f86:	320c      	adds	r2, #12
10002f88:	42aa      	cmp	r2, r5
10002f8a:	d1dd      	bne.n	10002f48 <ADC_QUEUE_AllEntriesInserted+0x24>
10002f8c:	bdf7      	pop	{r0, r1, r2, r4, r5, r6, r7, pc}
10002f8e:	46c0      	nop			; (mov r8, r8)
10002f90:	2000194c 	.word	0x2000194c

10002f94 <ADC_QUEUE_lInitializeListToDefaults>:
10002f94:	b508      	push	{r3, lr}
10002f96:	4a04      	ldr	r2, [pc, #16]	; (10002fa8 <ADC_QUEUE_lInitializeListToDefaults+0x14>)
10002f98:	4b04      	ldr	r3, [pc, #16]	; (10002fac <ADC_QUEUE_lInitializeListToDefaults+0x18>)
10002f9a:	601a      	str	r2, [r3, #0]
10002f9c:	4a04      	ldr	r2, [pc, #16]	; (10002fb0 <ADC_QUEUE_lInitializeListToDefaults+0x1c>)
10002f9e:	605a      	str	r2, [r3, #4]
10002fa0:	f7ff fefe 	bl	10002da0 <ADC_QUEUE_ResetListContents>
10002fa4:	bd08      	pop	{r3, pc}
10002fa6:	46c0      	nop			; (mov r8, r8)
10002fa8:	2000195c 	.word	0x2000195c
10002fac:	2000194c 	.word	0x2000194c
10002fb0:	200019bc 	.word	0x200019bc

10002fb4 <DAVE_Init>:
10002fb4:	b508      	push	{r3, lr}
10002fb6:	4809      	ldr	r0, [pc, #36]	; (10002fdc <DAVE_Init+0x28>)
10002fb8:	f7ff fedd 	bl	10002d76 <CLOCK_XMC1_Init>
10002fbc:	2800      	cmp	r0, #0
10002fbe:	d10c      	bne.n	10002fda <DAVE_Init+0x26>
10002fc0:	4807      	ldr	r0, [pc, #28]	; (10002fe0 <DAVE_Init+0x2c>)
10002fc2:	f7fe fe31 	bl	10001c28 <UART_Init>
10002fc6:	2800      	cmp	r0, #0
10002fc8:	d107      	bne.n	10002fda <DAVE_Init+0x26>
10002fca:	4806      	ldr	r0, [pc, #24]	; (10002fe4 <DAVE_Init+0x30>)
10002fcc:	f7ff f9da 	bl	10002384 <PMSM_FOC_Init>
10002fd0:	2800      	cmp	r0, #0
10002fd2:	d102      	bne.n	10002fda <DAVE_Init+0x26>
10002fd4:	4804      	ldr	r0, [pc, #16]	; (10002fe8 <DAVE_Init+0x34>)
10002fd6:	f7ff fd67 	bl	10002aa8 <HALL_POSIF_Init>
10002fda:	bd08      	pop	{r3, pc}
10002fdc:	200018d4 	.word	0x200018d4
10002fe0:	20000548 	.word	0x20000548
10002fe4:	200006a0 	.word	0x200006a0
10002fe8:	2000097c 	.word	0x2000097c

10002fec <main>:
10002fec:	b508      	push	{r3, lr}
10002fee:	f7ff ffe1 	bl	10002fb4 <DAVE_Init>
10002ff2:	2800      	cmp	r0, #0
10002ff4:	d000      	beq.n	10002ff8 <main+0xc>
10002ff6:	e7fe      	b.n	10002ff6 <main+0xa>
10002ff8:	4801      	ldr	r0, [pc, #4]	; (10003000 <main+0x14>)
10002ffa:	f7ff faa5 	bl	10002548 <PMSM_FOC_MotorStart>
10002ffe:	e7fe      	b.n	10002ffe <main+0x12>
10003000:	200006a0 	.word	0x200006a0

10003004 <Init_Smooth_Transition_To_FOC>:
10003004:	6a83      	ldr	r3, [r0, #40]	; 0x28
10003006:	b5f0      	push	{r4, r5, r6, r7, lr}
10003008:	6b1c      	ldr	r4, [r3, #48]	; 0x30
1000300a:	6b5d      	ldr	r5, [r3, #52]	; 0x34
1000300c:	6ac6      	ldr	r6, [r0, #44]	; 0x2c
1000300e:	1960      	adds	r0, r4, r5
10003010:	1b65      	subs	r5, r4, r5
10003012:	2462      	movs	r4, #98	; 0x62
10003014:	6ada      	ldr	r2, [r3, #44]	; 0x2c
10003016:	0052      	lsls	r2, r2, #1
10003018:	1a12      	subs	r2, r2, r0
1000301a:	482a      	ldr	r0, [pc, #168]	; (100030c4 <Init_Smooth_Transition_To_FOC+0xc0>)
1000301c:	4350      	muls	r0, r2
1000301e:	4a2a      	ldr	r2, [pc, #168]	; (100030c8 <Init_Smooth_Transition_To_FOC+0xc4>)
10003020:	6030      	str	r0, [r6, #0]
10003022:	4355      	muls	r5, r2
10003024:	4a29      	ldr	r2, [pc, #164]	; (100030cc <Init_Smooth_Transition_To_FOC+0xc8>)
10003026:	6075      	str	r5, [r6, #4]
10003028:	6454      	str	r4, [r2, #68]	; 0x44
1000302a:	6a9e      	ldr	r6, [r3, #40]	; 0x28
1000302c:	4274      	negs	r4, r6
1000302e:	6514      	str	r4, [r2, #80]	; 0x50
10003030:	64d5      	str	r5, [r2, #76]	; 0x4c
10003032:	1c14      	adds	r4, r2, #0
10003034:	2501      	movs	r5, #1
10003036:	6490      	str	r0, [r2, #72]	; 0x48
10003038:	6c20      	ldr	r0, [r4, #64]	; 0x40
1000303a:	4a24      	ldr	r2, [pc, #144]	; (100030cc <Init_Smooth_Transition_To_FOC+0xc8>)
1000303c:	4028      	ands	r0, r5
1000303e:	d1fb      	bne.n	10003038 <Init_Smooth_Transition_To_FOC+0x34>
10003040:	276a      	movs	r7, #106	; 0x6a
10003042:	6d54      	ldr	r4, [r2, #84]	; 0x54
10003044:	4d22      	ldr	r5, [pc, #136]	; (100030d0 <Init_Smooth_Transition_To_FOC+0xcc>)
10003046:	602c      	str	r4, [r5, #0]
10003048:	6dd4      	ldr	r4, [r2, #92]	; 0x5c
1000304a:	6457      	str	r7, [r2, #68]	; 0x44
1000304c:	6514      	str	r4, [r2, #80]	; 0x50
1000304e:	64d0      	str	r0, [r2, #76]	; 0x4c
10003050:	6a58      	ldr	r0, [r3, #36]	; 0x24
10003052:	1934      	adds	r4, r6, r4
10003054:	6490      	str	r0, [r2, #72]	; 0x48
10003056:	481f      	ldr	r0, [pc, #124]	; (100030d4 <Init_Smooth_Transition_To_FOC+0xd0>)
10003058:	3f69      	subs	r7, #105	; 0x69
1000305a:	6004      	str	r4, [r0, #0]
1000305c:	6828      	ldr	r0, [r5, #0]
1000305e:	0b84      	lsrs	r4, r0, #14
10003060:	2038      	movs	r0, #56	; 0x38
10003062:	30ff      	adds	r0, #255	; 0xff
10003064:	4344      	muls	r4, r0
10003066:	0a24      	lsrs	r4, r4, #8
10003068:	602c      	str	r4, [r5, #0]
1000306a:	891d      	ldrh	r5, [r3, #8]
1000306c:	895e      	ldrh	r6, [r3, #10]
1000306e:	40e9      	lsrs	r1, r5
10003070:	434c      	muls	r4, r1
10003072:	3837      	subs	r0, #55	; 0x37
10003074:	881d      	ldrh	r5, [r3, #0]
10003076:	38ff      	subs	r0, #255	; 0xff
10003078:	40b0      	lsls	r0, r6
1000307a:	436c      	muls	r4, r5
1000307c:	8899      	ldrh	r1, [r3, #4]
1000307e:	6a1d      	ldr	r5, [r3, #32]
10003080:	40cc      	lsrs	r4, r1
10003082:	3801      	subs	r0, #1
10003084:	4345      	muls	r5, r0
10003086:	1964      	adds	r4, r4, r5
10003088:	40f4      	lsrs	r4, r6
1000308a:	621c      	str	r4, [r3, #32]
1000308c:	6c15      	ldr	r5, [r2, #64]	; 0x40
1000308e:	490f      	ldr	r1, [pc, #60]	; (100030cc <Init_Smooth_Transition_To_FOC+0xc8>)
10003090:	422f      	tst	r7, r5
10003092:	d1fb      	bne.n	1000308c <Init_Smooth_Transition_To_FOC+0x88>
10003094:	6d8d      	ldr	r5, [r1, #88]	; 0x58
10003096:	6d4a      	ldr	r2, [r1, #84]	; 0x54
10003098:	2138      	movs	r1, #56	; 0x38
1000309a:	1392      	asrs	r2, r2, #14
1000309c:	31ff      	adds	r1, #255	; 0xff
1000309e:	13ad      	asrs	r5, r5, #14
100030a0:	434d      	muls	r5, r1
100030a2:	4351      	muls	r1, r2
100030a4:	4a0c      	ldr	r2, [pc, #48]	; (100030d8 <Init_Smooth_Transition_To_FOC+0xd4>)
100030a6:	1209      	asrs	r1, r1, #8
100030a8:	6011      	str	r1, [r2, #0]
100030aa:	69da      	ldr	r2, [r3, #28]
100030ac:	122d      	asrs	r5, r5, #8
100030ae:	4350      	muls	r0, r2
100030b0:	1829      	adds	r1, r5, r0
100030b2:	1c0a      	adds	r2, r1, #0
100030b4:	4132      	asrs	r2, r6
100030b6:	4f09      	ldr	r7, [pc, #36]	; (100030dc <Init_Smooth_Transition_To_FOC+0xd8>)
100030b8:	61da      	str	r2, [r3, #28]
100030ba:	4b09      	ldr	r3, [pc, #36]	; (100030e0 <Init_Smooth_Transition_To_FOC+0xdc>)
100030bc:	18a2      	adds	r2, r4, r2
100030be:	603d      	str	r5, [r7, #0]
100030c0:	601a      	str	r2, [r3, #0]
100030c2:	bdf0      	pop	{r4, r5, r6, r7, pc}
100030c4:	00001555 	.word	0x00001555
100030c8:	000024f3 	.word	0x000024f3
100030cc:	40030000 	.word	0x40030000
100030d0:	20001924 	.word	0x20001924
100030d4:	20001920 	.word	0x20001920
100030d8:	2000191c 	.word	0x2000191c
100030dc:	20001918 	.word	0x20001918
100030e0:	20001928 	.word	0x20001928

100030e4 <VF_Smooth_Transition_To_FOC>:
100030e4:	b538      	push	{r3, r4, r5, lr}
100030e6:	2300      	movs	r3, #0
100030e8:	25b4      	movs	r5, #180	; 0xb4
100030ea:	6a82      	ldr	r2, [r0, #40]	; 0x28
100030ec:	5543      	strb	r3, [r0, r5]
100030ee:	1c04      	adds	r4, r0, #0
100030f0:	6b91      	ldr	r1, [r2, #56]	; 0x38
100030f2:	8910      	ldrh	r0, [r2, #8]
100030f4:	3310      	adds	r3, #16
100030f6:	1a1b      	subs	r3, r3, r0
100030f8:	1c08      	adds	r0, r1, #0
100030fa:	4098      	lsls	r0, r3
100030fc:	1c03      	adds	r3, r0, #0
100030fe:	6a90      	ldr	r0, [r2, #40]	; 0x28
10003100:	4684      	mov	ip, r0
10003102:	4463      	add	r3, ip
10003104:	6293      	str	r3, [r2, #40]	; 0x28
10003106:	1c20      	adds	r0, r4, #0
10003108:	f7ff ff7c 	bl	10003004 <Init_Smooth_Transition_To_FOC>
1000310c:	6aa3      	ldr	r3, [r4, #40]	; 0x28
1000310e:	69da      	ldr	r2, [r3, #28]
10003110:	2a00      	cmp	r2, #0
10003112:	db12      	blt.n	1000313a <VF_Smooth_Transition_To_FOC+0x56>
10003114:	2180      	movs	r1, #128	; 0x80
10003116:	01c9      	lsls	r1, r1, #7
10003118:	468c      	mov	ip, r1
1000311a:	6b98      	ldr	r0, [r3, #56]	; 0x38
1000311c:	8a99      	ldrh	r1, [r3, #20]
1000311e:	6a5a      	ldr	r2, [r3, #36]	; 0x24
10003120:	4341      	muls	r1, r0
10003122:	8918      	ldrh	r0, [r3, #8]
10003124:	4462      	add	r2, ip
10003126:	4101      	asrs	r1, r0
10003128:	625a      	str	r2, [r3, #36]	; 0x24
1000312a:	6119      	str	r1, [r3, #16]
1000312c:	5d60      	ldrb	r0, [r4, r5]
1000312e:	6a9b      	ldr	r3, [r3, #40]	; 0x28
10003130:	0bd2      	lsrs	r2, r2, #15
10003132:	121b      	asrs	r3, r3, #8
10003134:	65e2      	str	r2, [r4, #92]	; 0x5c
10003136:	65a3      	str	r3, [r4, #88]	; 0x58
10003138:	bd38      	pop	{r3, r4, r5, pc}
1000313a:	4818      	ldr	r0, [pc, #96]	; (1000319c <VF_Smooth_Transition_To_FOC+0xb8>)
1000313c:	2201      	movs	r2, #1
1000313e:	6801      	ldr	r1, [r0, #0]
10003140:	2900      	cmp	r1, #0
10003142:	db23      	blt.n	1000318c <VF_Smooth_Transition_To_FOC+0xa8>
10003144:	6918      	ldr	r0, [r3, #16]
10003146:	4281      	cmp	r1, r0
10003148:	d812      	bhi.n	10003170 <VF_Smooth_Transition_To_FOC+0x8c>
1000314a:	6b99      	ldr	r1, [r3, #56]	; 0x38
1000314c:	8ada      	ldrh	r2, [r3, #22]
1000314e:	434a      	muls	r2, r1
10003150:	8919      	ldrh	r1, [r3, #8]
10003152:	410a      	asrs	r2, r1
10003154:	611a      	str	r2, [r3, #16]
10003156:	7e1a      	ldrb	r2, [r3, #24]
10003158:	2a00      	cmp	r2, #0
1000315a:	d105      	bne.n	10003168 <VF_Smooth_Transition_To_FOC+0x84>
1000315c:	22b4      	movs	r2, #180	; 0xb4
1000315e:	2101      	movs	r1, #1
10003160:	54a1      	strb	r1, [r4, r2]
10003162:	6a5a      	ldr	r2, [r3, #36]	; 0x24
10003164:	2001      	movs	r0, #1
10003166:	e7e2      	b.n	1000312e <VF_Smooth_Transition_To_FOC+0x4a>
10003168:	21b4      	movs	r1, #180	; 0xb4
1000316a:	6a5a      	ldr	r2, [r3, #36]	; 0x24
1000316c:	5c60      	ldrb	r0, [r4, r1]
1000316e:	e7de      	b.n	1000312e <VF_Smooth_Transition_To_FOC+0x4a>
10003170:	6a59      	ldr	r1, [r3, #36]	; 0x24
10003172:	6b98      	ldr	r0, [r3, #56]	; 0x38
10003174:	468c      	mov	ip, r1
10003176:	8a99      	ldrh	r1, [r3, #20]
10003178:	0392      	lsls	r2, r2, #14
1000317a:	4341      	muls	r1, r0
1000317c:	8918      	ldrh	r0, [r3, #8]
1000317e:	4462      	add	r2, ip
10003180:	4101      	asrs	r1, r0
10003182:	6119      	str	r1, [r3, #16]
10003184:	21b4      	movs	r1, #180	; 0xb4
10003186:	625a      	str	r2, [r3, #36]	; 0x24
10003188:	5c60      	ldrb	r0, [r4, r1]
1000318a:	e7d0      	b.n	1000312e <VF_Smooth_Transition_To_FOC+0x4a>
1000318c:	22a0      	movs	r2, #160	; 0xa0
1000318e:	4249      	negs	r1, r1
10003190:	6001      	str	r1, [r0, #0]
10003192:	6a58      	ldr	r0, [r3, #36]	; 0x24
10003194:	02d2      	lsls	r2, r2, #11
10003196:	4282      	cmp	r2, r0
10003198:	4192      	sbcs	r2, r2
1000319a:	e7d3      	b.n	10003144 <VF_Smooth_Transition_To_FOC+0x60>
1000319c:	20001928 	.word	0x20001928

100031a0 <Init_FOC_RotorAngle>:
100031a0:	21c0      	movs	r1, #192	; 0xc0
100031a2:	4b06      	ldr	r3, [pc, #24]	; (100031bc <Init_FOC_RotorAngle+0x1c>)
100031a4:	0609      	lsls	r1, r1, #24
100031a6:	681b      	ldr	r3, [r3, #0]
100031a8:	6a82      	ldr	r2, [r0, #40]	; 0x28
100031aa:	1859      	adds	r1, r3, r1
100031ac:	2310      	movs	r3, #16
100031ae:	8910      	ldrh	r0, [r2, #8]
100031b0:	1a1b      	subs	r3, r3, r0
100031b2:	6b90      	ldr	r0, [r2, #56]	; 0x38
100031b4:	4098      	lsls	r0, r3
100031b6:	180b      	adds	r3, r1, r0
100031b8:	6513      	str	r3, [r2, #80]	; 0x50
100031ba:	4770      	bx	lr
100031bc:	20001920 	.word	0x20001920

100031c0 <Init_FOC_PI_Iks>:
100031c0:	b530      	push	{r4, r5, lr}
100031c2:	6a85      	ldr	r5, [r0, #40]	; 0x28
100031c4:	6984      	ldr	r4, [r0, #24]
100031c6:	301c      	adds	r0, #28
100031c8:	c80e      	ldmia	r0!, {r1, r2, r3}
100031ca:	4810      	ldr	r0, [pc, #64]	; (1000320c <Init_FOC_PI_Iks+0x4c>)
100031cc:	6800      	ldr	r0, [r0, #0]
100031ce:	60a0      	str	r0, [r4, #8]
100031d0:	480f      	ldr	r0, [pc, #60]	; (10003210 <Init_FOC_PI_Iks+0x50>)
100031d2:	6800      	ldr	r0, [r0, #0]
100031d4:	6088      	str	r0, [r1, #8]
100031d6:	480f      	ldr	r0, [pc, #60]	; (10003214 <Init_FOC_PI_Iks+0x54>)
100031d8:	6800      	ldr	r0, [r0, #0]
100031da:	6090      	str	r0, [r2, #8]
100031dc:	6ba8      	ldr	r0, [r5, #56]	; 0x38
100031de:	6098      	str	r0, [r3, #8]
100031e0:	2510      	movs	r5, #16
100031e2:	5f60      	ldrsh	r0, [r4, r5]
100031e4:	68a5      	ldr	r5, [r4, #8]
100031e6:	4085      	lsls	r5, r0
100031e8:	60a5      	str	r5, [r4, #8]
100031ea:	2410      	movs	r4, #16
100031ec:	5f08      	ldrsh	r0, [r1, r4]
100031ee:	688c      	ldr	r4, [r1, #8]
100031f0:	4084      	lsls	r4, r0
100031f2:	608c      	str	r4, [r1, #8]
100031f4:	2010      	movs	r0, #16
100031f6:	5e11      	ldrsh	r1, [r2, r0]
100031f8:	6890      	ldr	r0, [r2, #8]
100031fa:	4088      	lsls	r0, r1
100031fc:	6090      	str	r0, [r2, #8]
100031fe:	2110      	movs	r1, #16
10003200:	5e5a      	ldrsh	r2, [r3, r1]
10003202:	6899      	ldr	r1, [r3, #8]
10003204:	4091      	lsls	r1, r2
10003206:	6099      	str	r1, [r3, #8]
10003208:	bd30      	pop	{r4, r5, pc}
1000320a:	46c0      	nop			; (mov r8, r8)
1000320c:	20001924 	.word	0x20001924
10003210:	2000191c 	.word	0x2000191c
10003214:	20001918 	.word	0x20001918

10003218 <__gnu_thumb1_case_uqi>:
10003218:	b402      	push	{r1}
1000321a:	4671      	mov	r1, lr
1000321c:	0849      	lsrs	r1, r1, #1
1000321e:	0049      	lsls	r1, r1, #1
10003220:	5c09      	ldrb	r1, [r1, r0]
10003222:	0049      	lsls	r1, r1, #1
10003224:	448e      	add	lr, r1
10003226:	bc02      	pop	{r1}
10003228:	4770      	bx	lr
1000322a:	46c0      	nop			; (mov r8, r8)

1000322c <__gnu_thumb1_case_uhi>:
1000322c:	b403      	push	{r0, r1}
1000322e:	4671      	mov	r1, lr
10003230:	0849      	lsrs	r1, r1, #1
10003232:	0040      	lsls	r0, r0, #1
10003234:	0049      	lsls	r1, r1, #1
10003236:	5a09      	ldrh	r1, [r1, r0]
10003238:	0049      	lsls	r1, r1, #1
1000323a:	448e      	add	lr, r1
1000323c:	bc03      	pop	{r0, r1}
1000323e:	4770      	bx	lr

10003240 <__clzsi2>:
10003240:	211c      	movs	r1, #28
10003242:	2301      	movs	r3, #1
10003244:	041b      	lsls	r3, r3, #16
10003246:	4298      	cmp	r0, r3
10003248:	d301      	bcc.n	1000324e <__clzsi2+0xe>
1000324a:	0c00      	lsrs	r0, r0, #16
1000324c:	3910      	subs	r1, #16
1000324e:	0a1b      	lsrs	r3, r3, #8
10003250:	4298      	cmp	r0, r3
10003252:	d301      	bcc.n	10003258 <__clzsi2+0x18>
10003254:	0a00      	lsrs	r0, r0, #8
10003256:	3908      	subs	r1, #8
10003258:	091b      	lsrs	r3, r3, #4
1000325a:	4298      	cmp	r0, r3
1000325c:	d301      	bcc.n	10003262 <__clzsi2+0x22>
1000325e:	0900      	lsrs	r0, r0, #4
10003260:	3904      	subs	r1, #4
10003262:	a202      	add	r2, pc, #8	; (adr r2, 1000326c <__clzsi2+0x2c>)
10003264:	5c10      	ldrb	r0, [r2, r0]
10003266:	1840      	adds	r0, r0, r1
10003268:	4770      	bx	lr
1000326a:	46c0      	nop			; (mov r8, r8)
1000326c:	02020304 	.word	0x02020304
10003270:	01010101 	.word	0x01010101
	...

1000327c <__errno>:
1000327c:	4b01      	ldr	r3, [pc, #4]	; (10003284 <__errno+0x8>)
1000327e:	6818      	ldr	r0, [r3, #0]
10003280:	4770      	bx	lr
10003282:	46c0      	nop			; (mov r8, r8)
10003284:	20000b0c 	.word	0x20000b0c

10003288 <__libc_init_array>:
10003288:	4b0e      	ldr	r3, [pc, #56]	; (100032c4 <__libc_init_array+0x3c>)
1000328a:	b570      	push	{r4, r5, r6, lr}
1000328c:	2500      	movs	r5, #0
1000328e:	1c1e      	adds	r6, r3, #0
10003290:	4c0d      	ldr	r4, [pc, #52]	; (100032c8 <__libc_init_array+0x40>)
10003292:	1ae4      	subs	r4, r4, r3
10003294:	10a4      	asrs	r4, r4, #2
10003296:	42a5      	cmp	r5, r4
10003298:	d004      	beq.n	100032a4 <__libc_init_array+0x1c>
1000329a:	00ab      	lsls	r3, r5, #2
1000329c:	58f3      	ldr	r3, [r6, r3]
1000329e:	4798      	blx	r3
100032a0:	3501      	adds	r5, #1
100032a2:	e7f8      	b.n	10003296 <__libc_init_array+0xe>
100032a4:	f7fe fcb0 	bl	10001c08 <_init>
100032a8:	4b08      	ldr	r3, [pc, #32]	; (100032cc <__libc_init_array+0x44>)
100032aa:	2500      	movs	r5, #0
100032ac:	1c1e      	adds	r6, r3, #0
100032ae:	4c08      	ldr	r4, [pc, #32]	; (100032d0 <__libc_init_array+0x48>)
100032b0:	1ae4      	subs	r4, r4, r3
100032b2:	10a4      	asrs	r4, r4, #2
100032b4:	42a5      	cmp	r5, r4
100032b6:	d004      	beq.n	100032c2 <__libc_init_array+0x3a>
100032b8:	00ab      	lsls	r3, r5, #2
100032ba:	58f3      	ldr	r3, [r6, r3]
100032bc:	4798      	blx	r3
100032be:	3501      	adds	r5, #1
100032c0:	e7f8      	b.n	100032b4 <__libc_init_array+0x2c>
100032c2:	bd70      	pop	{r4, r5, r6, pc}
100032c4:	20000b4c 	.word	0x20000b4c
100032c8:	20000b4c 	.word	0x20000b4c
100032cc:	20000b4c 	.word	0x20000b4c
100032d0:	20000b4c 	.word	0x20000b4c

100032d4 <memcpy>:
100032d4:	2300      	movs	r3, #0
100032d6:	b510      	push	{r4, lr}
100032d8:	4293      	cmp	r3, r2
100032da:	d003      	beq.n	100032e4 <memcpy+0x10>
100032dc:	5ccc      	ldrb	r4, [r1, r3]
100032de:	54c4      	strb	r4, [r0, r3]
100032e0:	3301      	adds	r3, #1
100032e2:	e7f9      	b.n	100032d8 <memcpy+0x4>
100032e4:	bd10      	pop	{r4, pc}

100032e6 <memset>:
100032e6:	1c03      	adds	r3, r0, #0
100032e8:	1882      	adds	r2, r0, r2
100032ea:	4293      	cmp	r3, r2
100032ec:	d002      	beq.n	100032f4 <memset+0xe>
100032ee:	7019      	strb	r1, [r3, #0]
100032f0:	3301      	adds	r3, #1
100032f2:	e7fa      	b.n	100032ea <memset+0x4>
100032f4:	4770      	bx	lr

100032f6 <__cvt>:
100032f6:	b5f0      	push	{r4, r5, r6, r7, lr}
100032f8:	b08b      	sub	sp, #44	; 0x2c
100032fa:	1c14      	adds	r4, r2, #0
100032fc:	1e1d      	subs	r5, r3, #0
100032fe:	9912      	ldr	r1, [sp, #72]	; 0x48
10003300:	da06      	bge.n	10003310 <__cvt+0x1a>
10003302:	2480      	movs	r4, #128	; 0x80
10003304:	0624      	lsls	r4, r4, #24
10003306:	192b      	adds	r3, r5, r4
10003308:	1c1d      	adds	r5, r3, #0
1000330a:	1c14      	adds	r4, r2, #0
1000330c:	232d      	movs	r3, #45	; 0x2d
1000330e:	e000      	b.n	10003312 <__cvt+0x1c>
10003310:	2300      	movs	r3, #0
10003312:	700b      	strb	r3, [r1, #0]
10003314:	2320      	movs	r3, #32
10003316:	9e14      	ldr	r6, [sp, #80]	; 0x50
10003318:	2203      	movs	r2, #3
1000331a:	439e      	bics	r6, r3
1000331c:	2e46      	cmp	r6, #70	; 0x46
1000331e:	d007      	beq.n	10003330 <__cvt+0x3a>
10003320:	1c33      	adds	r3, r6, #0
10003322:	3b45      	subs	r3, #69	; 0x45
10003324:	4259      	negs	r1, r3
10003326:	414b      	adcs	r3, r1
10003328:	9910      	ldr	r1, [sp, #64]	; 0x40
1000332a:	3a01      	subs	r2, #1
1000332c:	18cb      	adds	r3, r1, r3
1000332e:	9310      	str	r3, [sp, #64]	; 0x40
10003330:	9b10      	ldr	r3, [sp, #64]	; 0x40
10003332:	9200      	str	r2, [sp, #0]
10003334:	9301      	str	r3, [sp, #4]
10003336:	9b13      	ldr	r3, [sp, #76]	; 0x4c
10003338:	1c22      	adds	r2, r4, #0
1000333a:	9302      	str	r3, [sp, #8]
1000333c:	ab08      	add	r3, sp, #32
1000333e:	9303      	str	r3, [sp, #12]
10003340:	ab09      	add	r3, sp, #36	; 0x24
10003342:	9304      	str	r3, [sp, #16]
10003344:	1c2b      	adds	r3, r5, #0
10003346:	f001 fdc5 	bl	10004ed4 <_dtoa_r>
1000334a:	1c07      	adds	r7, r0, #0
1000334c:	2e47      	cmp	r6, #71	; 0x47
1000334e:	d102      	bne.n	10003356 <__cvt+0x60>
10003350:	9b11      	ldr	r3, [sp, #68]	; 0x44
10003352:	07db      	lsls	r3, r3, #31
10003354:	d52c      	bpl.n	100033b0 <__cvt+0xba>
10003356:	9b10      	ldr	r3, [sp, #64]	; 0x40
10003358:	18fb      	adds	r3, r7, r3
1000335a:	9307      	str	r3, [sp, #28]
1000335c:	2e46      	cmp	r6, #70	; 0x46
1000335e:	d114      	bne.n	1000338a <__cvt+0x94>
10003360:	783b      	ldrb	r3, [r7, #0]
10003362:	2b30      	cmp	r3, #48	; 0x30
10003364:	d10c      	bne.n	10003380 <__cvt+0x8a>
10003366:	1c20      	adds	r0, r4, #0
10003368:	1c29      	adds	r1, r5, #0
1000336a:	2200      	movs	r2, #0
1000336c:	2300      	movs	r3, #0
1000336e:	f003 fd63 	bl	10006e38 <__aeabi_dcmpeq>
10003372:	2800      	cmp	r0, #0
10003374:	d104      	bne.n	10003380 <__cvt+0x8a>
10003376:	2301      	movs	r3, #1
10003378:	9a10      	ldr	r2, [sp, #64]	; 0x40
1000337a:	1a9b      	subs	r3, r3, r2
1000337c:	9a13      	ldr	r2, [sp, #76]	; 0x4c
1000337e:	6013      	str	r3, [r2, #0]
10003380:	9b13      	ldr	r3, [sp, #76]	; 0x4c
10003382:	9a07      	ldr	r2, [sp, #28]
10003384:	681b      	ldr	r3, [r3, #0]
10003386:	18d3      	adds	r3, r2, r3
10003388:	9307      	str	r3, [sp, #28]
1000338a:	1c20      	adds	r0, r4, #0
1000338c:	1c29      	adds	r1, r5, #0
1000338e:	2200      	movs	r2, #0
10003390:	2300      	movs	r3, #0
10003392:	f003 fd51 	bl	10006e38 <__aeabi_dcmpeq>
10003396:	2800      	cmp	r0, #0
10003398:	d001      	beq.n	1000339e <__cvt+0xa8>
1000339a:	9b07      	ldr	r3, [sp, #28]
1000339c:	9309      	str	r3, [sp, #36]	; 0x24
1000339e:	9b09      	ldr	r3, [sp, #36]	; 0x24
100033a0:	9a07      	ldr	r2, [sp, #28]
100033a2:	4293      	cmp	r3, r2
100033a4:	d204      	bcs.n	100033b0 <__cvt+0xba>
100033a6:	1c5a      	adds	r2, r3, #1
100033a8:	9209      	str	r2, [sp, #36]	; 0x24
100033aa:	2230      	movs	r2, #48	; 0x30
100033ac:	701a      	strb	r2, [r3, #0]
100033ae:	e7f6      	b.n	1000339e <__cvt+0xa8>
100033b0:	1c38      	adds	r0, r7, #0
100033b2:	9b09      	ldr	r3, [sp, #36]	; 0x24
100033b4:	9a15      	ldr	r2, [sp, #84]	; 0x54
100033b6:	1bdb      	subs	r3, r3, r7
100033b8:	6013      	str	r3, [r2, #0]
100033ba:	b00b      	add	sp, #44	; 0x2c
100033bc:	bdf0      	pop	{r4, r5, r6, r7, pc}

100033be <__exponent>:
100033be:	b5f7      	push	{r0, r1, r2, r4, r5, r6, r7, lr}
100033c0:	232b      	movs	r3, #43	; 0x2b
100033c2:	1c07      	adds	r7, r0, #0
100033c4:	1c0c      	adds	r4, r1, #0
100033c6:	7002      	strb	r2, [r0, #0]
100033c8:	1c86      	adds	r6, r0, #2
100033ca:	2900      	cmp	r1, #0
100033cc:	da01      	bge.n	100033d2 <__exponent+0x14>
100033ce:	232d      	movs	r3, #45	; 0x2d
100033d0:	424c      	negs	r4, r1
100033d2:	707b      	strb	r3, [r7, #1]
100033d4:	2c09      	cmp	r4, #9
100033d6:	dd1c      	ble.n	10003412 <__exponent+0x54>
100033d8:	466b      	mov	r3, sp
100033da:	1ddd      	adds	r5, r3, #7
100033dc:	1c20      	adds	r0, r4, #0
100033de:	210a      	movs	r1, #10
100033e0:	f7fe f8f2 	bl	100015c8 <__aeabi_idivmod>
100033e4:	3d01      	subs	r5, #1
100033e6:	3130      	adds	r1, #48	; 0x30
100033e8:	7029      	strb	r1, [r5, #0]
100033ea:	1c20      	adds	r0, r4, #0
100033ec:	210a      	movs	r1, #10
100033ee:	f7fe f8cb 	bl	10001588 <__aeabi_idiv>
100033f2:	1e04      	subs	r4, r0, #0
100033f4:	2c09      	cmp	r4, #9
100033f6:	dcf1      	bgt.n	100033dc <__exponent+0x1e>
100033f8:	3d01      	subs	r5, #1
100033fa:	3430      	adds	r4, #48	; 0x30
100033fc:	702c      	strb	r4, [r5, #0]
100033fe:	466b      	mov	r3, sp
10003400:	3307      	adds	r3, #7
10003402:	1c30      	adds	r0, r6, #0
10003404:	42ab      	cmp	r3, r5
10003406:	d909      	bls.n	1000341c <__exponent+0x5e>
10003408:	782b      	ldrb	r3, [r5, #0]
1000340a:	3501      	adds	r5, #1
1000340c:	7033      	strb	r3, [r6, #0]
1000340e:	3601      	adds	r6, #1
10003410:	e7f5      	b.n	100033fe <__exponent+0x40>
10003412:	2330      	movs	r3, #48	; 0x30
10003414:	18e4      	adds	r4, r4, r3
10003416:	7033      	strb	r3, [r6, #0]
10003418:	1cb0      	adds	r0, r6, #2
1000341a:	7074      	strb	r4, [r6, #1]
1000341c:	1bc0      	subs	r0, r0, r7
1000341e:	bdfe      	pop	{r1, r2, r3, r4, r5, r6, r7, pc}

10003420 <_printf_float>:
10003420:	b5f0      	push	{r4, r5, r6, r7, lr}
10003422:	b093      	sub	sp, #76	; 0x4c
10003424:	1c0c      	adds	r4, r1, #0
10003426:	9208      	str	r2, [sp, #32]
10003428:	9e18      	ldr	r6, [sp, #96]	; 0x60
1000342a:	9309      	str	r3, [sp, #36]	; 0x24
1000342c:	1c05      	adds	r5, r0, #0
1000342e:	f002 fe69 	bl	10006104 <_localeconv_r>
10003432:	6803      	ldr	r3, [r0, #0]
10003434:	1c18      	adds	r0, r3, #0
10003436:	930b      	str	r3, [sp, #44]	; 0x2c
10003438:	f000 fde8 	bl	1000400c <strlen>
1000343c:	2300      	movs	r3, #0
1000343e:	2207      	movs	r2, #7
10003440:	9310      	str	r3, [sp, #64]	; 0x40
10003442:	6833      	ldr	r3, [r6, #0]
10003444:	900c      	str	r0, [sp, #48]	; 0x30
10003446:	3307      	adds	r3, #7
10003448:	4393      	bics	r3, r2
1000344a:	1c1a      	adds	r2, r3, #0
1000344c:	6818      	ldr	r0, [r3, #0]
1000344e:	6859      	ldr	r1, [r3, #4]
10003450:	3208      	adds	r2, #8
10003452:	7e27      	ldrb	r7, [r4, #24]
10003454:	6032      	str	r2, [r6, #0]
10003456:	64a0      	str	r0, [r4, #72]	; 0x48
10003458:	64e1      	str	r1, [r4, #76]	; 0x4c
1000345a:	f000 fd89 	bl	10003f70 <__fpclassifyd>
1000345e:	2801      	cmp	r0, #1
10003460:	d118      	bne.n	10003494 <_printf_float+0x74>
10003462:	6ca0      	ldr	r0, [r4, #72]	; 0x48
10003464:	6ce1      	ldr	r1, [r4, #76]	; 0x4c
10003466:	2200      	movs	r2, #0
10003468:	2300      	movs	r3, #0
1000346a:	f003 fceb 	bl	10006e44 <__aeabi_dcmplt>
1000346e:	2800      	cmp	r0, #0
10003470:	d003      	beq.n	1000347a <_printf_float+0x5a>
10003472:	1c23      	adds	r3, r4, #0
10003474:	222d      	movs	r2, #45	; 0x2d
10003476:	3343      	adds	r3, #67	; 0x43
10003478:	701a      	strb	r2, [r3, #0]
1000347a:	4bb7      	ldr	r3, [pc, #732]	; (10003758 <_printf_float+0x338>)
1000347c:	930a      	str	r3, [sp, #40]	; 0x28
1000347e:	2f47      	cmp	r7, #71	; 0x47
10003480:	d901      	bls.n	10003486 <_printf_float+0x66>
10003482:	4bb6      	ldr	r3, [pc, #728]	; (1000375c <_printf_float+0x33c>)
10003484:	930a      	str	r3, [sp, #40]	; 0x28
10003486:	2303      	movs	r3, #3
10003488:	6822      	ldr	r2, [r4, #0]
1000348a:	6123      	str	r3, [r4, #16]
1000348c:	3301      	adds	r3, #1
1000348e:	439a      	bics	r2, r3
10003490:	6022      	str	r2, [r4, #0]
10003492:	e012      	b.n	100034ba <_printf_float+0x9a>
10003494:	6ca0      	ldr	r0, [r4, #72]	; 0x48
10003496:	6ce1      	ldr	r1, [r4, #76]	; 0x4c
10003498:	f000 fd6a 	bl	10003f70 <__fpclassifyd>
1000349c:	6826      	ldr	r6, [r4, #0]
1000349e:	2800      	cmp	r0, #0
100034a0:	d10d      	bne.n	100034be <_printf_float+0x9e>
100034a2:	4baf      	ldr	r3, [pc, #700]	; (10003760 <_printf_float+0x340>)
100034a4:	930a      	str	r3, [sp, #40]	; 0x28
100034a6:	2f47      	cmp	r7, #71	; 0x47
100034a8:	d901      	bls.n	100034ae <_printf_float+0x8e>
100034aa:	4bae      	ldr	r3, [pc, #696]	; (10003764 <_printf_float+0x344>)
100034ac:	930a      	str	r3, [sp, #40]	; 0x28
100034ae:	2303      	movs	r3, #3
100034b0:	1c31      	adds	r1, r6, #0
100034b2:	6123      	str	r3, [r4, #16]
100034b4:	3301      	adds	r3, #1
100034b6:	4399      	bics	r1, r3
100034b8:	6021      	str	r1, [r4, #0]
100034ba:	2600      	movs	r6, #0
100034bc:	e080      	b.n	100035c0 <_printf_float+0x1a0>
100034be:	2180      	movs	r1, #128	; 0x80
100034c0:	6860      	ldr	r0, [r4, #4]
100034c2:	00c9      	lsls	r1, r1, #3
100034c4:	1c43      	adds	r3, r0, #1
100034c6:	d101      	bne.n	100034cc <_printf_float+0xac>
100034c8:	2306      	movs	r3, #6
100034ca:	e009      	b.n	100034e0 <_printf_float+0xc0>
100034cc:	6ca2      	ldr	r2, [r4, #72]	; 0x48
100034ce:	6ce3      	ldr	r3, [r4, #76]	; 0x4c
100034d0:	2f67      	cmp	r7, #103	; 0x67
100034d2:	d001      	beq.n	100034d8 <_printf_float+0xb8>
100034d4:	2f47      	cmp	r7, #71	; 0x47
100034d6:	d104      	bne.n	100034e2 <_printf_float+0xc2>
100034d8:	2800      	cmp	r0, #0
100034da:	d000      	beq.n	100034de <_printf_float+0xbe>
100034dc:	e1c1      	b.n	10003862 <_printf_float+0x442>
100034de:	2301      	movs	r3, #1
100034e0:	6063      	str	r3, [r4, #4]
100034e2:	6863      	ldr	r3, [r4, #4]
100034e4:	4331      	orrs	r1, r6
100034e6:	9300      	str	r3, [sp, #0]
100034e8:	2323      	movs	r3, #35	; 0x23
100034ea:	6021      	str	r1, [r4, #0]
100034ec:	9101      	str	r1, [sp, #4]
100034ee:	2100      	movs	r1, #0
100034f0:	aa06      	add	r2, sp, #24
100034f2:	189b      	adds	r3, r3, r2
100034f4:	9302      	str	r3, [sp, #8]
100034f6:	ab0f      	add	r3, sp, #60	; 0x3c
100034f8:	9303      	str	r3, [sp, #12]
100034fa:	ab10      	add	r3, sp, #64	; 0x40
100034fc:	9305      	str	r3, [sp, #20]
100034fe:	9704      	str	r7, [sp, #16]
10003500:	6ca2      	ldr	r2, [r4, #72]	; 0x48
10003502:	6ce3      	ldr	r3, [r4, #76]	; 0x4c
10003504:	9106      	str	r1, [sp, #24]
10003506:	1c28      	adds	r0, r5, #0
10003508:	f7ff fef5 	bl	100032f6 <__cvt>
1000350c:	2320      	movs	r3, #32
1000350e:	1c3a      	adds	r2, r7, #0
10003510:	900a      	str	r0, [sp, #40]	; 0x28
10003512:	439a      	bics	r2, r3
10003514:	2a47      	cmp	r2, #71	; 0x47
10003516:	d107      	bne.n	10003528 <_printf_float+0x108>
10003518:	9b0f      	ldr	r3, [sp, #60]	; 0x3c
1000351a:	1cda      	adds	r2, r3, #3
1000351c:	db02      	blt.n	10003524 <_printf_float+0x104>
1000351e:	6862      	ldr	r2, [r4, #4]
10003520:	4293      	cmp	r3, r2
10003522:	dd2d      	ble.n	10003580 <_printf_float+0x160>
10003524:	3f02      	subs	r7, #2
10003526:	b2ff      	uxtb	r7, r7
10003528:	990f      	ldr	r1, [sp, #60]	; 0x3c
1000352a:	2f65      	cmp	r7, #101	; 0x65
1000352c:	d812      	bhi.n	10003554 <_printf_float+0x134>
1000352e:	1c20      	adds	r0, r4, #0
10003530:	3901      	subs	r1, #1
10003532:	1c3a      	adds	r2, r7, #0
10003534:	3050      	adds	r0, #80	; 0x50
10003536:	910f      	str	r1, [sp, #60]	; 0x3c
10003538:	f7ff ff41 	bl	100033be <__exponent>
1000353c:	9a10      	ldr	r2, [sp, #64]	; 0x40
1000353e:	1c06      	adds	r6, r0, #0
10003540:	1883      	adds	r3, r0, r2
10003542:	6123      	str	r3, [r4, #16]
10003544:	2a01      	cmp	r2, #1
10003546:	dc02      	bgt.n	1000354e <_printf_float+0x12e>
10003548:	6822      	ldr	r2, [r4, #0]
1000354a:	07d2      	lsls	r2, r2, #31
1000354c:	d52e      	bpl.n	100035ac <_printf_float+0x18c>
1000354e:	3301      	adds	r3, #1
10003550:	6123      	str	r3, [r4, #16]
10003552:	e02b      	b.n	100035ac <_printf_float+0x18c>
10003554:	2f66      	cmp	r7, #102	; 0x66
10003556:	d114      	bne.n	10003582 <_printf_float+0x162>
10003558:	6863      	ldr	r3, [r4, #4]
1000355a:	2900      	cmp	r1, #0
1000355c:	dd08      	ble.n	10003570 <_printf_float+0x150>
1000355e:	6121      	str	r1, [r4, #16]
10003560:	2b00      	cmp	r3, #0
10003562:	d102      	bne.n	1000356a <_printf_float+0x14a>
10003564:	6822      	ldr	r2, [r4, #0]
10003566:	07d2      	lsls	r2, r2, #31
10003568:	d51d      	bpl.n	100035a6 <_printf_float+0x186>
1000356a:	3301      	adds	r3, #1
1000356c:	18cb      	adds	r3, r1, r3
1000356e:	e011      	b.n	10003594 <_printf_float+0x174>
10003570:	2b00      	cmp	r3, #0
10003572:	d103      	bne.n	1000357c <_printf_float+0x15c>
10003574:	2201      	movs	r2, #1
10003576:	6821      	ldr	r1, [r4, #0]
10003578:	4211      	tst	r1, r2
1000357a:	d013      	beq.n	100035a4 <_printf_float+0x184>
1000357c:	1c9a      	adds	r2, r3, #2
1000357e:	e011      	b.n	100035a4 <_printf_float+0x184>
10003580:	2767      	movs	r7, #103	; 0x67
10003582:	9b0f      	ldr	r3, [sp, #60]	; 0x3c
10003584:	9810      	ldr	r0, [sp, #64]	; 0x40
10003586:	4283      	cmp	r3, r0
10003588:	db06      	blt.n	10003598 <_printf_float+0x178>
1000358a:	6822      	ldr	r2, [r4, #0]
1000358c:	6123      	str	r3, [r4, #16]
1000358e:	07d2      	lsls	r2, r2, #31
10003590:	d509      	bpl.n	100035a6 <_printf_float+0x186>
10003592:	3301      	adds	r3, #1
10003594:	6123      	str	r3, [r4, #16]
10003596:	e006      	b.n	100035a6 <_printf_float+0x186>
10003598:	2201      	movs	r2, #1
1000359a:	2b00      	cmp	r3, #0
1000359c:	dc01      	bgt.n	100035a2 <_printf_float+0x182>
1000359e:	2102      	movs	r1, #2
100035a0:	1aca      	subs	r2, r1, r3
100035a2:	1882      	adds	r2, r0, r2
100035a4:	6122      	str	r2, [r4, #16]
100035a6:	2600      	movs	r6, #0
100035a8:	9b0f      	ldr	r3, [sp, #60]	; 0x3c
100035aa:	65a3      	str	r3, [r4, #88]	; 0x58
100035ac:	2323      	movs	r3, #35	; 0x23
100035ae:	aa06      	add	r2, sp, #24
100035b0:	189b      	adds	r3, r3, r2
100035b2:	781b      	ldrb	r3, [r3, #0]
100035b4:	2b00      	cmp	r3, #0
100035b6:	d003      	beq.n	100035c0 <_printf_float+0x1a0>
100035b8:	1c23      	adds	r3, r4, #0
100035ba:	222d      	movs	r2, #45	; 0x2d
100035bc:	3343      	adds	r3, #67	; 0x43
100035be:	701a      	strb	r2, [r3, #0]
100035c0:	9b09      	ldr	r3, [sp, #36]	; 0x24
100035c2:	1c28      	adds	r0, r5, #0
100035c4:	9300      	str	r3, [sp, #0]
100035c6:	1c21      	adds	r1, r4, #0
100035c8:	9b08      	ldr	r3, [sp, #32]
100035ca:	aa11      	add	r2, sp, #68	; 0x44
100035cc:	f000 f960 	bl	10003890 <_printf_common>
100035d0:	1c43      	adds	r3, r0, #1
100035d2:	d102      	bne.n	100035da <_printf_float+0x1ba>
100035d4:	2001      	movs	r0, #1
100035d6:	4240      	negs	r0, r0
100035d8:	e157      	b.n	1000388a <_printf_float+0x46a>
100035da:	6822      	ldr	r2, [r4, #0]
100035dc:	0553      	lsls	r3, r2, #21
100035de:	d404      	bmi.n	100035ea <_printf_float+0x1ca>
100035e0:	1c28      	adds	r0, r5, #0
100035e2:	9908      	ldr	r1, [sp, #32]
100035e4:	9a0a      	ldr	r2, [sp, #40]	; 0x28
100035e6:	6923      	ldr	r3, [r4, #16]
100035e8:	e117      	b.n	1000381a <_printf_float+0x3fa>
100035ea:	2f65      	cmp	r7, #101	; 0x65
100035ec:	d800      	bhi.n	100035f0 <_printf_float+0x1d0>
100035ee:	e0d5      	b.n	1000379c <_printf_float+0x37c>
100035f0:	6ca0      	ldr	r0, [r4, #72]	; 0x48
100035f2:	6ce1      	ldr	r1, [r4, #76]	; 0x4c
100035f4:	2200      	movs	r2, #0
100035f6:	2300      	movs	r3, #0
100035f8:	f003 fc1e 	bl	10006e38 <__aeabi_dcmpeq>
100035fc:	2800      	cmp	r0, #0
100035fe:	d02b      	beq.n	10003658 <_printf_float+0x238>
10003600:	2301      	movs	r3, #1
10003602:	1c28      	adds	r0, r5, #0
10003604:	9908      	ldr	r1, [sp, #32]
10003606:	4a58      	ldr	r2, [pc, #352]	; (10003768 <_printf_float+0x348>)
10003608:	9e09      	ldr	r6, [sp, #36]	; 0x24
1000360a:	47b0      	blx	r6
1000360c:	1c43      	adds	r3, r0, #1
1000360e:	d0e1      	beq.n	100035d4 <_printf_float+0x1b4>
10003610:	9b0f      	ldr	r3, [sp, #60]	; 0x3c
10003612:	9a10      	ldr	r2, [sp, #64]	; 0x40
10003614:	4293      	cmp	r3, r2
10003616:	db07      	blt.n	10003628 <_printf_float+0x208>
10003618:	6823      	ldr	r3, [r4, #0]
1000361a:	07db      	lsls	r3, r3, #31
1000361c:	d404      	bmi.n	10003628 <_printf_float+0x208>
1000361e:	6823      	ldr	r3, [r4, #0]
10003620:	079b      	lsls	r3, r3, #30
10003622:	d500      	bpl.n	10003626 <_printf_float+0x206>
10003624:	e11b      	b.n	1000385e <_printf_float+0x43e>
10003626:	e114      	b.n	10003852 <_printf_float+0x432>
10003628:	9e09      	ldr	r6, [sp, #36]	; 0x24
1000362a:	1c28      	adds	r0, r5, #0
1000362c:	9908      	ldr	r1, [sp, #32]
1000362e:	9a0b      	ldr	r2, [sp, #44]	; 0x2c
10003630:	9b0c      	ldr	r3, [sp, #48]	; 0x30
10003632:	47b0      	blx	r6
10003634:	2600      	movs	r6, #0
10003636:	1c43      	adds	r3, r0, #1
10003638:	d0cc      	beq.n	100035d4 <_printf_float+0x1b4>
1000363a:	9b10      	ldr	r3, [sp, #64]	; 0x40
1000363c:	3b01      	subs	r3, #1
1000363e:	429e      	cmp	r6, r3
10003640:	daed      	bge.n	1000361e <_printf_float+0x1fe>
10003642:	1c22      	adds	r2, r4, #0
10003644:	2301      	movs	r3, #1
10003646:	1c28      	adds	r0, r5, #0
10003648:	9908      	ldr	r1, [sp, #32]
1000364a:	321a      	adds	r2, #26
1000364c:	9f09      	ldr	r7, [sp, #36]	; 0x24
1000364e:	47b8      	blx	r7
10003650:	1c43      	adds	r3, r0, #1
10003652:	d0bf      	beq.n	100035d4 <_printf_float+0x1b4>
10003654:	3601      	adds	r6, #1
10003656:	e7f0      	b.n	1000363a <_printf_float+0x21a>
10003658:	9b0f      	ldr	r3, [sp, #60]	; 0x3c
1000365a:	2b00      	cmp	r3, #0
1000365c:	dc2b      	bgt.n	100036b6 <_printf_float+0x296>
1000365e:	2301      	movs	r3, #1
10003660:	1c28      	adds	r0, r5, #0
10003662:	9908      	ldr	r1, [sp, #32]
10003664:	4a40      	ldr	r2, [pc, #256]	; (10003768 <_printf_float+0x348>)
10003666:	9e09      	ldr	r6, [sp, #36]	; 0x24
10003668:	47b0      	blx	r6
1000366a:	1c43      	adds	r3, r0, #1
1000366c:	d0b2      	beq.n	100035d4 <_printf_float+0x1b4>
1000366e:	9b0f      	ldr	r3, [sp, #60]	; 0x3c
10003670:	2b00      	cmp	r3, #0
10003672:	d105      	bne.n	10003680 <_printf_float+0x260>
10003674:	9b10      	ldr	r3, [sp, #64]	; 0x40
10003676:	2b00      	cmp	r3, #0
10003678:	d102      	bne.n	10003680 <_printf_float+0x260>
1000367a:	6823      	ldr	r3, [r4, #0]
1000367c:	07db      	lsls	r3, r3, #31
1000367e:	d5ce      	bpl.n	1000361e <_printf_float+0x1fe>
10003680:	9e09      	ldr	r6, [sp, #36]	; 0x24
10003682:	1c28      	adds	r0, r5, #0
10003684:	9908      	ldr	r1, [sp, #32]
10003686:	9a0b      	ldr	r2, [sp, #44]	; 0x2c
10003688:	9b0c      	ldr	r3, [sp, #48]	; 0x30
1000368a:	47b0      	blx	r6
1000368c:	2600      	movs	r6, #0
1000368e:	1c43      	adds	r3, r0, #1
10003690:	d0a0      	beq.n	100035d4 <_printf_float+0x1b4>
10003692:	9b0f      	ldr	r3, [sp, #60]	; 0x3c
10003694:	1c28      	adds	r0, r5, #0
10003696:	425b      	negs	r3, r3
10003698:	9908      	ldr	r1, [sp, #32]
1000369a:	429e      	cmp	r6, r3
1000369c:	da08      	bge.n	100036b0 <_printf_float+0x290>
1000369e:	1c22      	adds	r2, r4, #0
100036a0:	2301      	movs	r3, #1
100036a2:	321a      	adds	r2, #26
100036a4:	9f09      	ldr	r7, [sp, #36]	; 0x24
100036a6:	47b8      	blx	r7
100036a8:	1c43      	adds	r3, r0, #1
100036aa:	d093      	beq.n	100035d4 <_printf_float+0x1b4>
100036ac:	3601      	adds	r6, #1
100036ae:	e7f0      	b.n	10003692 <_printf_float+0x272>
100036b0:	9a0a      	ldr	r2, [sp, #40]	; 0x28
100036b2:	9b10      	ldr	r3, [sp, #64]	; 0x40
100036b4:	e0b1      	b.n	1000381a <_printf_float+0x3fa>
100036b6:	9b10      	ldr	r3, [sp, #64]	; 0x40
100036b8:	6da6      	ldr	r6, [r4, #88]	; 0x58
100036ba:	429e      	cmp	r6, r3
100036bc:	dd00      	ble.n	100036c0 <_printf_float+0x2a0>
100036be:	1c1e      	adds	r6, r3, #0
100036c0:	2e00      	cmp	r6, #0
100036c2:	dc01      	bgt.n	100036c8 <_printf_float+0x2a8>
100036c4:	2300      	movs	r3, #0
100036c6:	e014      	b.n	100036f2 <_printf_float+0x2d2>
100036c8:	1c33      	adds	r3, r6, #0
100036ca:	1c28      	adds	r0, r5, #0
100036cc:	9908      	ldr	r1, [sp, #32]
100036ce:	9a0a      	ldr	r2, [sp, #40]	; 0x28
100036d0:	9f09      	ldr	r7, [sp, #36]	; 0x24
100036d2:	47b8      	blx	r7
100036d4:	1c43      	adds	r3, r0, #1
100036d6:	d1f5      	bne.n	100036c4 <_printf_float+0x2a4>
100036d8:	e77c      	b.n	100035d4 <_printf_float+0x1b4>
100036da:	1c22      	adds	r2, r4, #0
100036dc:	2301      	movs	r3, #1
100036de:	1c28      	adds	r0, r5, #0
100036e0:	9908      	ldr	r1, [sp, #32]
100036e2:	321a      	adds	r2, #26
100036e4:	9f09      	ldr	r7, [sp, #36]	; 0x24
100036e6:	47b8      	blx	r7
100036e8:	1c43      	adds	r3, r0, #1
100036ea:	d100      	bne.n	100036ee <_printf_float+0x2ce>
100036ec:	e772      	b.n	100035d4 <_printf_float+0x1b4>
100036ee:	9b0d      	ldr	r3, [sp, #52]	; 0x34
100036f0:	3301      	adds	r3, #1
100036f2:	930d      	str	r3, [sp, #52]	; 0x34
100036f4:	43f3      	mvns	r3, r6
100036f6:	6da2      	ldr	r2, [r4, #88]	; 0x58
100036f8:	17db      	asrs	r3, r3, #31
100036fa:	990d      	ldr	r1, [sp, #52]	; 0x34
100036fc:	4033      	ands	r3, r6
100036fe:	1ad3      	subs	r3, r2, r3
10003700:	4299      	cmp	r1, r3
10003702:	dbea      	blt.n	100036da <_printf_float+0x2ba>
10003704:	9b0a      	ldr	r3, [sp, #40]	; 0x28
10003706:	189e      	adds	r6, r3, r2
10003708:	9b0f      	ldr	r3, [sp, #60]	; 0x3c
1000370a:	9a10      	ldr	r2, [sp, #64]	; 0x40
1000370c:	4293      	cmp	r3, r2
1000370e:	db0e      	blt.n	1000372e <_printf_float+0x30e>
10003710:	6823      	ldr	r3, [r4, #0]
10003712:	07db      	lsls	r3, r3, #31
10003714:	d40b      	bmi.n	1000372e <_printf_float+0x30e>
10003716:	9b10      	ldr	r3, [sp, #64]	; 0x40
10003718:	9a0a      	ldr	r2, [sp, #40]	; 0x28
1000371a:	18d7      	adds	r7, r2, r3
1000371c:	9a0f      	ldr	r2, [sp, #60]	; 0x3c
1000371e:	1bbf      	subs	r7, r7, r6
10003720:	1a9b      	subs	r3, r3, r2
10003722:	429f      	cmp	r7, r3
10003724:	dd00      	ble.n	10003728 <_printf_float+0x308>
10003726:	1c1f      	adds	r7, r3, #0
10003728:	2f00      	cmp	r7, #0
1000372a:	dc09      	bgt.n	10003740 <_printf_float+0x320>
1000372c:	e011      	b.n	10003752 <_printf_float+0x332>
1000372e:	9b0c      	ldr	r3, [sp, #48]	; 0x30
10003730:	1c28      	adds	r0, r5, #0
10003732:	9908      	ldr	r1, [sp, #32]
10003734:	9a0b      	ldr	r2, [sp, #44]	; 0x2c
10003736:	9f09      	ldr	r7, [sp, #36]	; 0x24
10003738:	47b8      	blx	r7
1000373a:	1c43      	adds	r3, r0, #1
1000373c:	d1eb      	bne.n	10003716 <_printf_float+0x2f6>
1000373e:	e749      	b.n	100035d4 <_printf_float+0x1b4>
10003740:	1c32      	adds	r2, r6, #0
10003742:	1c3b      	adds	r3, r7, #0
10003744:	1c28      	adds	r0, r5, #0
10003746:	9908      	ldr	r1, [sp, #32]
10003748:	9e09      	ldr	r6, [sp, #36]	; 0x24
1000374a:	47b0      	blx	r6
1000374c:	1c43      	adds	r3, r0, #1
1000374e:	d100      	bne.n	10003752 <_printf_float+0x332>
10003750:	e740      	b.n	100035d4 <_printf_float+0x1b4>
10003752:	2300      	movs	r3, #0
10003754:	e016      	b.n	10003784 <_printf_float+0x364>
10003756:	46c0      	nop			; (mov r8, r8)
10003758:	100096a2 	.word	0x100096a2
1000375c:	100096a6 	.word	0x100096a6
10003760:	100096aa 	.word	0x100096aa
10003764:	100096ae 	.word	0x100096ae
10003768:	100096b2 	.word	0x100096b2
1000376c:	1c22      	adds	r2, r4, #0
1000376e:	2301      	movs	r3, #1
10003770:	1c28      	adds	r0, r5, #0
10003772:	9908      	ldr	r1, [sp, #32]
10003774:	321a      	adds	r2, #26
10003776:	9e09      	ldr	r6, [sp, #36]	; 0x24
10003778:	47b0      	blx	r6
1000377a:	1c43      	adds	r3, r0, #1
1000377c:	d100      	bne.n	10003780 <_printf_float+0x360>
1000377e:	e729      	b.n	100035d4 <_printf_float+0x1b4>
10003780:	9b0a      	ldr	r3, [sp, #40]	; 0x28
10003782:	3301      	adds	r3, #1
10003784:	930a      	str	r3, [sp, #40]	; 0x28
10003786:	9a0f      	ldr	r2, [sp, #60]	; 0x3c
10003788:	9b10      	ldr	r3, [sp, #64]	; 0x40
1000378a:	1a9a      	subs	r2, r3, r2
1000378c:	43fb      	mvns	r3, r7
1000378e:	17db      	asrs	r3, r3, #31
10003790:	403b      	ands	r3, r7
10003792:	1ad3      	subs	r3, r2, r3
10003794:	9a0a      	ldr	r2, [sp, #40]	; 0x28
10003796:	429a      	cmp	r2, r3
10003798:	dbe8      	blt.n	1000376c <_printf_float+0x34c>
1000379a:	e740      	b.n	1000361e <_printf_float+0x1fe>
1000379c:	9b10      	ldr	r3, [sp, #64]	; 0x40
1000379e:	1c28      	adds	r0, r5, #0
100037a0:	9908      	ldr	r1, [sp, #32]
100037a2:	2b01      	cmp	r3, #1
100037a4:	dc02      	bgt.n	100037ac <_printf_float+0x38c>
100037a6:	2301      	movs	r3, #1
100037a8:	421a      	tst	r2, r3
100037aa:	d03c      	beq.n	10003826 <_printf_float+0x406>
100037ac:	2301      	movs	r3, #1
100037ae:	9a0a      	ldr	r2, [sp, #40]	; 0x28
100037b0:	9f09      	ldr	r7, [sp, #36]	; 0x24
100037b2:	47b8      	blx	r7
100037b4:	1c43      	adds	r3, r0, #1
100037b6:	d100      	bne.n	100037ba <_printf_float+0x39a>
100037b8:	e70c      	b.n	100035d4 <_printf_float+0x1b4>
100037ba:	9b0c      	ldr	r3, [sp, #48]	; 0x30
100037bc:	1c28      	adds	r0, r5, #0
100037be:	9908      	ldr	r1, [sp, #32]
100037c0:	9a0b      	ldr	r2, [sp, #44]	; 0x2c
100037c2:	9f09      	ldr	r7, [sp, #36]	; 0x24
100037c4:	47b8      	blx	r7
100037c6:	1c43      	adds	r3, r0, #1
100037c8:	d100      	bne.n	100037cc <_printf_float+0x3ac>
100037ca:	e703      	b.n	100035d4 <_printf_float+0x1b4>
100037cc:	6ca0      	ldr	r0, [r4, #72]	; 0x48
100037ce:	6ce1      	ldr	r1, [r4, #76]	; 0x4c
100037d0:	2300      	movs	r3, #0
100037d2:	2200      	movs	r2, #0
100037d4:	f003 fb30 	bl	10006e38 <__aeabi_dcmpeq>
100037d8:	2300      	movs	r3, #0
100037da:	2800      	cmp	r0, #0
100037dc:	d112      	bne.n	10003804 <_printf_float+0x3e4>
100037de:	9a0a      	ldr	r2, [sp, #40]	; 0x28
100037e0:	9b10      	ldr	r3, [sp, #64]	; 0x40
100037e2:	3201      	adds	r2, #1
100037e4:	3b01      	subs	r3, #1
100037e6:	1c28      	adds	r0, r5, #0
100037e8:	9908      	ldr	r1, [sp, #32]
100037ea:	e01d      	b.n	10003828 <_printf_float+0x408>
100037ec:	1c22      	adds	r2, r4, #0
100037ee:	2301      	movs	r3, #1
100037f0:	1c28      	adds	r0, r5, #0
100037f2:	9908      	ldr	r1, [sp, #32]
100037f4:	321a      	adds	r2, #26
100037f6:	9f09      	ldr	r7, [sp, #36]	; 0x24
100037f8:	47b8      	blx	r7
100037fa:	1c43      	adds	r3, r0, #1
100037fc:	d100      	bne.n	10003800 <_printf_float+0x3e0>
100037fe:	e6e9      	b.n	100035d4 <_printf_float+0x1b4>
10003800:	9b0a      	ldr	r3, [sp, #40]	; 0x28
10003802:	3301      	adds	r3, #1
10003804:	930a      	str	r3, [sp, #40]	; 0x28
10003806:	9b10      	ldr	r3, [sp, #64]	; 0x40
10003808:	9a0a      	ldr	r2, [sp, #40]	; 0x28
1000380a:	3b01      	subs	r3, #1
1000380c:	429a      	cmp	r2, r3
1000380e:	dbed      	blt.n	100037ec <_printf_float+0x3cc>
10003810:	1c22      	adds	r2, r4, #0
10003812:	1c28      	adds	r0, r5, #0
10003814:	1c33      	adds	r3, r6, #0
10003816:	9908      	ldr	r1, [sp, #32]
10003818:	3250      	adds	r2, #80	; 0x50
1000381a:	9e09      	ldr	r6, [sp, #36]	; 0x24
1000381c:	47b0      	blx	r6
1000381e:	1c43      	adds	r3, r0, #1
10003820:	d000      	beq.n	10003824 <_printf_float+0x404>
10003822:	e6fc      	b.n	1000361e <_printf_float+0x1fe>
10003824:	e6d6      	b.n	100035d4 <_printf_float+0x1b4>
10003826:	9a0a      	ldr	r2, [sp, #40]	; 0x28
10003828:	9f09      	ldr	r7, [sp, #36]	; 0x24
1000382a:	47b8      	blx	r7
1000382c:	1c43      	adds	r3, r0, #1
1000382e:	d1ef      	bne.n	10003810 <_printf_float+0x3f0>
10003830:	e6d0      	b.n	100035d4 <_printf_float+0x1b4>
10003832:	1c22      	adds	r2, r4, #0
10003834:	2301      	movs	r3, #1
10003836:	1c28      	adds	r0, r5, #0
10003838:	9908      	ldr	r1, [sp, #32]
1000383a:	3219      	adds	r2, #25
1000383c:	9f09      	ldr	r7, [sp, #36]	; 0x24
1000383e:	47b8      	blx	r7
10003840:	1c43      	adds	r3, r0, #1
10003842:	d100      	bne.n	10003846 <_printf_float+0x426>
10003844:	e6c6      	b.n	100035d4 <_printf_float+0x1b4>
10003846:	3601      	adds	r6, #1
10003848:	68e3      	ldr	r3, [r4, #12]
1000384a:	9a11      	ldr	r2, [sp, #68]	; 0x44
1000384c:	1a9b      	subs	r3, r3, r2
1000384e:	429e      	cmp	r6, r3
10003850:	dbef      	blt.n	10003832 <_printf_float+0x412>
10003852:	9b11      	ldr	r3, [sp, #68]	; 0x44
10003854:	68e0      	ldr	r0, [r4, #12]
10003856:	4298      	cmp	r0, r3
10003858:	da17      	bge.n	1000388a <_printf_float+0x46a>
1000385a:	1c18      	adds	r0, r3, #0
1000385c:	e015      	b.n	1000388a <_printf_float+0x46a>
1000385e:	2600      	movs	r6, #0
10003860:	e7f2      	b.n	10003848 <_printf_float+0x428>
10003862:	4331      	orrs	r1, r6
10003864:	6021      	str	r1, [r4, #0]
10003866:	9101      	str	r1, [sp, #4]
10003868:	2123      	movs	r1, #35	; 0x23
1000386a:	9000      	str	r0, [sp, #0]
1000386c:	a806      	add	r0, sp, #24
1000386e:	1809      	adds	r1, r1, r0
10003870:	9102      	str	r1, [sp, #8]
10003872:	a90f      	add	r1, sp, #60	; 0x3c
10003874:	9103      	str	r1, [sp, #12]
10003876:	a910      	add	r1, sp, #64	; 0x40
10003878:	9105      	str	r1, [sp, #20]
1000387a:	2100      	movs	r1, #0
1000387c:	9704      	str	r7, [sp, #16]
1000387e:	9106      	str	r1, [sp, #24]
10003880:	1c28      	adds	r0, r5, #0
10003882:	f7ff fd38 	bl	100032f6 <__cvt>
10003886:	900a      	str	r0, [sp, #40]	; 0x28
10003888:	e646      	b.n	10003518 <_printf_float+0xf8>
1000388a:	b013      	add	sp, #76	; 0x4c
1000388c:	bdf0      	pop	{r4, r5, r6, r7, pc}
1000388e:	46c0      	nop			; (mov r8, r8)

10003890 <_printf_common>:
10003890:	b5f7      	push	{r0, r1, r2, r4, r5, r6, r7, lr}
10003892:	1c17      	adds	r7, r2, #0
10003894:	9301      	str	r3, [sp, #4]
10003896:	690a      	ldr	r2, [r1, #16]
10003898:	688b      	ldr	r3, [r1, #8]
1000389a:	9000      	str	r0, [sp, #0]
1000389c:	1c0c      	adds	r4, r1, #0
1000389e:	4293      	cmp	r3, r2
100038a0:	da00      	bge.n	100038a4 <_printf_common+0x14>
100038a2:	1c13      	adds	r3, r2, #0
100038a4:	1c22      	adds	r2, r4, #0
100038a6:	603b      	str	r3, [r7, #0]
100038a8:	3243      	adds	r2, #67	; 0x43
100038aa:	7812      	ldrb	r2, [r2, #0]
100038ac:	2a00      	cmp	r2, #0
100038ae:	d001      	beq.n	100038b4 <_printf_common+0x24>
100038b0:	3301      	adds	r3, #1
100038b2:	603b      	str	r3, [r7, #0]
100038b4:	6823      	ldr	r3, [r4, #0]
100038b6:	069b      	lsls	r3, r3, #26
100038b8:	d502      	bpl.n	100038c0 <_printf_common+0x30>
100038ba:	683b      	ldr	r3, [r7, #0]
100038bc:	3302      	adds	r3, #2
100038be:	603b      	str	r3, [r7, #0]
100038c0:	2506      	movs	r5, #6
100038c2:	6823      	ldr	r3, [r4, #0]
100038c4:	401d      	ands	r5, r3
100038c6:	d01e      	beq.n	10003906 <_printf_common+0x76>
100038c8:	1c23      	adds	r3, r4, #0
100038ca:	3343      	adds	r3, #67	; 0x43
100038cc:	781b      	ldrb	r3, [r3, #0]
100038ce:	1e5a      	subs	r2, r3, #1
100038d0:	4193      	sbcs	r3, r2
100038d2:	6822      	ldr	r2, [r4, #0]
100038d4:	0692      	lsls	r2, r2, #26
100038d6:	d51c      	bpl.n	10003912 <_printf_common+0x82>
100038d8:	2030      	movs	r0, #48	; 0x30
100038da:	18e1      	adds	r1, r4, r3
100038dc:	3140      	adds	r1, #64	; 0x40
100038de:	70c8      	strb	r0, [r1, #3]
100038e0:	1c21      	adds	r1, r4, #0
100038e2:	1c5a      	adds	r2, r3, #1
100038e4:	3145      	adds	r1, #69	; 0x45
100038e6:	7809      	ldrb	r1, [r1, #0]
100038e8:	18a2      	adds	r2, r4, r2
100038ea:	3240      	adds	r2, #64	; 0x40
100038ec:	3302      	adds	r3, #2
100038ee:	70d1      	strb	r1, [r2, #3]
100038f0:	e00f      	b.n	10003912 <_printf_common+0x82>
100038f2:	1c22      	adds	r2, r4, #0
100038f4:	2301      	movs	r3, #1
100038f6:	9800      	ldr	r0, [sp, #0]
100038f8:	9901      	ldr	r1, [sp, #4]
100038fa:	3219      	adds	r2, #25
100038fc:	9e08      	ldr	r6, [sp, #32]
100038fe:	47b0      	blx	r6
10003900:	1c43      	adds	r3, r0, #1
10003902:	d00e      	beq.n	10003922 <_printf_common+0x92>
10003904:	3501      	adds	r5, #1
10003906:	68e3      	ldr	r3, [r4, #12]
10003908:	683a      	ldr	r2, [r7, #0]
1000390a:	1a9b      	subs	r3, r3, r2
1000390c:	429d      	cmp	r5, r3
1000390e:	dbf0      	blt.n	100038f2 <_printf_common+0x62>
10003910:	e7da      	b.n	100038c8 <_printf_common+0x38>
10003912:	1c22      	adds	r2, r4, #0
10003914:	9800      	ldr	r0, [sp, #0]
10003916:	9901      	ldr	r1, [sp, #4]
10003918:	3243      	adds	r2, #67	; 0x43
1000391a:	9d08      	ldr	r5, [sp, #32]
1000391c:	47a8      	blx	r5
1000391e:	1c43      	adds	r3, r0, #1
10003920:	d102      	bne.n	10003928 <_printf_common+0x98>
10003922:	2001      	movs	r0, #1
10003924:	4240      	negs	r0, r0
10003926:	e020      	b.n	1000396a <_printf_common+0xda>
10003928:	2306      	movs	r3, #6
1000392a:	6820      	ldr	r0, [r4, #0]
1000392c:	68e1      	ldr	r1, [r4, #12]
1000392e:	683a      	ldr	r2, [r7, #0]
10003930:	4003      	ands	r3, r0
10003932:	2500      	movs	r5, #0
10003934:	2b04      	cmp	r3, #4
10003936:	d103      	bne.n	10003940 <_printf_common+0xb0>
10003938:	1a8d      	subs	r5, r1, r2
1000393a:	43eb      	mvns	r3, r5
1000393c:	17db      	asrs	r3, r3, #31
1000393e:	401d      	ands	r5, r3
10003940:	68a3      	ldr	r3, [r4, #8]
10003942:	6922      	ldr	r2, [r4, #16]
10003944:	4293      	cmp	r3, r2
10003946:	dd01      	ble.n	1000394c <_printf_common+0xbc>
10003948:	1a9b      	subs	r3, r3, r2
1000394a:	18ed      	adds	r5, r5, r3
1000394c:	2700      	movs	r7, #0
1000394e:	42af      	cmp	r7, r5
10003950:	da0a      	bge.n	10003968 <_printf_common+0xd8>
10003952:	1c22      	adds	r2, r4, #0
10003954:	2301      	movs	r3, #1
10003956:	9800      	ldr	r0, [sp, #0]
10003958:	9901      	ldr	r1, [sp, #4]
1000395a:	321a      	adds	r2, #26
1000395c:	9e08      	ldr	r6, [sp, #32]
1000395e:	47b0      	blx	r6
10003960:	1c43      	adds	r3, r0, #1
10003962:	d0de      	beq.n	10003922 <_printf_common+0x92>
10003964:	3701      	adds	r7, #1
10003966:	e7f2      	b.n	1000394e <_printf_common+0xbe>
10003968:	2000      	movs	r0, #0
1000396a:	bdfe      	pop	{r1, r2, r3, r4, r5, r6, r7, pc}

1000396c <_printf_i>:
1000396c:	b5f0      	push	{r4, r5, r6, r7, lr}
1000396e:	b08b      	sub	sp, #44	; 0x2c
10003970:	9206      	str	r2, [sp, #24]
10003972:	1c0a      	adds	r2, r1, #0
10003974:	3243      	adds	r2, #67	; 0x43
10003976:	9307      	str	r3, [sp, #28]
10003978:	9005      	str	r0, [sp, #20]
1000397a:	9204      	str	r2, [sp, #16]
1000397c:	7e0a      	ldrb	r2, [r1, #24]
1000397e:	1c0c      	adds	r4, r1, #0
10003980:	9b10      	ldr	r3, [sp, #64]	; 0x40
10003982:	2a6e      	cmp	r2, #110	; 0x6e
10003984:	d100      	bne.n	10003988 <_printf_i+0x1c>
10003986:	e0a8      	b.n	10003ada <_printf_i+0x16e>
10003988:	d811      	bhi.n	100039ae <_printf_i+0x42>
1000398a:	2a63      	cmp	r2, #99	; 0x63
1000398c:	d022      	beq.n	100039d4 <_printf_i+0x68>
1000398e:	d809      	bhi.n	100039a4 <_printf_i+0x38>
10003990:	2a00      	cmp	r2, #0
10003992:	d100      	bne.n	10003996 <_printf_i+0x2a>
10003994:	e0b2      	b.n	10003afc <_printf_i+0x190>
10003996:	2a58      	cmp	r2, #88	; 0x58
10003998:	d000      	beq.n	1000399c <_printf_i+0x30>
1000399a:	e0c2      	b.n	10003b22 <_printf_i+0x1b6>
1000399c:	3145      	adds	r1, #69	; 0x45
1000399e:	700a      	strb	r2, [r1, #0]
100039a0:	4a7c      	ldr	r2, [pc, #496]	; (10003b94 <_printf_i+0x228>)
100039a2:	e04f      	b.n	10003a44 <_printf_i+0xd8>
100039a4:	2a64      	cmp	r2, #100	; 0x64
100039a6:	d01d      	beq.n	100039e4 <_printf_i+0x78>
100039a8:	2a69      	cmp	r2, #105	; 0x69
100039aa:	d01b      	beq.n	100039e4 <_printf_i+0x78>
100039ac:	e0b9      	b.n	10003b22 <_printf_i+0x1b6>
100039ae:	2a73      	cmp	r2, #115	; 0x73
100039b0:	d100      	bne.n	100039b4 <_printf_i+0x48>
100039b2:	e0a7      	b.n	10003b04 <_printf_i+0x198>
100039b4:	d809      	bhi.n	100039ca <_printf_i+0x5e>
100039b6:	2a6f      	cmp	r2, #111	; 0x6f
100039b8:	d029      	beq.n	10003a0e <_printf_i+0xa2>
100039ba:	2a70      	cmp	r2, #112	; 0x70
100039bc:	d000      	beq.n	100039c0 <_printf_i+0x54>
100039be:	e0b0      	b.n	10003b22 <_printf_i+0x1b6>
100039c0:	2220      	movs	r2, #32
100039c2:	6809      	ldr	r1, [r1, #0]
100039c4:	430a      	orrs	r2, r1
100039c6:	6022      	str	r2, [r4, #0]
100039c8:	e037      	b.n	10003a3a <_printf_i+0xce>
100039ca:	2a75      	cmp	r2, #117	; 0x75
100039cc:	d01f      	beq.n	10003a0e <_printf_i+0xa2>
100039ce:	2a78      	cmp	r2, #120	; 0x78
100039d0:	d033      	beq.n	10003a3a <_printf_i+0xce>
100039d2:	e0a6      	b.n	10003b22 <_printf_i+0x1b6>
100039d4:	1c0d      	adds	r5, r1, #0
100039d6:	681a      	ldr	r2, [r3, #0]
100039d8:	3542      	adds	r5, #66	; 0x42
100039da:	1d11      	adds	r1, r2, #4
100039dc:	6019      	str	r1, [r3, #0]
100039de:	6813      	ldr	r3, [r2, #0]
100039e0:	702b      	strb	r3, [r5, #0]
100039e2:	e0a1      	b.n	10003b28 <_printf_i+0x1bc>
100039e4:	6821      	ldr	r1, [r4, #0]
100039e6:	681a      	ldr	r2, [r3, #0]
100039e8:	0608      	lsls	r0, r1, #24
100039ea:	d503      	bpl.n	100039f4 <_printf_i+0x88>
100039ec:	1d11      	adds	r1, r2, #4
100039ee:	6019      	str	r1, [r3, #0]
100039f0:	6816      	ldr	r6, [r2, #0]
100039f2:	e005      	b.n	10003a00 <_printf_i+0x94>
100039f4:	0649      	lsls	r1, r1, #25
100039f6:	d5f9      	bpl.n	100039ec <_printf_i+0x80>
100039f8:	1d11      	adds	r1, r2, #4
100039fa:	6019      	str	r1, [r3, #0]
100039fc:	2300      	movs	r3, #0
100039fe:	5ed6      	ldrsh	r6, [r2, r3]
10003a00:	2e00      	cmp	r6, #0
10003a02:	da3b      	bge.n	10003a7c <_printf_i+0x110>
10003a04:	232d      	movs	r3, #45	; 0x2d
10003a06:	9a04      	ldr	r2, [sp, #16]
10003a08:	4276      	negs	r6, r6
10003a0a:	7013      	strb	r3, [r2, #0]
10003a0c:	e036      	b.n	10003a7c <_printf_i+0x110>
10003a0e:	6821      	ldr	r1, [r4, #0]
10003a10:	681a      	ldr	r2, [r3, #0]
10003a12:	0608      	lsls	r0, r1, #24
10003a14:	d503      	bpl.n	10003a1e <_printf_i+0xb2>
10003a16:	1d11      	adds	r1, r2, #4
10003a18:	6019      	str	r1, [r3, #0]
10003a1a:	6816      	ldr	r6, [r2, #0]
10003a1c:	e005      	b.n	10003a2a <_printf_i+0xbe>
10003a1e:	0649      	lsls	r1, r1, #25
10003a20:	d5f9      	bpl.n	10003a16 <_printf_i+0xaa>
10003a22:	1d11      	adds	r1, r2, #4
10003a24:	6019      	str	r1, [r3, #0]
10003a26:	6816      	ldr	r6, [r2, #0]
10003a28:	b2b6      	uxth	r6, r6
10003a2a:	4b5a      	ldr	r3, [pc, #360]	; (10003b94 <_printf_i+0x228>)
10003a2c:	7e22      	ldrb	r2, [r4, #24]
10003a2e:	9303      	str	r3, [sp, #12]
10003a30:	270a      	movs	r7, #10
10003a32:	2a6f      	cmp	r2, #111	; 0x6f
10003a34:	d11d      	bne.n	10003a72 <_printf_i+0x106>
10003a36:	2708      	movs	r7, #8
10003a38:	e01b      	b.n	10003a72 <_printf_i+0x106>
10003a3a:	1c22      	adds	r2, r4, #0
10003a3c:	2178      	movs	r1, #120	; 0x78
10003a3e:	3245      	adds	r2, #69	; 0x45
10003a40:	7011      	strb	r1, [r2, #0]
10003a42:	4a55      	ldr	r2, [pc, #340]	; (10003b98 <_printf_i+0x22c>)
10003a44:	6819      	ldr	r1, [r3, #0]
10003a46:	9203      	str	r2, [sp, #12]
10003a48:	1d08      	adds	r0, r1, #4
10003a4a:	6822      	ldr	r2, [r4, #0]
10003a4c:	6018      	str	r0, [r3, #0]
10003a4e:	680e      	ldr	r6, [r1, #0]
10003a50:	0610      	lsls	r0, r2, #24
10003a52:	d402      	bmi.n	10003a5a <_printf_i+0xee>
10003a54:	0650      	lsls	r0, r2, #25
10003a56:	d500      	bpl.n	10003a5a <_printf_i+0xee>
10003a58:	b2b6      	uxth	r6, r6
10003a5a:	07d3      	lsls	r3, r2, #31
10003a5c:	d502      	bpl.n	10003a64 <_printf_i+0xf8>
10003a5e:	2320      	movs	r3, #32
10003a60:	431a      	orrs	r2, r3
10003a62:	6022      	str	r2, [r4, #0]
10003a64:	2710      	movs	r7, #16
10003a66:	2e00      	cmp	r6, #0
10003a68:	d103      	bne.n	10003a72 <_printf_i+0x106>
10003a6a:	2320      	movs	r3, #32
10003a6c:	6822      	ldr	r2, [r4, #0]
10003a6e:	439a      	bics	r2, r3
10003a70:	6022      	str	r2, [r4, #0]
10003a72:	1c23      	adds	r3, r4, #0
10003a74:	2200      	movs	r2, #0
10003a76:	3343      	adds	r3, #67	; 0x43
10003a78:	701a      	strb	r2, [r3, #0]
10003a7a:	e002      	b.n	10003a82 <_printf_i+0x116>
10003a7c:	270a      	movs	r7, #10
10003a7e:	4b45      	ldr	r3, [pc, #276]	; (10003b94 <_printf_i+0x228>)
10003a80:	9303      	str	r3, [sp, #12]
10003a82:	6863      	ldr	r3, [r4, #4]
10003a84:	60a3      	str	r3, [r4, #8]
10003a86:	2b00      	cmp	r3, #0
10003a88:	db03      	blt.n	10003a92 <_printf_i+0x126>
10003a8a:	2204      	movs	r2, #4
10003a8c:	6821      	ldr	r1, [r4, #0]
10003a8e:	4391      	bics	r1, r2
10003a90:	6021      	str	r1, [r4, #0]
10003a92:	2e00      	cmp	r6, #0
10003a94:	d102      	bne.n	10003a9c <_printf_i+0x130>
10003a96:	9d04      	ldr	r5, [sp, #16]
10003a98:	2b00      	cmp	r3, #0
10003a9a:	d00e      	beq.n	10003aba <_printf_i+0x14e>
10003a9c:	9d04      	ldr	r5, [sp, #16]
10003a9e:	1c30      	adds	r0, r6, #0
10003aa0:	1c39      	adds	r1, r7, #0
10003aa2:	f7fd fd81 	bl	100015a8 <__aeabi_uidivmod>
10003aa6:	9b03      	ldr	r3, [sp, #12]
10003aa8:	3d01      	subs	r5, #1
10003aaa:	5c5b      	ldrb	r3, [r3, r1]
10003aac:	1c30      	adds	r0, r6, #0
10003aae:	702b      	strb	r3, [r5, #0]
10003ab0:	1c39      	adds	r1, r7, #0
10003ab2:	f7fd fd59 	bl	10001568 <__aeabi_uidiv>
10003ab6:	1e06      	subs	r6, r0, #0
10003ab8:	d1f1      	bne.n	10003a9e <_printf_i+0x132>
10003aba:	2f08      	cmp	r7, #8
10003abc:	d109      	bne.n	10003ad2 <_printf_i+0x166>
10003abe:	6823      	ldr	r3, [r4, #0]
10003ac0:	07db      	lsls	r3, r3, #31
10003ac2:	d506      	bpl.n	10003ad2 <_printf_i+0x166>
10003ac4:	6863      	ldr	r3, [r4, #4]
10003ac6:	6922      	ldr	r2, [r4, #16]
10003ac8:	4293      	cmp	r3, r2
10003aca:	dc02      	bgt.n	10003ad2 <_printf_i+0x166>
10003acc:	2330      	movs	r3, #48	; 0x30
10003ace:	3d01      	subs	r5, #1
10003ad0:	702b      	strb	r3, [r5, #0]
10003ad2:	9b04      	ldr	r3, [sp, #16]
10003ad4:	1b5b      	subs	r3, r3, r5
10003ad6:	6123      	str	r3, [r4, #16]
10003ad8:	e02b      	b.n	10003b32 <_printf_i+0x1c6>
10003ada:	6809      	ldr	r1, [r1, #0]
10003adc:	681a      	ldr	r2, [r3, #0]
10003ade:	0608      	lsls	r0, r1, #24
10003ae0:	d407      	bmi.n	10003af2 <_printf_i+0x186>
10003ae2:	0649      	lsls	r1, r1, #25
10003ae4:	d505      	bpl.n	10003af2 <_printf_i+0x186>
10003ae6:	1d11      	adds	r1, r2, #4
10003ae8:	6019      	str	r1, [r3, #0]
10003aea:	6813      	ldr	r3, [r2, #0]
10003aec:	8aa2      	ldrh	r2, [r4, #20]
10003aee:	801a      	strh	r2, [r3, #0]
10003af0:	e004      	b.n	10003afc <_printf_i+0x190>
10003af2:	1d11      	adds	r1, r2, #4
10003af4:	6019      	str	r1, [r3, #0]
10003af6:	6813      	ldr	r3, [r2, #0]
10003af8:	6962      	ldr	r2, [r4, #20]
10003afa:	601a      	str	r2, [r3, #0]
10003afc:	2300      	movs	r3, #0
10003afe:	9d04      	ldr	r5, [sp, #16]
10003b00:	6123      	str	r3, [r4, #16]
10003b02:	e016      	b.n	10003b32 <_printf_i+0x1c6>
10003b04:	681a      	ldr	r2, [r3, #0]
10003b06:	1d11      	adds	r1, r2, #4
10003b08:	6019      	str	r1, [r3, #0]
10003b0a:	6815      	ldr	r5, [r2, #0]
10003b0c:	2100      	movs	r1, #0
10003b0e:	1c28      	adds	r0, r5, #0
10003b10:	6862      	ldr	r2, [r4, #4]
10003b12:	f002 fb05 	bl	10006120 <memchr>
10003b16:	2800      	cmp	r0, #0
10003b18:	d001      	beq.n	10003b1e <_printf_i+0x1b2>
10003b1a:	1b40      	subs	r0, r0, r5
10003b1c:	6060      	str	r0, [r4, #4]
10003b1e:	6863      	ldr	r3, [r4, #4]
10003b20:	e003      	b.n	10003b2a <_printf_i+0x1be>
10003b22:	1c25      	adds	r5, r4, #0
10003b24:	3542      	adds	r5, #66	; 0x42
10003b26:	702a      	strb	r2, [r5, #0]
10003b28:	2301      	movs	r3, #1
10003b2a:	6123      	str	r3, [r4, #16]
10003b2c:	2300      	movs	r3, #0
10003b2e:	9a04      	ldr	r2, [sp, #16]
10003b30:	7013      	strb	r3, [r2, #0]
10003b32:	9b07      	ldr	r3, [sp, #28]
10003b34:	9805      	ldr	r0, [sp, #20]
10003b36:	9300      	str	r3, [sp, #0]
10003b38:	1c21      	adds	r1, r4, #0
10003b3a:	9b06      	ldr	r3, [sp, #24]
10003b3c:	aa09      	add	r2, sp, #36	; 0x24
10003b3e:	f7ff fea7 	bl	10003890 <_printf_common>
10003b42:	1c43      	adds	r3, r0, #1
10003b44:	d102      	bne.n	10003b4c <_printf_i+0x1e0>
10003b46:	2001      	movs	r0, #1
10003b48:	4240      	negs	r0, r0
10003b4a:	e021      	b.n	10003b90 <_printf_i+0x224>
10003b4c:	1c2a      	adds	r2, r5, #0
10003b4e:	6923      	ldr	r3, [r4, #16]
10003b50:	9805      	ldr	r0, [sp, #20]
10003b52:	9906      	ldr	r1, [sp, #24]
10003b54:	9d07      	ldr	r5, [sp, #28]
10003b56:	47a8      	blx	r5
10003b58:	1c43      	adds	r3, r0, #1
10003b5a:	d0f4      	beq.n	10003b46 <_printf_i+0x1da>
10003b5c:	6823      	ldr	r3, [r4, #0]
10003b5e:	079b      	lsls	r3, r3, #30
10003b60:	d405      	bmi.n	10003b6e <_printf_i+0x202>
10003b62:	9b09      	ldr	r3, [sp, #36]	; 0x24
10003b64:	68e0      	ldr	r0, [r4, #12]
10003b66:	4298      	cmp	r0, r3
10003b68:	da12      	bge.n	10003b90 <_printf_i+0x224>
10003b6a:	1c18      	adds	r0, r3, #0
10003b6c:	e010      	b.n	10003b90 <_printf_i+0x224>
10003b6e:	2500      	movs	r5, #0
10003b70:	68e3      	ldr	r3, [r4, #12]
10003b72:	9a09      	ldr	r2, [sp, #36]	; 0x24
10003b74:	1a9b      	subs	r3, r3, r2
10003b76:	429d      	cmp	r5, r3
10003b78:	daf3      	bge.n	10003b62 <_printf_i+0x1f6>
10003b7a:	1c22      	adds	r2, r4, #0
10003b7c:	2301      	movs	r3, #1
10003b7e:	9805      	ldr	r0, [sp, #20]
10003b80:	9906      	ldr	r1, [sp, #24]
10003b82:	3219      	adds	r2, #25
10003b84:	9e07      	ldr	r6, [sp, #28]
10003b86:	47b0      	blx	r6
10003b88:	1c43      	adds	r3, r0, #1
10003b8a:	d0dc      	beq.n	10003b46 <_printf_i+0x1da>
10003b8c:	3501      	adds	r5, #1
10003b8e:	e7ef      	b.n	10003b70 <_printf_i+0x204>
10003b90:	b00b      	add	sp, #44	; 0x2c
10003b92:	bdf0      	pop	{r4, r5, r6, r7, pc}
10003b94:	100096b4 	.word	0x100096b4
10003b98:	100096c5 	.word	0x100096c5

10003b9c <_scanf_float>:
10003b9c:	b5f0      	push	{r4, r5, r6, r7, lr}
10003b9e:	1c15      	adds	r5, r2, #0
10003ba0:	2200      	movs	r2, #0
10003ba2:	b08b      	sub	sp, #44	; 0x2c
10003ba4:	9306      	str	r3, [sp, #24]
10003ba6:	688b      	ldr	r3, [r1, #8]
10003ba8:	9205      	str	r2, [sp, #20]
10003baa:	325d      	adds	r2, #93	; 0x5d
10003bac:	1c0e      	adds	r6, r1, #0
10003bae:	32ff      	adds	r2, #255	; 0xff
10003bb0:	1e59      	subs	r1, r3, #1
10003bb2:	9002      	str	r0, [sp, #8]
10003bb4:	4291      	cmp	r1, r2
10003bb6:	d905      	bls.n	10003bc4 <_scanf_float+0x28>
10003bb8:	3b5e      	subs	r3, #94	; 0x5e
10003bba:	3bff      	subs	r3, #255	; 0xff
10003bbc:	9305      	str	r3, [sp, #20]
10003bbe:	235e      	movs	r3, #94	; 0x5e
10003bc0:	33ff      	adds	r3, #255	; 0xff
10003bc2:	60b3      	str	r3, [r6, #8]
10003bc4:	23f0      	movs	r3, #240	; 0xf0
10003bc6:	6832      	ldr	r2, [r6, #0]
10003bc8:	00db      	lsls	r3, r3, #3
10003bca:	4313      	orrs	r3, r2
10003bcc:	6033      	str	r3, [r6, #0]
10003bce:	1c33      	adds	r3, r6, #0
10003bd0:	2400      	movs	r4, #0
10003bd2:	331c      	adds	r3, #28
10003bd4:	1c1f      	adds	r7, r3, #0
10003bd6:	9304      	str	r3, [sp, #16]
10003bd8:	9403      	str	r4, [sp, #12]
10003bda:	9409      	str	r4, [sp, #36]	; 0x24
10003bdc:	9408      	str	r4, [sp, #32]
10003bde:	9400      	str	r4, [sp, #0]
10003be0:	9407      	str	r4, [sp, #28]
10003be2:	68b2      	ldr	r2, [r6, #8]
10003be4:	2a00      	cmp	r2, #0
10003be6:	d100      	bne.n	10003bea <_scanf_float+0x4e>
10003be8:	e0e1      	b.n	10003dae <_scanf_float+0x212>
10003bea:	682b      	ldr	r3, [r5, #0]
10003bec:	781b      	ldrb	r3, [r3, #0]
10003bee:	2b49      	cmp	r3, #73	; 0x49
10003bf0:	d077      	beq.n	10003ce2 <_scanf_float+0x146>
10003bf2:	d818      	bhi.n	10003c26 <_scanf_float+0x8a>
10003bf4:	2b39      	cmp	r3, #57	; 0x39
10003bf6:	d80d      	bhi.n	10003c14 <_scanf_float+0x78>
10003bf8:	2b31      	cmp	r3, #49	; 0x31
10003bfa:	d242      	bcs.n	10003c82 <_scanf_float+0xe6>
10003bfc:	2b2d      	cmp	r3, #45	; 0x2d
10003bfe:	d049      	beq.n	10003c94 <_scanf_float+0xf8>
10003c00:	d802      	bhi.n	10003c08 <_scanf_float+0x6c>
10003c02:	2b2b      	cmp	r3, #43	; 0x2b
10003c04:	d046      	beq.n	10003c94 <_scanf_float+0xf8>
10003c06:	e0d2      	b.n	10003dae <_scanf_float+0x212>
10003c08:	2b2e      	cmp	r3, #46	; 0x2e
10003c0a:	d100      	bne.n	10003c0e <_scanf_float+0x72>
10003c0c:	e08d      	b.n	10003d2a <_scanf_float+0x18e>
10003c0e:	2b30      	cmp	r3, #48	; 0x30
10003c10:	d025      	beq.n	10003c5e <_scanf_float+0xc2>
10003c12:	e0cc      	b.n	10003dae <_scanf_float+0x212>
10003c14:	2b45      	cmp	r3, #69	; 0x45
10003c16:	d100      	bne.n	10003c1a <_scanf_float+0x7e>
10003c18:	e090      	b.n	10003d3c <_scanf_float+0x1a0>
10003c1a:	2b46      	cmp	r3, #70	; 0x46
10003c1c:	d079      	beq.n	10003d12 <_scanf_float+0x176>
10003c1e:	2b41      	cmp	r3, #65	; 0x41
10003c20:	d000      	beq.n	10003c24 <_scanf_float+0x88>
10003c22:	e0c4      	b.n	10003dae <_scanf_float+0x212>
10003c24:	e058      	b.n	10003cd8 <_scanf_float+0x13c>
10003c26:	2b65      	cmp	r3, #101	; 0x65
10003c28:	d100      	bne.n	10003c2c <_scanf_float+0x90>
10003c2a:	e087      	b.n	10003d3c <_scanf_float+0x1a0>
10003c2c:	d80a      	bhi.n	10003c44 <_scanf_float+0xa8>
10003c2e:	2b54      	cmp	r3, #84	; 0x54
10003c30:	d073      	beq.n	10003d1a <_scanf_float+0x17e>
10003c32:	d802      	bhi.n	10003c3a <_scanf_float+0x9e>
10003c34:	2b4e      	cmp	r3, #78	; 0x4e
10003c36:	d035      	beq.n	10003ca4 <_scanf_float+0x108>
10003c38:	e0b9      	b.n	10003dae <_scanf_float+0x212>
10003c3a:	2b59      	cmp	r3, #89	; 0x59
10003c3c:	d071      	beq.n	10003d22 <_scanf_float+0x186>
10003c3e:	2b61      	cmp	r3, #97	; 0x61
10003c40:	d04a      	beq.n	10003cd8 <_scanf_float+0x13c>
10003c42:	e0b4      	b.n	10003dae <_scanf_float+0x212>
10003c44:	2b6e      	cmp	r3, #110	; 0x6e
10003c46:	d02d      	beq.n	10003ca4 <_scanf_float+0x108>
10003c48:	d804      	bhi.n	10003c54 <_scanf_float+0xb8>
10003c4a:	2b66      	cmp	r3, #102	; 0x66
10003c4c:	d061      	beq.n	10003d12 <_scanf_float+0x176>
10003c4e:	2b69      	cmp	r3, #105	; 0x69
10003c50:	d047      	beq.n	10003ce2 <_scanf_float+0x146>
10003c52:	e0ac      	b.n	10003dae <_scanf_float+0x212>
10003c54:	2b74      	cmp	r3, #116	; 0x74
10003c56:	d060      	beq.n	10003d1a <_scanf_float+0x17e>
10003c58:	2b79      	cmp	r3, #121	; 0x79
10003c5a:	d062      	beq.n	10003d22 <_scanf_float+0x186>
10003c5c:	e0a7      	b.n	10003dae <_scanf_float+0x212>
10003c5e:	6831      	ldr	r1, [r6, #0]
10003c60:	05c8      	lsls	r0, r1, #23
10003c62:	d50e      	bpl.n	10003c82 <_scanf_float+0xe6>
10003c64:	2380      	movs	r3, #128	; 0x80
10003c66:	4399      	bics	r1, r3
10003c68:	9b00      	ldr	r3, [sp, #0]
10003c6a:	6031      	str	r1, [r6, #0]
10003c6c:	3301      	adds	r3, #1
10003c6e:	9300      	str	r3, [sp, #0]
10003c70:	9b05      	ldr	r3, [sp, #20]
10003c72:	2b00      	cmp	r3, #0
10003c74:	d100      	bne.n	10003c78 <_scanf_float+0xdc>
10003c76:	e082      	b.n	10003d7e <_scanf_float+0x1e2>
10003c78:	3b01      	subs	r3, #1
10003c7a:	3201      	adds	r2, #1
10003c7c:	9305      	str	r3, [sp, #20]
10003c7e:	60b2      	str	r2, [r6, #8]
10003c80:	e07d      	b.n	10003d7e <_scanf_float+0x1e2>
10003c82:	9a03      	ldr	r2, [sp, #12]
10003c84:	1912      	adds	r2, r2, r4
10003c86:	2a00      	cmp	r2, #0
10003c88:	d000      	beq.n	10003c8c <_scanf_float+0xf0>
10003c8a:	e090      	b.n	10003dae <_scanf_float+0x212>
10003c8c:	4ab3      	ldr	r2, [pc, #716]	; (10003f5c <_scanf_float+0x3c0>)
10003c8e:	6831      	ldr	r1, [r6, #0]
10003c90:	400a      	ands	r2, r1
10003c92:	e005      	b.n	10003ca0 <_scanf_float+0x104>
10003c94:	2180      	movs	r1, #128	; 0x80
10003c96:	6832      	ldr	r2, [r6, #0]
10003c98:	420a      	tst	r2, r1
10003c9a:	d100      	bne.n	10003c9e <_scanf_float+0x102>
10003c9c:	e087      	b.n	10003dae <_scanf_float+0x212>
10003c9e:	438a      	bics	r2, r1
10003ca0:	6032      	str	r2, [r6, #0]
10003ca2:	e06a      	b.n	10003d7a <_scanf_float+0x1de>
10003ca4:	9a03      	ldr	r2, [sp, #12]
10003ca6:	2a00      	cmp	r2, #0
10003ca8:	d10e      	bne.n	10003cc8 <_scanf_float+0x12c>
10003caa:	9a00      	ldr	r2, [sp, #0]
10003cac:	2a00      	cmp	r2, #0
10003cae:	d10e      	bne.n	10003cce <_scanf_float+0x132>
10003cb0:	6831      	ldr	r1, [r6, #0]
10003cb2:	22e0      	movs	r2, #224	; 0xe0
10003cb4:	1c08      	adds	r0, r1, #0
10003cb6:	00d2      	lsls	r2, r2, #3
10003cb8:	4010      	ands	r0, r2
10003cba:	4290      	cmp	r0, r2
10003cbc:	d107      	bne.n	10003cce <_scanf_float+0x132>
10003cbe:	4aa8      	ldr	r2, [pc, #672]	; (10003f60 <_scanf_float+0x3c4>)
10003cc0:	400a      	ands	r2, r1
10003cc2:	6032      	str	r2, [r6, #0]
10003cc4:	2201      	movs	r2, #1
10003cc6:	e057      	b.n	10003d78 <_scanf_float+0x1dc>
10003cc8:	9a03      	ldr	r2, [sp, #12]
10003cca:	2a02      	cmp	r2, #2
10003ccc:	d053      	beq.n	10003d76 <_scanf_float+0x1da>
10003cce:	2c01      	cmp	r4, #1
10003cd0:	d01c      	beq.n	10003d0c <_scanf_float+0x170>
10003cd2:	2c04      	cmp	r4, #4
10003cd4:	d01a      	beq.n	10003d0c <_scanf_float+0x170>
10003cd6:	e06a      	b.n	10003dae <_scanf_float+0x212>
10003cd8:	9a03      	ldr	r2, [sp, #12]
10003cda:	2a01      	cmp	r2, #1
10003cdc:	d167      	bne.n	10003dae <_scanf_float+0x212>
10003cde:	2202      	movs	r2, #2
10003ce0:	e04a      	b.n	10003d78 <_scanf_float+0x1dc>
10003ce2:	2c00      	cmp	r4, #0
10003ce4:	d10e      	bne.n	10003d04 <_scanf_float+0x168>
10003ce6:	9a00      	ldr	r2, [sp, #0]
10003ce8:	2a00      	cmp	r2, #0
10003cea:	d163      	bne.n	10003db4 <_scanf_float+0x218>
10003cec:	6831      	ldr	r1, [r6, #0]
10003cee:	22e0      	movs	r2, #224	; 0xe0
10003cf0:	1c08      	adds	r0, r1, #0
10003cf2:	00d2      	lsls	r2, r2, #3
10003cf4:	4010      	ands	r0, r2
10003cf6:	4290      	cmp	r0, r2
10003cf8:	d160      	bne.n	10003dbc <_scanf_float+0x220>
10003cfa:	4a99      	ldr	r2, [pc, #612]	; (10003f60 <_scanf_float+0x3c4>)
10003cfc:	3401      	adds	r4, #1
10003cfe:	400a      	ands	r2, r1
10003d00:	6032      	str	r2, [r6, #0]
10003d02:	e03a      	b.n	10003d7a <_scanf_float+0x1de>
10003d04:	21fd      	movs	r1, #253	; 0xfd
10003d06:	1ee2      	subs	r2, r4, #3
10003d08:	420a      	tst	r2, r1
10003d0a:	d150      	bne.n	10003dae <_scanf_float+0x212>
10003d0c:	3401      	adds	r4, #1
10003d0e:	b2e4      	uxtb	r4, r4
10003d10:	e033      	b.n	10003d7a <_scanf_float+0x1de>
10003d12:	2c02      	cmp	r4, #2
10003d14:	d14b      	bne.n	10003dae <_scanf_float+0x212>
10003d16:	2403      	movs	r4, #3
10003d18:	e02f      	b.n	10003d7a <_scanf_float+0x1de>
10003d1a:	2c06      	cmp	r4, #6
10003d1c:	d147      	bne.n	10003dae <_scanf_float+0x212>
10003d1e:	2407      	movs	r4, #7
10003d20:	e02b      	b.n	10003d7a <_scanf_float+0x1de>
10003d22:	2c07      	cmp	r4, #7
10003d24:	d143      	bne.n	10003dae <_scanf_float+0x212>
10003d26:	2408      	movs	r4, #8
10003d28:	e027      	b.n	10003d7a <_scanf_float+0x1de>
10003d2a:	6831      	ldr	r1, [r6, #0]
10003d2c:	058a      	lsls	r2, r1, #22
10003d2e:	d53e      	bpl.n	10003dae <_scanf_float+0x212>
10003d30:	4a8c      	ldr	r2, [pc, #560]	; (10003f64 <_scanf_float+0x3c8>)
10003d32:	400a      	ands	r2, r1
10003d34:	6032      	str	r2, [r6, #0]
10003d36:	9a00      	ldr	r2, [sp, #0]
10003d38:	9207      	str	r2, [sp, #28]
10003d3a:	e01e      	b.n	10003d7a <_scanf_float+0x1de>
10003d3c:	22a0      	movs	r2, #160	; 0xa0
10003d3e:	2080      	movs	r0, #128	; 0x80
10003d40:	6831      	ldr	r1, [r6, #0]
10003d42:	00d2      	lsls	r2, r2, #3
10003d44:	400a      	ands	r2, r1
10003d46:	00c0      	lsls	r0, r0, #3
10003d48:	4282      	cmp	r2, r0
10003d4a:	d004      	beq.n	10003d56 <_scanf_float+0x1ba>
10003d4c:	4201      	tst	r1, r0
10003d4e:	d02e      	beq.n	10003dae <_scanf_float+0x212>
10003d50:	9a00      	ldr	r2, [sp, #0]
10003d52:	2a00      	cmp	r2, #0
10003d54:	d032      	beq.n	10003dbc <_scanf_float+0x220>
10003d56:	058a      	lsls	r2, r1, #22
10003d58:	d404      	bmi.n	10003d64 <_scanf_float+0x1c8>
10003d5a:	9a00      	ldr	r2, [sp, #0]
10003d5c:	9807      	ldr	r0, [sp, #28]
10003d5e:	9709      	str	r7, [sp, #36]	; 0x24
10003d60:	1a12      	subs	r2, r2, r0
10003d62:	9208      	str	r2, [sp, #32]
10003d64:	4a7e      	ldr	r2, [pc, #504]	; (10003f60 <_scanf_float+0x3c4>)
10003d66:	400a      	ands	r2, r1
10003d68:	21c0      	movs	r1, #192	; 0xc0
10003d6a:	0049      	lsls	r1, r1, #1
10003d6c:	430a      	orrs	r2, r1
10003d6e:	6032      	str	r2, [r6, #0]
10003d70:	2200      	movs	r2, #0
10003d72:	9200      	str	r2, [sp, #0]
10003d74:	e001      	b.n	10003d7a <_scanf_float+0x1de>
10003d76:	2203      	movs	r2, #3
10003d78:	9203      	str	r2, [sp, #12]
10003d7a:	703b      	strb	r3, [r7, #0]
10003d7c:	3701      	adds	r7, #1
10003d7e:	68b3      	ldr	r3, [r6, #8]
10003d80:	3b01      	subs	r3, #1
10003d82:	60b3      	str	r3, [r6, #8]
10003d84:	6933      	ldr	r3, [r6, #16]
10003d86:	3301      	adds	r3, #1
10003d88:	6133      	str	r3, [r6, #16]
10003d8a:	686b      	ldr	r3, [r5, #4]
10003d8c:	3b01      	subs	r3, #1
10003d8e:	606b      	str	r3, [r5, #4]
10003d90:	2b00      	cmp	r3, #0
10003d92:	dd03      	ble.n	10003d9c <_scanf_float+0x200>
10003d94:	682b      	ldr	r3, [r5, #0]
10003d96:	3301      	adds	r3, #1
10003d98:	602b      	str	r3, [r5, #0]
10003d9a:	e722      	b.n	10003be2 <_scanf_float+0x46>
10003d9c:	23c0      	movs	r3, #192	; 0xc0
10003d9e:	005b      	lsls	r3, r3, #1
10003da0:	58f3      	ldr	r3, [r6, r3]
10003da2:	9802      	ldr	r0, [sp, #8]
10003da4:	1c29      	adds	r1, r5, #0
10003da6:	4798      	blx	r3
10003da8:	2800      	cmp	r0, #0
10003daa:	d100      	bne.n	10003dae <_scanf_float+0x212>
10003dac:	e719      	b.n	10003be2 <_scanf_float+0x46>
10003dae:	9b00      	ldr	r3, [sp, #0]
10003db0:	2b00      	cmp	r3, #0
10003db2:	d003      	beq.n	10003dbc <_scanf_float+0x220>
10003db4:	6832      	ldr	r2, [r6, #0]
10003db6:	4b6c      	ldr	r3, [pc, #432]	; (10003f68 <_scanf_float+0x3cc>)
10003db8:	4013      	ands	r3, r2
10003dba:	6033      	str	r3, [r6, #0]
10003dbc:	9b03      	ldr	r3, [sp, #12]
10003dbe:	3b01      	subs	r3, #1
10003dc0:	2b01      	cmp	r3, #1
10003dc2:	d810      	bhi.n	10003de6 <_scanf_float+0x24a>
10003dc4:	9b04      	ldr	r3, [sp, #16]
10003dc6:	429f      	cmp	r7, r3
10003dc8:	d90b      	bls.n	10003de2 <_scanf_float+0x246>
10003dca:	23be      	movs	r3, #190	; 0xbe
10003dcc:	3f01      	subs	r7, #1
10003dce:	005b      	lsls	r3, r3, #1
10003dd0:	58f3      	ldr	r3, [r6, r3]
10003dd2:	7839      	ldrb	r1, [r7, #0]
10003dd4:	9802      	ldr	r0, [sp, #8]
10003dd6:	1c2a      	adds	r2, r5, #0
10003dd8:	4798      	blx	r3
10003dda:	6933      	ldr	r3, [r6, #16]
10003ddc:	3b01      	subs	r3, #1
10003dde:	6133      	str	r3, [r6, #16]
10003de0:	e7f0      	b.n	10003dc4 <_scanf_float+0x228>
10003de2:	2401      	movs	r4, #1
10003de4:	e0b7      	b.n	10003f56 <_scanf_float+0x3ba>
10003de6:	1e63      	subs	r3, r4, #1
10003de8:	2b06      	cmp	r3, #6
10003dea:	d82a      	bhi.n	10003e42 <_scanf_float+0x2a6>
10003dec:	2c02      	cmp	r4, #2
10003dee:	d919      	bls.n	10003e24 <_scanf_float+0x288>
10003df0:	9405      	str	r4, [sp, #20]
10003df2:	9703      	str	r7, [sp, #12]
10003df4:	9b05      	ldr	r3, [sp, #20]
10003df6:	3b01      	subs	r3, #1
10003df8:	b2db      	uxtb	r3, r3
10003dfa:	9305      	str	r3, [sp, #20]
10003dfc:	2b02      	cmp	r3, #2
10003dfe:	d00d      	beq.n	10003e1c <_scanf_float+0x280>
10003e00:	9b03      	ldr	r3, [sp, #12]
10003e02:	9802      	ldr	r0, [sp, #8]
10003e04:	3b01      	subs	r3, #1
10003e06:	9303      	str	r3, [sp, #12]
10003e08:	7819      	ldrb	r1, [r3, #0]
10003e0a:	23be      	movs	r3, #190	; 0xbe
10003e0c:	005b      	lsls	r3, r3, #1
10003e0e:	58f3      	ldr	r3, [r6, r3]
10003e10:	1c2a      	adds	r2, r5, #0
10003e12:	4798      	blx	r3
10003e14:	6933      	ldr	r3, [r6, #16]
10003e16:	3b01      	subs	r3, #1
10003e18:	6133      	str	r3, [r6, #16]
10003e1a:	e7eb      	b.n	10003df4 <_scanf_float+0x258>
10003e1c:	3c03      	subs	r4, #3
10003e1e:	b2e4      	uxtb	r4, r4
10003e20:	1b3f      	subs	r7, r7, r4
10003e22:	e00e      	b.n	10003e42 <_scanf_float+0x2a6>
10003e24:	9b04      	ldr	r3, [sp, #16]
10003e26:	429f      	cmp	r7, r3
10003e28:	d9db      	bls.n	10003de2 <_scanf_float+0x246>
10003e2a:	23be      	movs	r3, #190	; 0xbe
10003e2c:	3f01      	subs	r7, #1
10003e2e:	005b      	lsls	r3, r3, #1
10003e30:	58f3      	ldr	r3, [r6, r3]
10003e32:	7839      	ldrb	r1, [r7, #0]
10003e34:	9802      	ldr	r0, [sp, #8]
10003e36:	1c2a      	adds	r2, r5, #0
10003e38:	4798      	blx	r3
10003e3a:	6933      	ldr	r3, [r6, #16]
10003e3c:	3b01      	subs	r3, #1
10003e3e:	6133      	str	r3, [r6, #16]
10003e40:	e7f0      	b.n	10003e24 <_scanf_float+0x288>
10003e42:	6833      	ldr	r3, [r6, #0]
10003e44:	05da      	lsls	r2, r3, #23
10003e46:	d52b      	bpl.n	10003ea0 <_scanf_float+0x304>
10003e48:	055b      	lsls	r3, r3, #21
10003e4a:	d50e      	bpl.n	10003e6a <_scanf_float+0x2ce>
10003e4c:	9b04      	ldr	r3, [sp, #16]
10003e4e:	429f      	cmp	r7, r3
10003e50:	d9c7      	bls.n	10003de2 <_scanf_float+0x246>
10003e52:	23be      	movs	r3, #190	; 0xbe
10003e54:	3f01      	subs	r7, #1
10003e56:	005b      	lsls	r3, r3, #1
10003e58:	58f3      	ldr	r3, [r6, r3]
10003e5a:	7839      	ldrb	r1, [r7, #0]
10003e5c:	9802      	ldr	r0, [sp, #8]
10003e5e:	1c2a      	adds	r2, r5, #0
10003e60:	4798      	blx	r3
10003e62:	6933      	ldr	r3, [r6, #16]
10003e64:	3b01      	subs	r3, #1
10003e66:	6133      	str	r3, [r6, #16]
10003e68:	e7f0      	b.n	10003e4c <_scanf_float+0x2b0>
10003e6a:	6933      	ldr	r3, [r6, #16]
10003e6c:	1e7c      	subs	r4, r7, #1
10003e6e:	7821      	ldrb	r1, [r4, #0]
10003e70:	3b01      	subs	r3, #1
10003e72:	6133      	str	r3, [r6, #16]
10003e74:	2965      	cmp	r1, #101	; 0x65
10003e76:	d00c      	beq.n	10003e92 <_scanf_float+0x2f6>
10003e78:	2945      	cmp	r1, #69	; 0x45
10003e7a:	d00a      	beq.n	10003e92 <_scanf_float+0x2f6>
10003e7c:	23be      	movs	r3, #190	; 0xbe
10003e7e:	005b      	lsls	r3, r3, #1
10003e80:	58f3      	ldr	r3, [r6, r3]
10003e82:	9802      	ldr	r0, [sp, #8]
10003e84:	1c2a      	adds	r2, r5, #0
10003e86:	4798      	blx	r3
10003e88:	6933      	ldr	r3, [r6, #16]
10003e8a:	1ebc      	subs	r4, r7, #2
10003e8c:	3b01      	subs	r3, #1
10003e8e:	7821      	ldrb	r1, [r4, #0]
10003e90:	6133      	str	r3, [r6, #16]
10003e92:	23be      	movs	r3, #190	; 0xbe
10003e94:	005b      	lsls	r3, r3, #1
10003e96:	58f3      	ldr	r3, [r6, r3]
10003e98:	9802      	ldr	r0, [sp, #8]
10003e9a:	1c2a      	adds	r2, r5, #0
10003e9c:	4798      	blx	r3
10003e9e:	1c27      	adds	r7, r4, #0
10003ea0:	2410      	movs	r4, #16
10003ea2:	6833      	ldr	r3, [r6, #0]
10003ea4:	401c      	ands	r4, r3
10003ea6:	d155      	bne.n	10003f54 <_scanf_float+0x3b8>
10003ea8:	23c0      	movs	r3, #192	; 0xc0
10003eaa:	703c      	strb	r4, [r7, #0]
10003eac:	6832      	ldr	r2, [r6, #0]
10003eae:	00db      	lsls	r3, r3, #3
10003eb0:	4013      	ands	r3, r2
10003eb2:	2280      	movs	r2, #128	; 0x80
10003eb4:	00d2      	lsls	r2, r2, #3
10003eb6:	4293      	cmp	r3, r2
10003eb8:	d106      	bne.n	10003ec8 <_scanf_float+0x32c>
10003eba:	9a07      	ldr	r2, [sp, #28]
10003ebc:	9b00      	ldr	r3, [sp, #0]
10003ebe:	1a9b      	subs	r3, r3, r2
10003ec0:	425a      	negs	r2, r3
10003ec2:	2b00      	cmp	r3, #0
10003ec4:	d10d      	bne.n	10003ee2 <_scanf_float+0x346>
10003ec6:	e018      	b.n	10003efa <_scanf_float+0x35e>
10003ec8:	9b08      	ldr	r3, [sp, #32]
10003eca:	2b00      	cmp	r3, #0
10003ecc:	d015      	beq.n	10003efa <_scanf_float+0x35e>
10003ece:	9b09      	ldr	r3, [sp, #36]	; 0x24
10003ed0:	1c22      	adds	r2, r4, #0
10003ed2:	1c59      	adds	r1, r3, #1
10003ed4:	9802      	ldr	r0, [sp, #8]
10003ed6:	230a      	movs	r3, #10
10003ed8:	f000 fee4 	bl	10004ca4 <_strtol_r>
10003edc:	9b08      	ldr	r3, [sp, #32]
10003ede:	9f09      	ldr	r7, [sp, #36]	; 0x24
10003ee0:	1ac2      	subs	r2, r0, r3
10003ee2:	1c33      	adds	r3, r6, #0
10003ee4:	3370      	adds	r3, #112	; 0x70
10003ee6:	33ff      	adds	r3, #255	; 0xff
10003ee8:	429f      	cmp	r7, r3
10003eea:	d302      	bcc.n	10003ef2 <_scanf_float+0x356>
10003eec:	1c37      	adds	r7, r6, #0
10003eee:	376f      	adds	r7, #111	; 0x6f
10003ef0:	37ff      	adds	r7, #255	; 0xff
10003ef2:	1c38      	adds	r0, r7, #0
10003ef4:	491d      	ldr	r1, [pc, #116]	; (10003f6c <_scanf_float+0x3d0>)
10003ef6:	f000 f867 	bl	10003fc8 <siprintf>
10003efa:	2200      	movs	r2, #0
10003efc:	9802      	ldr	r0, [sp, #8]
10003efe:	9904      	ldr	r1, [sp, #16]
10003f00:	f000 f8b6 	bl	10004070 <_strtod_r>
10003f04:	9b06      	ldr	r3, [sp, #24]
10003f06:	6832      	ldr	r2, [r6, #0]
10003f08:	9000      	str	r0, [sp, #0]
10003f0a:	9101      	str	r1, [sp, #4]
10003f0c:	681b      	ldr	r3, [r3, #0]
10003f0e:	0791      	lsls	r1, r2, #30
10003f10:	d401      	bmi.n	10003f16 <_scanf_float+0x37a>
10003f12:	0752      	lsls	r2, r2, #29
10003f14:	d508      	bpl.n	10003f28 <_scanf_float+0x38c>
10003f16:	9906      	ldr	r1, [sp, #24]
10003f18:	1d1a      	adds	r2, r3, #4
10003f1a:	600a      	str	r2, [r1, #0]
10003f1c:	681b      	ldr	r3, [r3, #0]
10003f1e:	9900      	ldr	r1, [sp, #0]
10003f20:	9a01      	ldr	r2, [sp, #4]
10003f22:	6019      	str	r1, [r3, #0]
10003f24:	605a      	str	r2, [r3, #4]
10003f26:	e011      	b.n	10003f4c <_scanf_float+0x3b0>
10003f28:	9906      	ldr	r1, [sp, #24]
10003f2a:	1d1a      	adds	r2, r3, #4
10003f2c:	600a      	str	r2, [r1, #0]
10003f2e:	9800      	ldr	r0, [sp, #0]
10003f30:	9901      	ldr	r1, [sp, #4]
10003f32:	681d      	ldr	r5, [r3, #0]
10003f34:	f000 f81c 	bl	10003f70 <__fpclassifyd>
10003f38:	2800      	cmp	r0, #0
10003f3a:	d102      	bne.n	10003f42 <_scanf_float+0x3a6>
10003f3c:	f000 f840 	bl	10003fc0 <nanf>
10003f40:	e003      	b.n	10003f4a <_scanf_float+0x3ae>
10003f42:	9800      	ldr	r0, [sp, #0]
10003f44:	9901      	ldr	r1, [sp, #4]
10003f46:	f004 fde1 	bl	10008b0c <__aeabi_d2f>
10003f4a:	6028      	str	r0, [r5, #0]
10003f4c:	68f3      	ldr	r3, [r6, #12]
10003f4e:	3301      	adds	r3, #1
10003f50:	60f3      	str	r3, [r6, #12]
10003f52:	e000      	b.n	10003f56 <_scanf_float+0x3ba>
10003f54:	2400      	movs	r4, #0
10003f56:	1c20      	adds	r0, r4, #0
10003f58:	b00b      	add	sp, #44	; 0x2c
10003f5a:	bdf0      	pop	{r4, r5, r6, r7, pc}
10003f5c:	fffffe7f 	.word	0xfffffe7f
10003f60:	fffff87f 	.word	0xfffff87f
10003f64:	fffffd7f 	.word	0xfffffd7f
10003f68:	fffffeff 	.word	0xfffffeff
10003f6c:	100096d6 	.word	0x100096d6

10003f70 <__fpclassifyd>:
10003f70:	b530      	push	{r4, r5, lr}
10003f72:	1c0c      	adds	r4, r1, #0
10003f74:	2302      	movs	r3, #2
10003f76:	4304      	orrs	r4, r0
10003f78:	d017      	beq.n	10003faa <__fpclassifyd+0x3a>
10003f7a:	2480      	movs	r4, #128	; 0x80
10003f7c:	0624      	lsls	r4, r4, #24
10003f7e:	42a1      	cmp	r1, r4
10003f80:	d101      	bne.n	10003f86 <__fpclassifyd+0x16>
10003f82:	2800      	cmp	r0, #0
10003f84:	d011      	beq.n	10003faa <__fpclassifyd+0x3a>
10003f86:	4b0a      	ldr	r3, [pc, #40]	; (10003fb0 <__fpclassifyd+0x40>)
10003f88:	0049      	lsls	r1, r1, #1
10003f8a:	0849      	lsrs	r1, r1, #1
10003f8c:	4a09      	ldr	r2, [pc, #36]	; (10003fb4 <__fpclassifyd+0x44>)
10003f8e:	18cc      	adds	r4, r1, r3
10003f90:	2304      	movs	r3, #4
10003f92:	4294      	cmp	r4, r2
10003f94:	d909      	bls.n	10003faa <__fpclassifyd+0x3a>
10003f96:	4a08      	ldr	r2, [pc, #32]	; (10003fb8 <__fpclassifyd+0x48>)
10003f98:	3b01      	subs	r3, #1
10003f9a:	4291      	cmp	r1, r2
10003f9c:	d905      	bls.n	10003faa <__fpclassifyd+0x3a>
10003f9e:	4a07      	ldr	r2, [pc, #28]	; (10003fbc <__fpclassifyd+0x4c>)
10003fa0:	2300      	movs	r3, #0
10003fa2:	4291      	cmp	r1, r2
10003fa4:	d101      	bne.n	10003faa <__fpclassifyd+0x3a>
10003fa6:	4243      	negs	r3, r0
10003fa8:	4143      	adcs	r3, r0
10003faa:	1c18      	adds	r0, r3, #0
10003fac:	bd30      	pop	{r4, r5, pc}
10003fae:	46c0      	nop			; (mov r8, r8)
10003fb0:	fff00000 	.word	0xfff00000
10003fb4:	7fdfffff 	.word	0x7fdfffff
10003fb8:	000fffff 	.word	0x000fffff
10003fbc:	7ff00000 	.word	0x7ff00000

10003fc0 <nanf>:
10003fc0:	4800      	ldr	r0, [pc, #0]	; (10003fc4 <nanf+0x4>)
10003fc2:	4770      	bx	lr
10003fc4:	7fc00000 	.word	0x7fc00000

10003fc8 <siprintf>:
10003fc8:	b40e      	push	{r1, r2, r3}
10003fca:	b510      	push	{r4, lr}
10003fcc:	b09d      	sub	sp, #116	; 0x74
10003fce:	a902      	add	r1, sp, #8
10003fd0:	9002      	str	r0, [sp, #8]
10003fd2:	6108      	str	r0, [r1, #16]
10003fd4:	480b      	ldr	r0, [pc, #44]	; (10004004 <siprintf+0x3c>)
10003fd6:	2482      	movs	r4, #130	; 0x82
10003fd8:	6088      	str	r0, [r1, #8]
10003fda:	6148      	str	r0, [r1, #20]
10003fdc:	2001      	movs	r0, #1
10003fde:	4240      	negs	r0, r0
10003fe0:	ab1f      	add	r3, sp, #124	; 0x7c
10003fe2:	81c8      	strh	r0, [r1, #14]
10003fe4:	4808      	ldr	r0, [pc, #32]	; (10004008 <siprintf+0x40>)
10003fe6:	cb04      	ldmia	r3!, {r2}
10003fe8:	00a4      	lsls	r4, r4, #2
10003fea:	6800      	ldr	r0, [r0, #0]
10003fec:	9301      	str	r3, [sp, #4]
10003fee:	818c      	strh	r4, [r1, #12]
10003ff0:	f002 fdb0 	bl	10006b54 <_svfiprintf_r>
10003ff4:	2300      	movs	r3, #0
10003ff6:	9a02      	ldr	r2, [sp, #8]
10003ff8:	7013      	strb	r3, [r2, #0]
10003ffa:	b01d      	add	sp, #116	; 0x74
10003ffc:	bc10      	pop	{r4}
10003ffe:	bc08      	pop	{r3}
10004000:	b003      	add	sp, #12
10004002:	4718      	bx	r3
10004004:	7fffffff 	.word	0x7fffffff
10004008:	20000b0c 	.word	0x20000b0c

1000400c <strlen>:
1000400c:	2300      	movs	r3, #0
1000400e:	5cc2      	ldrb	r2, [r0, r3]
10004010:	3301      	adds	r3, #1
10004012:	2a00      	cmp	r2, #0
10004014:	d1fb      	bne.n	1000400e <strlen+0x2>
10004016:	1e58      	subs	r0, r3, #1
10004018:	4770      	bx	lr

1000401a <match>:
1000401a:	b530      	push	{r4, r5, lr}
1000401c:	6803      	ldr	r3, [r0, #0]
1000401e:	780c      	ldrb	r4, [r1, #0]
10004020:	3301      	adds	r3, #1
10004022:	2c00      	cmp	r4, #0
10004024:	d00a      	beq.n	1000403c <match+0x22>
10004026:	781a      	ldrb	r2, [r3, #0]
10004028:	1c15      	adds	r5, r2, #0
1000402a:	3d41      	subs	r5, #65	; 0x41
1000402c:	2d19      	cmp	r5, #25
1000402e:	d800      	bhi.n	10004032 <match+0x18>
10004030:	3220      	adds	r2, #32
10004032:	3101      	adds	r1, #1
10004034:	42a2      	cmp	r2, r4
10004036:	d0f2      	beq.n	1000401e <match+0x4>
10004038:	2000      	movs	r0, #0
1000403a:	e001      	b.n	10004040 <match+0x26>
1000403c:	6003      	str	r3, [r0, #0]
1000403e:	2001      	movs	r0, #1
10004040:	bd30      	pop	{r4, r5, pc}
	...

10004044 <sulp>:
10004044:	b570      	push	{r4, r5, r6, lr}
10004046:	1c16      	adds	r6, r2, #0
10004048:	1c0d      	adds	r5, r1, #0
1000404a:	f002 fb4b 	bl	100066e4 <__ulp>
1000404e:	2e00      	cmp	r6, #0
10004050:	d00b      	beq.n	1000406a <sulp+0x26>
10004052:	226b      	movs	r2, #107	; 0x6b
10004054:	006b      	lsls	r3, r5, #1
10004056:	0d5b      	lsrs	r3, r3, #21
10004058:	1ad3      	subs	r3, r2, r3
1000405a:	2b00      	cmp	r3, #0
1000405c:	dd05      	ble.n	1000406a <sulp+0x26>
1000405e:	4d03      	ldr	r5, [pc, #12]	; (1000406c <sulp+0x28>)
10004060:	051c      	lsls	r4, r3, #20
10004062:	2200      	movs	r2, #0
10004064:	1963      	adds	r3, r4, r5
10004066:	f003 fe99 	bl	10007d9c <__aeabi_dmul>
1000406a:	bd70      	pop	{r4, r5, r6, pc}
1000406c:	3ff00000 	.word	0x3ff00000

10004070 <_strtod_r>:
10004070:	2300      	movs	r3, #0
10004072:	b5f0      	push	{r4, r5, r6, r7, lr}
10004074:	b0a3      	sub	sp, #140	; 0x8c
10004076:	931e      	str	r3, [sp, #120]	; 0x78
10004078:	2600      	movs	r6, #0
1000407a:	2700      	movs	r7, #0
1000407c:	1c0b      	adds	r3, r1, #0
1000407e:	9003      	str	r0, [sp, #12]
10004080:	9106      	str	r1, [sp, #24]
10004082:	9219      	str	r2, [sp, #100]	; 0x64
10004084:	931d      	str	r3, [sp, #116]	; 0x74
10004086:	9b1d      	ldr	r3, [sp, #116]	; 0x74
10004088:	781a      	ldrb	r2, [r3, #0]
1000408a:	2a0d      	cmp	r2, #13
1000408c:	d805      	bhi.n	1000409a <_strtod_r+0x2a>
1000408e:	2a09      	cmp	r2, #9
10004090:	d214      	bcs.n	100040bc <_strtod_r+0x4c>
10004092:	2a00      	cmp	r2, #0
10004094:	d100      	bne.n	10004098 <_strtod_r+0x28>
10004096:	e1c3      	b.n	10004420 <_strtod_r+0x3b0>
10004098:	e012      	b.n	100040c0 <_strtod_r+0x50>
1000409a:	2a2b      	cmp	r2, #43	; 0x2b
1000409c:	d006      	beq.n	100040ac <_strtod_r+0x3c>
1000409e:	2a2d      	cmp	r2, #45	; 0x2d
100040a0:	d002      	beq.n	100040a8 <_strtod_r+0x38>
100040a2:	2a20      	cmp	r2, #32
100040a4:	d10c      	bne.n	100040c0 <_strtod_r+0x50>
100040a6:	e009      	b.n	100040bc <_strtod_r+0x4c>
100040a8:	2201      	movs	r2, #1
100040aa:	e000      	b.n	100040ae <_strtod_r+0x3e>
100040ac:	2200      	movs	r2, #0
100040ae:	920d      	str	r2, [sp, #52]	; 0x34
100040b0:	1c5a      	adds	r2, r3, #1
100040b2:	921d      	str	r2, [sp, #116]	; 0x74
100040b4:	785b      	ldrb	r3, [r3, #1]
100040b6:	2b00      	cmp	r3, #0
100040b8:	d104      	bne.n	100040c4 <_strtod_r+0x54>
100040ba:	e1b1      	b.n	10004420 <_strtod_r+0x3b0>
100040bc:	3301      	adds	r3, #1
100040be:	e7e1      	b.n	10004084 <_strtod_r+0x14>
100040c0:	2300      	movs	r3, #0
100040c2:	930d      	str	r3, [sp, #52]	; 0x34
100040c4:	2200      	movs	r2, #0
100040c6:	9d1d      	ldr	r5, [sp, #116]	; 0x74
100040c8:	920a      	str	r2, [sp, #40]	; 0x28
100040ca:	782b      	ldrb	r3, [r5, #0]
100040cc:	2b30      	cmp	r3, #48	; 0x30
100040ce:	d15d      	bne.n	1000418c <_strtod_r+0x11c>
100040d0:	786b      	ldrb	r3, [r5, #1]
100040d2:	2b58      	cmp	r3, #88	; 0x58
100040d4:	d001      	beq.n	100040da <_strtod_r+0x6a>
100040d6:	2b78      	cmp	r3, #120	; 0x78
100040d8:	d14c      	bne.n	10004174 <_strtod_r+0x104>
100040da:	ab1e      	add	r3, sp, #120	; 0x78
100040dc:	9300      	str	r3, [sp, #0]
100040de:	9b0d      	ldr	r3, [sp, #52]	; 0x34
100040e0:	9803      	ldr	r0, [sp, #12]
100040e2:	9301      	str	r3, [sp, #4]
100040e4:	a91d      	add	r1, sp, #116	; 0x74
100040e6:	4ac2      	ldr	r2, [pc, #776]	; (100043f0 <_strtod_r+0x380>)
100040e8:	ab1f      	add	r3, sp, #124	; 0x7c
100040ea:	f001 fd3c 	bl	10005b66 <__gethex>
100040ee:	2407      	movs	r4, #7
100040f0:	9004      	str	r0, [sp, #16]
100040f2:	4004      	ands	r4, r0
100040f4:	d101      	bne.n	100040fa <_strtod_r+0x8a>
100040f6:	f000 fda7 	bl	10004c48 <_strtod_r+0xbd8>
100040fa:	2c06      	cmp	r4, #6
100040fc:	d105      	bne.n	1000410a <_strtod_r+0x9a>
100040fe:	2300      	movs	r3, #0
10004100:	3501      	adds	r5, #1
10004102:	951d      	str	r5, [sp, #116]	; 0x74
10004104:	930d      	str	r3, [sp, #52]	; 0x34
10004106:	f000 fd9f 	bl	10004c48 <_strtod_r+0xbd8>
1000410a:	9a1e      	ldr	r2, [sp, #120]	; 0x78
1000410c:	2a00      	cmp	r2, #0
1000410e:	d007      	beq.n	10004120 <_strtod_r+0xb0>
10004110:	a820      	add	r0, sp, #128	; 0x80
10004112:	2135      	movs	r1, #53	; 0x35
10004114:	f002 fbda 	bl	100068cc <__copybits>
10004118:	9803      	ldr	r0, [sp, #12]
1000411a:	991e      	ldr	r1, [sp, #120]	; 0x78
1000411c:	f002 f843 	bl	100061a6 <_Bfree>
10004120:	9b1f      	ldr	r3, [sp, #124]	; 0x7c
10004122:	2c06      	cmp	r4, #6
10004124:	d81c      	bhi.n	10004160 <_strtod_r+0xf0>
10004126:	1c20      	adds	r0, r4, #0
10004128:	f7ff f876 	bl	10003218 <__gnu_thumb1_case_uqi>
1000412c:	14070a04 	.word	0x14070a04
10004130:	0a17      	.short	0x0a17
10004132:	04          	.byte	0x04
10004133:	00          	.byte	0x00
10004134:	2700      	movs	r7, #0
10004136:	1c3e      	adds	r6, r7, #0
10004138:	e012      	b.n	10004160 <_strtod_r+0xf0>
1000413a:	9e20      	ldr	r6, [sp, #128]	; 0x80
1000413c:	9f21      	ldr	r7, [sp, #132]	; 0x84
1000413e:	e00f      	b.n	10004160 <_strtod_r+0xf0>
10004140:	4aac      	ldr	r2, [pc, #688]	; (100043f4 <_strtod_r+0x384>)
10004142:	9921      	ldr	r1, [sp, #132]	; 0x84
10004144:	189b      	adds	r3, r3, r2
10004146:	4aac      	ldr	r2, [pc, #688]	; (100043f8 <_strtod_r+0x388>)
10004148:	051b      	lsls	r3, r3, #20
1000414a:	400a      	ands	r2, r1
1000414c:	4313      	orrs	r3, r2
1000414e:	9e20      	ldr	r6, [sp, #128]	; 0x80
10004150:	1c1f      	adds	r7, r3, #0
10004152:	e005      	b.n	10004160 <_strtod_r+0xf0>
10004154:	4fa9      	ldr	r7, [pc, #676]	; (100043fc <_strtod_r+0x38c>)
10004156:	2600      	movs	r6, #0
10004158:	e002      	b.n	10004160 <_strtod_r+0xf0>
1000415a:	2601      	movs	r6, #1
1000415c:	4fa8      	ldr	r7, [pc, #672]	; (10004400 <_strtod_r+0x390>)
1000415e:	4276      	negs	r6, r6
10004160:	9b04      	ldr	r3, [sp, #16]
10004162:	071b      	lsls	r3, r3, #28
10004164:	d401      	bmi.n	1000416a <_strtod_r+0xfa>
10004166:	f000 fd6f 	bl	10004c48 <_strtod_r+0xbd8>
1000416a:	2380      	movs	r3, #128	; 0x80
1000416c:	061b      	lsls	r3, r3, #24
1000416e:	431f      	orrs	r7, r3
10004170:	f000 fd6a 	bl	10004c48 <_strtod_r+0xbd8>
10004174:	9b1d      	ldr	r3, [sp, #116]	; 0x74
10004176:	1c5a      	adds	r2, r3, #1
10004178:	921d      	str	r2, [sp, #116]	; 0x74
1000417a:	785b      	ldrb	r3, [r3, #1]
1000417c:	2b30      	cmp	r3, #48	; 0x30
1000417e:	d0f9      	beq.n	10004174 <_strtod_r+0x104>
10004180:	2b00      	cmp	r3, #0
10004182:	d101      	bne.n	10004188 <_strtod_r+0x118>
10004184:	f000 fd60 	bl	10004c48 <_strtod_r+0xbd8>
10004188:	2301      	movs	r3, #1
1000418a:	930a      	str	r3, [sp, #40]	; 0x28
1000418c:	9b1d      	ldr	r3, [sp, #116]	; 0x74
1000418e:	930c      	str	r3, [sp, #48]	; 0x30
10004190:	2300      	movs	r3, #0
10004192:	9305      	str	r3, [sp, #20]
10004194:	9307      	str	r3, [sp, #28]
10004196:	9304      	str	r3, [sp, #16]
10004198:	9c1d      	ldr	r4, [sp, #116]	; 0x74
1000419a:	7823      	ldrb	r3, [r4, #0]
1000419c:	1c1a      	adds	r2, r3, #0
1000419e:	3a30      	subs	r2, #48	; 0x30
100041a0:	9308      	str	r3, [sp, #32]
100041a2:	b2d3      	uxtb	r3, r2
100041a4:	2b09      	cmp	r3, #9
100041a6:	d812      	bhi.n	100041ce <_strtod_r+0x15e>
100041a8:	9904      	ldr	r1, [sp, #16]
100041aa:	230a      	movs	r3, #10
100041ac:	2908      	cmp	r1, #8
100041ae:	dc04      	bgt.n	100041ba <_strtod_r+0x14a>
100041b0:	9907      	ldr	r1, [sp, #28]
100041b2:	434b      	muls	r3, r1
100041b4:	18d3      	adds	r3, r2, r3
100041b6:	9307      	str	r3, [sp, #28]
100041b8:	e003      	b.n	100041c2 <_strtod_r+0x152>
100041ba:	9905      	ldr	r1, [sp, #20]
100041bc:	434b      	muls	r3, r1
100041be:	18d3      	adds	r3, r2, r3
100041c0:	9305      	str	r3, [sp, #20]
100041c2:	9b04      	ldr	r3, [sp, #16]
100041c4:	3401      	adds	r4, #1
100041c6:	3301      	adds	r3, #1
100041c8:	9304      	str	r3, [sp, #16]
100041ca:	941d      	str	r4, [sp, #116]	; 0x74
100041cc:	e7e4      	b.n	10004198 <_strtod_r+0x128>
100041ce:	9803      	ldr	r0, [sp, #12]
100041d0:	f001 ff98 	bl	10006104 <_localeconv_r>
100041d4:	6805      	ldr	r5, [r0, #0]
100041d6:	9803      	ldr	r0, [sp, #12]
100041d8:	f001 ff94 	bl	10006104 <_localeconv_r>
100041dc:	6800      	ldr	r0, [r0, #0]
100041de:	f7ff ff15 	bl	1000400c <strlen>
100041e2:	1c29      	adds	r1, r5, #0
100041e4:	1c02      	adds	r2, r0, #0
100041e6:	1c20      	adds	r0, r4, #0
100041e8:	f002 fdbc 	bl	10006d64 <strncmp>
100041ec:	1e05      	subs	r5, r0, #0
100041ee:	d005      	beq.n	100041fc <_strtod_r+0x18c>
100041f0:	2000      	movs	r0, #0
100041f2:	9b08      	ldr	r3, [sp, #32]
100041f4:	9c04      	ldr	r4, [sp, #16]
100041f6:	1c01      	adds	r1, r0, #0
100041f8:	9008      	str	r0, [sp, #32]
100041fa:	e05a      	b.n	100042b2 <_strtod_r+0x242>
100041fc:	9803      	ldr	r0, [sp, #12]
100041fe:	f001 ff81 	bl	10006104 <_localeconv_r>
10004202:	6800      	ldr	r0, [r0, #0]
10004204:	f7ff ff02 	bl	1000400c <strlen>
10004208:	9b1d      	ldr	r3, [sp, #116]	; 0x74
1000420a:	9a04      	ldr	r2, [sp, #16]
1000420c:	1818      	adds	r0, r3, r0
1000420e:	901d      	str	r0, [sp, #116]	; 0x74
10004210:	7803      	ldrb	r3, [r0, #0]
10004212:	1e10      	subs	r0, r2, #0
10004214:	d141      	bne.n	1000429a <_strtod_r+0x22a>
10004216:	2b30      	cmp	r3, #48	; 0x30
10004218:	d105      	bne.n	10004226 <_strtod_r+0x1b6>
1000421a:	9b1d      	ldr	r3, [sp, #116]	; 0x74
1000421c:	3001      	adds	r0, #1
1000421e:	1c5a      	adds	r2, r3, #1
10004220:	921d      	str	r2, [sp, #116]	; 0x74
10004222:	785b      	ldrb	r3, [r3, #1]
10004224:	e7f7      	b.n	10004216 <_strtod_r+0x1a6>
10004226:	1c1a      	adds	r2, r3, #0
10004228:	3a31      	subs	r2, #49	; 0x31
1000422a:	2a08      	cmp	r2, #8
1000422c:	d83d      	bhi.n	100042aa <_strtod_r+0x23a>
1000422e:	1c01      	adds	r1, r0, #0
10004230:	2000      	movs	r0, #0
10004232:	1c04      	adds	r4, r0, #0
10004234:	9a1d      	ldr	r2, [sp, #116]	; 0x74
10004236:	920c      	str	r2, [sp, #48]	; 0x30
10004238:	3b30      	subs	r3, #48	; 0x30
1000423a:	1c42      	adds	r2, r0, #1
1000423c:	2b00      	cmp	r3, #0
1000423e:	d026      	beq.n	1000428e <_strtod_r+0x21e>
10004240:	1889      	adds	r1, r1, r2
10004242:	1c22      	adds	r2, r4, #0
10004244:	1900      	adds	r0, r0, r4
10004246:	4282      	cmp	r2, r0
10004248:	d00f      	beq.n	1000426a <_strtod_r+0x1fa>
1000424a:	3201      	adds	r2, #1
1000424c:	1e54      	subs	r4, r2, #1
1000424e:	2c08      	cmp	r4, #8
10004250:	dc04      	bgt.n	1000425c <_strtod_r+0x1ec>
10004252:	240a      	movs	r4, #10
10004254:	9d07      	ldr	r5, [sp, #28]
10004256:	4365      	muls	r5, r4
10004258:	9507      	str	r5, [sp, #28]
1000425a:	e7f4      	b.n	10004246 <_strtod_r+0x1d6>
1000425c:	2a10      	cmp	r2, #16
1000425e:	dcf2      	bgt.n	10004246 <_strtod_r+0x1d6>
10004260:	240a      	movs	r4, #10
10004262:	9d05      	ldr	r5, [sp, #20]
10004264:	4365      	muls	r5, r4
10004266:	9505      	str	r5, [sp, #20]
10004268:	e7ed      	b.n	10004246 <_strtod_r+0x1d6>
1000426a:	1c54      	adds	r4, r2, #1
1000426c:	2a08      	cmp	r2, #8
1000426e:	dc06      	bgt.n	1000427e <_strtod_r+0x20e>
10004270:	220a      	movs	r2, #10
10004272:	9807      	ldr	r0, [sp, #28]
10004274:	4342      	muls	r2, r0
10004276:	18d3      	adds	r3, r2, r3
10004278:	9307      	str	r3, [sp, #28]
1000427a:	2200      	movs	r2, #0
1000427c:	e007      	b.n	1000428e <_strtod_r+0x21e>
1000427e:	2200      	movs	r2, #0
10004280:	2c10      	cmp	r4, #16
10004282:	dc04      	bgt.n	1000428e <_strtod_r+0x21e>
10004284:	200a      	movs	r0, #10
10004286:	9d05      	ldr	r5, [sp, #20]
10004288:	4368      	muls	r0, r5
1000428a:	18c3      	adds	r3, r0, r3
1000428c:	9305      	str	r3, [sp, #20]
1000428e:	9b1d      	ldr	r3, [sp, #116]	; 0x74
10004290:	1c58      	adds	r0, r3, #1
10004292:	901d      	str	r0, [sp, #116]	; 0x74
10004294:	785b      	ldrb	r3, [r3, #1]
10004296:	1c10      	adds	r0, r2, #0
10004298:	e002      	b.n	100042a0 <_strtod_r+0x230>
1000429a:	1c28      	adds	r0, r5, #0
1000429c:	1c29      	adds	r1, r5, #0
1000429e:	9c04      	ldr	r4, [sp, #16]
100042a0:	1c1a      	adds	r2, r3, #0
100042a2:	3a30      	subs	r2, #48	; 0x30
100042a4:	2a09      	cmp	r2, #9
100042a6:	d9c7      	bls.n	10004238 <_strtod_r+0x1c8>
100042a8:	e001      	b.n	100042ae <_strtod_r+0x23e>
100042aa:	2400      	movs	r4, #0
100042ac:	1c21      	adds	r1, r4, #0
100042ae:	2201      	movs	r2, #1
100042b0:	9208      	str	r2, [sp, #32]
100042b2:	2220      	movs	r2, #32
100042b4:	1c1d      	adds	r5, r3, #0
100042b6:	4395      	bics	r5, r2
100042b8:	2200      	movs	r2, #0
100042ba:	2d45      	cmp	r5, #69	; 0x45
100042bc:	d157      	bne.n	1000436e <_strtod_r+0x2fe>
100042be:	1c23      	adds	r3, r4, #0
100042c0:	9d0a      	ldr	r5, [sp, #40]	; 0x28
100042c2:	4303      	orrs	r3, r0
100042c4:	432b      	orrs	r3, r5
100042c6:	4293      	cmp	r3, r2
100042c8:	d100      	bne.n	100042cc <_strtod_r+0x25c>
100042ca:	e0a9      	b.n	10004420 <_strtod_r+0x3b0>
100042cc:	9b1d      	ldr	r3, [sp, #116]	; 0x74
100042ce:	9306      	str	r3, [sp, #24]
100042d0:	3301      	adds	r3, #1
100042d2:	931d      	str	r3, [sp, #116]	; 0x74
100042d4:	9b06      	ldr	r3, [sp, #24]
100042d6:	785b      	ldrb	r3, [r3, #1]
100042d8:	2b2b      	cmp	r3, #43	; 0x2b
100042da:	d006      	beq.n	100042ea <_strtod_r+0x27a>
100042dc:	2b2d      	cmp	r3, #45	; 0x2d
100042de:	d001      	beq.n	100042e4 <_strtod_r+0x274>
100042e0:	9209      	str	r2, [sp, #36]	; 0x24
100042e2:	e008      	b.n	100042f6 <_strtod_r+0x286>
100042e4:	2301      	movs	r3, #1
100042e6:	9309      	str	r3, [sp, #36]	; 0x24
100042e8:	e000      	b.n	100042ec <_strtod_r+0x27c>
100042ea:	9209      	str	r2, [sp, #36]	; 0x24
100042ec:	9b06      	ldr	r3, [sp, #24]
100042ee:	3302      	adds	r3, #2
100042f0:	931d      	str	r3, [sp, #116]	; 0x74
100042f2:	9b06      	ldr	r3, [sp, #24]
100042f4:	789b      	ldrb	r3, [r3, #2]
100042f6:	1c1a      	adds	r2, r3, #0
100042f8:	3a30      	subs	r2, #48	; 0x30
100042fa:	2a09      	cmp	r2, #9
100042fc:	d834      	bhi.n	10004368 <_strtod_r+0x2f8>
100042fe:	2b30      	cmp	r3, #48	; 0x30
10004300:	d104      	bne.n	1000430c <_strtod_r+0x29c>
10004302:	9b1d      	ldr	r3, [sp, #116]	; 0x74
10004304:	1c5a      	adds	r2, r3, #1
10004306:	921d      	str	r2, [sp, #116]	; 0x74
10004308:	785b      	ldrb	r3, [r3, #1]
1000430a:	e7f8      	b.n	100042fe <_strtod_r+0x28e>
1000430c:	2531      	movs	r5, #49	; 0x31
1000430e:	426d      	negs	r5, r5
10004310:	46ac      	mov	ip, r5
10004312:	449c      	add	ip, r3
10004314:	4665      	mov	r5, ip
10004316:	2200      	movs	r2, #0
10004318:	2d08      	cmp	r5, #8
1000431a:	d828      	bhi.n	1000436e <_strtod_r+0x2fe>
1000431c:	3b30      	subs	r3, #48	; 0x30
1000431e:	930b      	str	r3, [sp, #44]	; 0x2c
10004320:	9b1d      	ldr	r3, [sp, #116]	; 0x74
10004322:	930e      	str	r3, [sp, #56]	; 0x38
10004324:	2530      	movs	r5, #48	; 0x30
10004326:	426d      	negs	r5, r5
10004328:	46ac      	mov	ip, r5
1000432a:	9b1d      	ldr	r3, [sp, #116]	; 0x74
1000432c:	1c5a      	adds	r2, r3, #1
1000432e:	921d      	str	r2, [sp, #116]	; 0x74
10004330:	785b      	ldrb	r3, [r3, #1]
10004332:	449c      	add	ip, r3
10004334:	4665      	mov	r5, ip
10004336:	2d09      	cmp	r5, #9
10004338:	d806      	bhi.n	10004348 <_strtod_r+0x2d8>
1000433a:	220a      	movs	r2, #10
1000433c:	9d0b      	ldr	r5, [sp, #44]	; 0x2c
1000433e:	436a      	muls	r2, r5
10004340:	18d3      	adds	r3, r2, r3
10004342:	3b30      	subs	r3, #48	; 0x30
10004344:	930b      	str	r3, [sp, #44]	; 0x2c
10004346:	e7ed      	b.n	10004324 <_strtod_r+0x2b4>
10004348:	9d0e      	ldr	r5, [sp, #56]	; 0x38
1000434a:	1b52      	subs	r2, r2, r5
1000434c:	1e15      	subs	r5, r2, #0
1000434e:	4a2d      	ldr	r2, [pc, #180]	; (10004404 <_strtod_r+0x394>)
10004350:	4694      	mov	ip, r2
10004352:	2d08      	cmp	r5, #8
10004354:	dc03      	bgt.n	1000435e <_strtod_r+0x2ee>
10004356:	9a0b      	ldr	r2, [sp, #44]	; 0x2c
10004358:	4562      	cmp	r2, ip
1000435a:	dd00      	ble.n	1000435e <_strtod_r+0x2ee>
1000435c:	4662      	mov	r2, ip
1000435e:	9d09      	ldr	r5, [sp, #36]	; 0x24
10004360:	2d00      	cmp	r5, #0
10004362:	d004      	beq.n	1000436e <_strtod_r+0x2fe>
10004364:	4252      	negs	r2, r2
10004366:	e002      	b.n	1000436e <_strtod_r+0x2fe>
10004368:	9a06      	ldr	r2, [sp, #24]
1000436a:	921d      	str	r2, [sp, #116]	; 0x74
1000436c:	2200      	movs	r2, #0
1000436e:	2c00      	cmp	r4, #0
10004370:	d161      	bne.n	10004436 <_strtod_r+0x3c6>
10004372:	9a0a      	ldr	r2, [sp, #40]	; 0x28
10004374:	4310      	orrs	r0, r2
10004376:	d001      	beq.n	1000437c <_strtod_r+0x30c>
10004378:	f000 fc66 	bl	10004c48 <_strtod_r+0xbd8>
1000437c:	9a08      	ldr	r2, [sp, #32]
1000437e:	2a00      	cmp	r2, #0
10004380:	d14e      	bne.n	10004420 <_strtod_r+0x3b0>
10004382:	2b4e      	cmp	r3, #78	; 0x4e
10004384:	d01c      	beq.n	100043c0 <_strtod_r+0x350>
10004386:	dc02      	bgt.n	1000438e <_strtod_r+0x31e>
10004388:	2b49      	cmp	r3, #73	; 0x49
1000438a:	d005      	beq.n	10004398 <_strtod_r+0x328>
1000438c:	e048      	b.n	10004420 <_strtod_r+0x3b0>
1000438e:	2b69      	cmp	r3, #105	; 0x69
10004390:	d002      	beq.n	10004398 <_strtod_r+0x328>
10004392:	2b6e      	cmp	r3, #110	; 0x6e
10004394:	d014      	beq.n	100043c0 <_strtod_r+0x350>
10004396:	e043      	b.n	10004420 <_strtod_r+0x3b0>
10004398:	a81d      	add	r0, sp, #116	; 0x74
1000439a:	491b      	ldr	r1, [pc, #108]	; (10004408 <_strtod_r+0x398>)
1000439c:	f7ff fe3d 	bl	1000401a <match>
100043a0:	2800      	cmp	r0, #0
100043a2:	d03d      	beq.n	10004420 <_strtod_r+0x3b0>
100043a4:	9b1d      	ldr	r3, [sp, #116]	; 0x74
100043a6:	a81d      	add	r0, sp, #116	; 0x74
100043a8:	3b01      	subs	r3, #1
100043aa:	4918      	ldr	r1, [pc, #96]	; (1000440c <_strtod_r+0x39c>)
100043ac:	931d      	str	r3, [sp, #116]	; 0x74
100043ae:	f7ff fe34 	bl	1000401a <match>
100043b2:	2800      	cmp	r0, #0
100043b4:	d102      	bne.n	100043bc <_strtod_r+0x34c>
100043b6:	9b1d      	ldr	r3, [sp, #116]	; 0x74
100043b8:	3301      	adds	r3, #1
100043ba:	931d      	str	r3, [sp, #116]	; 0x74
100043bc:	4f0f      	ldr	r7, [pc, #60]	; (100043fc <_strtod_r+0x38c>)
100043be:	e02c      	b.n	1000441a <_strtod_r+0x3aa>
100043c0:	a81d      	add	r0, sp, #116	; 0x74
100043c2:	4913      	ldr	r1, [pc, #76]	; (10004410 <_strtod_r+0x3a0>)
100043c4:	f7ff fe29 	bl	1000401a <match>
100043c8:	2800      	cmp	r0, #0
100043ca:	d029      	beq.n	10004420 <_strtod_r+0x3b0>
100043cc:	9b1d      	ldr	r3, [sp, #116]	; 0x74
100043ce:	781b      	ldrb	r3, [r3, #0]
100043d0:	2b28      	cmp	r3, #40	; 0x28
100043d2:	d121      	bne.n	10004418 <_strtod_r+0x3a8>
100043d4:	a81d      	add	r0, sp, #116	; 0x74
100043d6:	490f      	ldr	r1, [pc, #60]	; (10004414 <_strtod_r+0x3a4>)
100043d8:	aa20      	add	r2, sp, #128	; 0x80
100043da:	f001 fdfa 	bl	10005fd2 <__hexnan>
100043de:	2805      	cmp	r0, #5
100043e0:	d11a      	bne.n	10004418 <_strtod_r+0x3a8>
100043e2:	9b21      	ldr	r3, [sp, #132]	; 0x84
100043e4:	4a05      	ldr	r2, [pc, #20]	; (100043fc <_strtod_r+0x38c>)
100043e6:	9e20      	ldr	r6, [sp, #128]	; 0x80
100043e8:	431a      	orrs	r2, r3
100043ea:	1c17      	adds	r7, r2, #0
100043ec:	f000 fc2c 	bl	10004c48 <_strtod_r+0xbd8>
100043f0:	100096dc 	.word	0x100096dc
100043f4:	00000433 	.word	0x00000433
100043f8:	ffefffff 	.word	0xffefffff
100043fc:	7ff00000 	.word	0x7ff00000
10004400:	7fffffff 	.word	0x7fffffff
10004404:	00004e1f 	.word	0x00004e1f
10004408:	100096a7 	.word	0x100096a7
1000440c:	10009830 	.word	0x10009830
10004410:	100096af 	.word	0x100096af
10004414:	10009718 	.word	0x10009718
10004418:	4f92      	ldr	r7, [pc, #584]	; (10004664 <_strtod_r+0x5f4>)
1000441a:	2600      	movs	r6, #0
1000441c:	f000 fc14 	bl	10004c48 <_strtod_r+0xbd8>
10004420:	9b06      	ldr	r3, [sp, #24]
10004422:	931d      	str	r3, [sp, #116]	; 0x74
10004424:	2300      	movs	r3, #0
10004426:	930d      	str	r3, [sp, #52]	; 0x34
10004428:	9b19      	ldr	r3, [sp, #100]	; 0x64
1000442a:	2b00      	cmp	r3, #0
1000442c:	d001      	beq.n	10004432 <_strtod_r+0x3c2>
1000442e:	f000 fc0e 	bl	10004c4e <_strtod_r+0xbde>
10004432:	f000 fc17 	bl	10004c64 <_strtod_r+0xbf4>
10004436:	1a53      	subs	r3, r2, r1
10004438:	9309      	str	r3, [sp, #36]	; 0x24
1000443a:	9b04      	ldr	r3, [sp, #16]
1000443c:	2b00      	cmp	r3, #0
1000443e:	d100      	bne.n	10004442 <_strtod_r+0x3d2>
10004440:	9404      	str	r4, [sp, #16]
10004442:	1e25      	subs	r5, r4, #0
10004444:	2d10      	cmp	r5, #16
10004446:	dd00      	ble.n	1000444a <_strtod_r+0x3da>
10004448:	2510      	movs	r5, #16
1000444a:	9807      	ldr	r0, [sp, #28]
1000444c:	f004 fb2c 	bl	10008aa8 <__aeabi_ui2d>
10004450:	1c06      	adds	r6, r0, #0
10004452:	1c0f      	adds	r7, r1, #0
10004454:	2d09      	cmp	r5, #9
10004456:	dd15      	ble.n	10004484 <_strtod_r+0x414>
10004458:	1c2b      	adds	r3, r5, #0
1000445a:	4a83      	ldr	r2, [pc, #524]	; (10004668 <_strtod_r+0x5f8>)
1000445c:	3b09      	subs	r3, #9
1000445e:	00db      	lsls	r3, r3, #3
10004460:	18d3      	adds	r3, r2, r3
10004462:	681a      	ldr	r2, [r3, #0]
10004464:	685b      	ldr	r3, [r3, #4]
10004466:	f003 fc99 	bl	10007d9c <__aeabi_dmul>
1000446a:	1c06      	adds	r6, r0, #0
1000446c:	9805      	ldr	r0, [sp, #20]
1000446e:	1c0f      	adds	r7, r1, #0
10004470:	f004 fb1a 	bl	10008aa8 <__aeabi_ui2d>
10004474:	1c02      	adds	r2, r0, #0
10004476:	1c0b      	adds	r3, r1, #0
10004478:	1c30      	adds	r0, r6, #0
1000447a:	1c39      	adds	r1, r7, #0
1000447c:	f002 fd28 	bl	10006ed0 <__aeabi_dadd>
10004480:	1c06      	adds	r6, r0, #0
10004482:	1c0f      	adds	r7, r1, #0
10004484:	2c0f      	cmp	r4, #15
10004486:	dc37      	bgt.n	100044f8 <_strtod_r+0x488>
10004488:	9b09      	ldr	r3, [sp, #36]	; 0x24
1000448a:	2b00      	cmp	r3, #0
1000448c:	d100      	bne.n	10004490 <_strtod_r+0x420>
1000448e:	e3db      	b.n	10004c48 <_strtod_r+0xbd8>
10004490:	dd24      	ble.n	100044dc <_strtod_r+0x46c>
10004492:	2b16      	cmp	r3, #22
10004494:	dc07      	bgt.n	100044a6 <_strtod_r+0x436>
10004496:	4974      	ldr	r1, [pc, #464]	; (10004668 <_strtod_r+0x5f8>)
10004498:	00da      	lsls	r2, r3, #3
1000449a:	188a      	adds	r2, r1, r2
1000449c:	6810      	ldr	r0, [r2, #0]
1000449e:	6851      	ldr	r1, [r2, #4]
100044a0:	1c3b      	adds	r3, r7, #0
100044a2:	1c32      	adds	r2, r6, #0
100044a4:	e015      	b.n	100044d2 <_strtod_r+0x462>
100044a6:	2325      	movs	r3, #37	; 0x25
100044a8:	9a09      	ldr	r2, [sp, #36]	; 0x24
100044aa:	1b1b      	subs	r3, r3, r4
100044ac:	429a      	cmp	r2, r3
100044ae:	dc23      	bgt.n	100044f8 <_strtod_r+0x488>
100044b0:	220f      	movs	r2, #15
100044b2:	4d6d      	ldr	r5, [pc, #436]	; (10004668 <_strtod_r+0x5f8>)
100044b4:	1b14      	subs	r4, r2, r4
100044b6:	00e3      	lsls	r3, r4, #3
100044b8:	18eb      	adds	r3, r5, r3
100044ba:	6818      	ldr	r0, [r3, #0]
100044bc:	6859      	ldr	r1, [r3, #4]
100044be:	1c32      	adds	r2, r6, #0
100044c0:	1c3b      	adds	r3, r7, #0
100044c2:	f003 fc6b 	bl	10007d9c <__aeabi_dmul>
100044c6:	9b09      	ldr	r3, [sp, #36]	; 0x24
100044c8:	1b1c      	subs	r4, r3, r4
100044ca:	00e4      	lsls	r4, r4, #3
100044cc:	192d      	adds	r5, r5, r4
100044ce:	682a      	ldr	r2, [r5, #0]
100044d0:	686b      	ldr	r3, [r5, #4]
100044d2:	f003 fc63 	bl	10007d9c <__aeabi_dmul>
100044d6:	1c06      	adds	r6, r0, #0
100044d8:	1c0f      	adds	r7, r1, #0
100044da:	e3b5      	b.n	10004c48 <_strtod_r+0xbd8>
100044dc:	9b09      	ldr	r3, [sp, #36]	; 0x24
100044de:	3316      	adds	r3, #22
100044e0:	db0a      	blt.n	100044f8 <_strtod_r+0x488>
100044e2:	9b09      	ldr	r3, [sp, #36]	; 0x24
100044e4:	1c30      	adds	r0, r6, #0
100044e6:	00da      	lsls	r2, r3, #3
100044e8:	4b5f      	ldr	r3, [pc, #380]	; (10004668 <_strtod_r+0x5f8>)
100044ea:	1c39      	adds	r1, r7, #0
100044ec:	1a9a      	subs	r2, r3, r2
100044ee:	6853      	ldr	r3, [r2, #4]
100044f0:	6812      	ldr	r2, [r2, #0]
100044f2:	f003 f815 	bl	10007520 <__aeabi_ddiv>
100044f6:	e7ee      	b.n	100044d6 <_strtod_r+0x466>
100044f8:	9b09      	ldr	r3, [sp, #36]	; 0x24
100044fa:	1b65      	subs	r5, r4, r5
100044fc:	195d      	adds	r5, r3, r5
100044fe:	2d00      	cmp	r5, #0
10004500:	dd59      	ble.n	100045b6 <_strtod_r+0x546>
10004502:	230f      	movs	r3, #15
10004504:	402b      	ands	r3, r5
10004506:	d00a      	beq.n	1000451e <_strtod_r+0x4ae>
10004508:	4a57      	ldr	r2, [pc, #348]	; (10004668 <_strtod_r+0x5f8>)
1000450a:	00db      	lsls	r3, r3, #3
1000450c:	18d3      	adds	r3, r2, r3
1000450e:	6818      	ldr	r0, [r3, #0]
10004510:	6859      	ldr	r1, [r3, #4]
10004512:	1c32      	adds	r2, r6, #0
10004514:	1c3b      	adds	r3, r7, #0
10004516:	f003 fc41 	bl	10007d9c <__aeabi_dmul>
1000451a:	1c06      	adds	r6, r0, #0
1000451c:	1c0f      	adds	r7, r1, #0
1000451e:	230f      	movs	r3, #15
10004520:	439d      	bics	r5, r3
10004522:	d100      	bne.n	10004526 <_strtod_r+0x4b6>
10004524:	e0b0      	b.n	10004688 <_strtod_r+0x618>
10004526:	3326      	adds	r3, #38	; 0x26
10004528:	33ff      	adds	r3, #255	; 0xff
1000452a:	429d      	cmp	r5, r3
1000452c:	dd0e      	ble.n	1000454c <_strtod_r+0x4dc>
1000452e:	2300      	movs	r3, #0
10004530:	9304      	str	r3, [sp, #16]
10004532:	9305      	str	r3, [sp, #20]
10004534:	930b      	str	r3, [sp, #44]	; 0x2c
10004536:	9308      	str	r3, [sp, #32]
10004538:	2322      	movs	r3, #34	; 0x22
1000453a:	2600      	movs	r6, #0
1000453c:	9a03      	ldr	r2, [sp, #12]
1000453e:	4f4b      	ldr	r7, [pc, #300]	; (1000466c <_strtod_r+0x5fc>)
10004540:	6013      	str	r3, [r2, #0]
10004542:	9b0b      	ldr	r3, [sp, #44]	; 0x2c
10004544:	42b3      	cmp	r3, r6
10004546:	d000      	beq.n	1000454a <_strtod_r+0x4da>
10004548:	e36a      	b.n	10004c20 <_strtod_r+0xbb0>
1000454a:	e37d      	b.n	10004c48 <_strtod_r+0xbd8>
1000454c:	2300      	movs	r3, #0
1000454e:	1c30      	adds	r0, r6, #0
10004550:	1c39      	adds	r1, r7, #0
10004552:	112d      	asrs	r5, r5, #4
10004554:	9305      	str	r3, [sp, #20]
10004556:	2d01      	cmp	r5, #1
10004558:	dd0e      	ble.n	10004578 <_strtod_r+0x508>
1000455a:	07eb      	lsls	r3, r5, #31
1000455c:	d507      	bpl.n	1000456e <_strtod_r+0x4fe>
1000455e:	9b05      	ldr	r3, [sp, #20]
10004560:	00da      	lsls	r2, r3, #3
10004562:	4b43      	ldr	r3, [pc, #268]	; (10004670 <_strtod_r+0x600>)
10004564:	18d3      	adds	r3, r2, r3
10004566:	681a      	ldr	r2, [r3, #0]
10004568:	685b      	ldr	r3, [r3, #4]
1000456a:	f003 fc17 	bl	10007d9c <__aeabi_dmul>
1000456e:	9b05      	ldr	r3, [sp, #20]
10004570:	106d      	asrs	r5, r5, #1
10004572:	3301      	adds	r3, #1
10004574:	9305      	str	r3, [sp, #20]
10004576:	e7ee      	b.n	10004556 <_strtod_r+0x4e6>
10004578:	1c06      	adds	r6, r0, #0
1000457a:	4b3e      	ldr	r3, [pc, #248]	; (10004674 <_strtod_r+0x604>)
1000457c:	18cf      	adds	r7, r1, r3
1000457e:	9b05      	ldr	r3, [sp, #20]
10004580:	00da      	lsls	r2, r3, #3
10004582:	4b3b      	ldr	r3, [pc, #236]	; (10004670 <_strtod_r+0x600>)
10004584:	189b      	adds	r3, r3, r2
10004586:	6818      	ldr	r0, [r3, #0]
10004588:	6859      	ldr	r1, [r3, #4]
1000458a:	1c32      	adds	r2, r6, #0
1000458c:	1c3b      	adds	r3, r7, #0
1000458e:	f003 fc05 	bl	10007d9c <__aeabi_dmul>
10004592:	4b36      	ldr	r3, [pc, #216]	; (1000466c <_strtod_r+0x5fc>)
10004594:	1c0f      	adds	r7, r1, #0
10004596:	400b      	ands	r3, r1
10004598:	4937      	ldr	r1, [pc, #220]	; (10004678 <_strtod_r+0x608>)
1000459a:	1c06      	adds	r6, r0, #0
1000459c:	428b      	cmp	r3, r1
1000459e:	d8c6      	bhi.n	1000452e <_strtod_r+0x4be>
100045a0:	4936      	ldr	r1, [pc, #216]	; (1000467c <_strtod_r+0x60c>)
100045a2:	428b      	cmp	r3, r1
100045a4:	d903      	bls.n	100045ae <_strtod_r+0x53e>
100045a6:	2601      	movs	r6, #1
100045a8:	4f35      	ldr	r7, [pc, #212]	; (10004680 <_strtod_r+0x610>)
100045aa:	4276      	negs	r6, r6
100045ac:	e06c      	b.n	10004688 <_strtod_r+0x618>
100045ae:	23d4      	movs	r3, #212	; 0xd4
100045b0:	049b      	lsls	r3, r3, #18
100045b2:	18ff      	adds	r7, r7, r3
100045b4:	e068      	b.n	10004688 <_strtod_r+0x618>
100045b6:	2d00      	cmp	r5, #0
100045b8:	d066      	beq.n	10004688 <_strtod_r+0x618>
100045ba:	230f      	movs	r3, #15
100045bc:	426d      	negs	r5, r5
100045be:	402b      	ands	r3, r5
100045c0:	d00a      	beq.n	100045d8 <_strtod_r+0x568>
100045c2:	4a29      	ldr	r2, [pc, #164]	; (10004668 <_strtod_r+0x5f8>)
100045c4:	00db      	lsls	r3, r3, #3
100045c6:	18d3      	adds	r3, r2, r3
100045c8:	1c30      	adds	r0, r6, #0
100045ca:	681a      	ldr	r2, [r3, #0]
100045cc:	685b      	ldr	r3, [r3, #4]
100045ce:	1c39      	adds	r1, r7, #0
100045d0:	f002 ffa6 	bl	10007520 <__aeabi_ddiv>
100045d4:	1c06      	adds	r6, r0, #0
100045d6:	1c0f      	adds	r7, r1, #0
100045d8:	112d      	asrs	r5, r5, #4
100045da:	d055      	beq.n	10004688 <_strtod_r+0x618>
100045dc:	2d1f      	cmp	r5, #31
100045de:	dd05      	ble.n	100045ec <_strtod_r+0x57c>
100045e0:	2300      	movs	r3, #0
100045e2:	9304      	str	r3, [sp, #16]
100045e4:	9305      	str	r3, [sp, #20]
100045e6:	930b      	str	r3, [sp, #44]	; 0x2c
100045e8:	9308      	str	r3, [sp, #32]
100045ea:	e118      	b.n	1000481e <_strtod_r+0x7ae>
100045ec:	2300      	movs	r3, #0
100045ee:	9306      	str	r3, [sp, #24]
100045f0:	06eb      	lsls	r3, r5, #27
100045f2:	d501      	bpl.n	100045f8 <_strtod_r+0x588>
100045f4:	236a      	movs	r3, #106	; 0x6a
100045f6:	9306      	str	r3, [sp, #24]
100045f8:	1c39      	adds	r1, r7, #0
100045fa:	1c30      	adds	r0, r6, #0
100045fc:	4e21      	ldr	r6, [pc, #132]	; (10004684 <_strtod_r+0x614>)
100045fe:	2d00      	cmp	r5, #0
10004600:	dd08      	ble.n	10004614 <_strtod_r+0x5a4>
10004602:	07eb      	lsls	r3, r5, #31
10004604:	d503      	bpl.n	1000460e <_strtod_r+0x59e>
10004606:	6832      	ldr	r2, [r6, #0]
10004608:	6873      	ldr	r3, [r6, #4]
1000460a:	f003 fbc7 	bl	10007d9c <__aeabi_dmul>
1000460e:	106d      	asrs	r5, r5, #1
10004610:	3608      	adds	r6, #8
10004612:	e7f4      	b.n	100045fe <_strtod_r+0x58e>
10004614:	9b06      	ldr	r3, [sp, #24]
10004616:	1c06      	adds	r6, r0, #0
10004618:	1c0f      	adds	r7, r1, #0
1000461a:	2b00      	cmp	r3, #0
1000461c:	d019      	beq.n	10004652 <_strtod_r+0x5e2>
1000461e:	226b      	movs	r2, #107	; 0x6b
10004620:	004b      	lsls	r3, r1, #1
10004622:	0d5b      	lsrs	r3, r3, #21
10004624:	1c08      	adds	r0, r1, #0
10004626:	1ad3      	subs	r3, r2, r3
10004628:	2b00      	cmp	r3, #0
1000462a:	dd12      	ble.n	10004652 <_strtod_r+0x5e2>
1000462c:	2b1f      	cmp	r3, #31
1000462e:	dd0c      	ble.n	1000464a <_strtod_r+0x5da>
10004630:	2600      	movs	r6, #0
10004632:	2b34      	cmp	r3, #52	; 0x34
10004634:	dd02      	ble.n	1000463c <_strtod_r+0x5cc>
10004636:	27dc      	movs	r7, #220	; 0xdc
10004638:	04bf      	lsls	r7, r7, #18
1000463a:	e00a      	b.n	10004652 <_strtod_r+0x5e2>
1000463c:	2201      	movs	r2, #1
1000463e:	3b20      	subs	r3, #32
10004640:	4252      	negs	r2, r2
10004642:	409a      	lsls	r2, r3
10004644:	4010      	ands	r0, r2
10004646:	1c07      	adds	r7, r0, #0
10004648:	e003      	b.n	10004652 <_strtod_r+0x5e2>
1000464a:	2201      	movs	r2, #1
1000464c:	4252      	negs	r2, r2
1000464e:	409a      	lsls	r2, r3
10004650:	4016      	ands	r6, r2
10004652:	1c30      	adds	r0, r6, #0
10004654:	1c39      	adds	r1, r7, #0
10004656:	2200      	movs	r2, #0
10004658:	2300      	movs	r3, #0
1000465a:	f002 fbed 	bl	10006e38 <__aeabi_dcmpeq>
1000465e:	2800      	cmp	r0, #0
10004660:	d1be      	bne.n	100045e0 <_strtod_r+0x570>
10004662:	e013      	b.n	1000468c <_strtod_r+0x61c>
10004664:	fff80000 	.word	0xfff80000
10004668:	10009848 	.word	0x10009848
1000466c:	7ff00000 	.word	0x7ff00000
10004670:	10009910 	.word	0x10009910
10004674:	fcb00000 	.word	0xfcb00000
10004678:	7ca00000 	.word	0x7ca00000
1000467c:	7c900000 	.word	0x7c900000
10004680:	7fefffff 	.word	0x7fefffff
10004684:	100096f0 	.word	0x100096f0
10004688:	2300      	movs	r3, #0
1000468a:	9306      	str	r3, [sp, #24]
1000468c:	9b07      	ldr	r3, [sp, #28]
1000468e:	9803      	ldr	r0, [sp, #12]
10004690:	9300      	str	r3, [sp, #0]
10004692:	990c      	ldr	r1, [sp, #48]	; 0x30
10004694:	9a04      	ldr	r2, [sp, #16]
10004696:	1c23      	adds	r3, r4, #0
10004698:	f001 fdda 	bl	10006250 <__s2b>
1000469c:	900b      	str	r0, [sp, #44]	; 0x2c
1000469e:	2800      	cmp	r0, #0
100046a0:	d100      	bne.n	100046a4 <_strtod_r+0x634>
100046a2:	e744      	b.n	1000452e <_strtod_r+0x4be>
100046a4:	9b09      	ldr	r3, [sp, #36]	; 0x24
100046a6:	9a09      	ldr	r2, [sp, #36]	; 0x24
100046a8:	425b      	negs	r3, r3
100046aa:	17d2      	asrs	r2, r2, #31
100046ac:	4013      	ands	r3, r2
100046ae:	9313      	str	r3, [sp, #76]	; 0x4c
100046b0:	2300      	movs	r3, #0
100046b2:	9304      	str	r3, [sp, #16]
100046b4:	9305      	str	r3, [sp, #20]
100046b6:	9b0b      	ldr	r3, [sp, #44]	; 0x2c
100046b8:	9803      	ldr	r0, [sp, #12]
100046ba:	6859      	ldr	r1, [r3, #4]
100046bc:	f001 fd3b 	bl	10006136 <_Balloc>
100046c0:	9008      	str	r0, [sp, #32]
100046c2:	2800      	cmp	r0, #0
100046c4:	d100      	bne.n	100046c8 <_strtod_r+0x658>
100046c6:	e737      	b.n	10004538 <_strtod_r+0x4c8>
100046c8:	9b0b      	ldr	r3, [sp, #44]	; 0x2c
100046ca:	990b      	ldr	r1, [sp, #44]	; 0x2c
100046cc:	691b      	ldr	r3, [r3, #16]
100046ce:	310c      	adds	r1, #12
100046d0:	1c9a      	adds	r2, r3, #2
100046d2:	0092      	lsls	r2, r2, #2
100046d4:	300c      	adds	r0, #12
100046d6:	9307      	str	r3, [sp, #28]
100046d8:	f7fe fdfc 	bl	100032d4 <memcpy>
100046dc:	ab1f      	add	r3, sp, #124	; 0x7c
100046de:	9300      	str	r3, [sp, #0]
100046e0:	ab20      	add	r3, sp, #128	; 0x80
100046e2:	9301      	str	r3, [sp, #4]
100046e4:	9803      	ldr	r0, [sp, #12]
100046e6:	1c32      	adds	r2, r6, #0
100046e8:	1c3b      	adds	r3, r7, #0
100046ea:	960e      	str	r6, [sp, #56]	; 0x38
100046ec:	970f      	str	r7, [sp, #60]	; 0x3c
100046ee:	f002 f86f 	bl	100067d0 <__d2b>
100046f2:	901e      	str	r0, [sp, #120]	; 0x78
100046f4:	2800      	cmp	r0, #0
100046f6:	d100      	bne.n	100046fa <_strtod_r+0x68a>
100046f8:	e71e      	b.n	10004538 <_strtod_r+0x4c8>
100046fa:	9803      	ldr	r0, [sp, #12]
100046fc:	2101      	movs	r1, #1
100046fe:	f001 fe31 	bl	10006364 <__i2b>
10004702:	9005      	str	r0, [sp, #20]
10004704:	2800      	cmp	r0, #0
10004706:	d100      	bne.n	1000470a <_strtod_r+0x69a>
10004708:	e716      	b.n	10004538 <_strtod_r+0x4c8>
1000470a:	2300      	movs	r3, #0
1000470c:	9a09      	ldr	r2, [sp, #36]	; 0x24
1000470e:	930a      	str	r3, [sp, #40]	; 0x28
10004710:	4293      	cmp	r3, r2
10004712:	da00      	bge.n	10004716 <_strtod_r+0x6a6>
10004714:	920a      	str	r2, [sp, #40]	; 0x28
10004716:	9b1f      	ldr	r3, [sp, #124]	; 0x7c
10004718:	2b00      	cmp	r3, #0
1000471a:	da00      	bge.n	1000471e <_strtod_r+0x6ae>
1000471c:	e089      	b.n	10004832 <_strtod_r+0x7c2>
1000471e:	9a13      	ldr	r2, [sp, #76]	; 0x4c
10004720:	9c0a      	ldr	r4, [sp, #40]	; 0x28
10004722:	18d5      	adds	r5, r2, r3
10004724:	9a06      	ldr	r2, [sp, #24]
10004726:	9920      	ldr	r1, [sp, #128]	; 0x80
10004728:	1a9b      	subs	r3, r3, r2
1000472a:	2236      	movs	r2, #54	; 0x36
1000472c:	185b      	adds	r3, r3, r1
1000472e:	1a52      	subs	r2, r2, r1
10004730:	49c8      	ldr	r1, [pc, #800]	; (10004a54 <_strtod_r+0x9e4>)
10004732:	2001      	movs	r0, #1
10004734:	428b      	cmp	r3, r1
10004736:	db00      	blt.n	1000473a <_strtod_r+0x6ca>
10004738:	e085      	b.n	10004846 <_strtod_r+0x7d6>
1000473a:	1ac9      	subs	r1, r1, r3
1000473c:	1a52      	subs	r2, r2, r1
1000473e:	291f      	cmp	r1, #31
10004740:	dc7b      	bgt.n	1000483a <_strtod_r+0x7ca>
10004742:	4088      	lsls	r0, r1
10004744:	2300      	movs	r3, #0
10004746:	9018      	str	r0, [sp, #96]	; 0x60
10004748:	9312      	str	r3, [sp, #72]	; 0x48
1000474a:	18ab      	adds	r3, r5, r2
1000474c:	9307      	str	r3, [sp, #28]
1000474e:	9b06      	ldr	r3, [sp, #24]
10004750:	18a4      	adds	r4, r4, r2
10004752:	18e4      	adds	r4, r4, r3
10004754:	9b07      	ldr	r3, [sp, #28]
10004756:	42ab      	cmp	r3, r5
10004758:	dd00      	ble.n	1000475c <_strtod_r+0x6ec>
1000475a:	1c2b      	adds	r3, r5, #0
1000475c:	42a3      	cmp	r3, r4
1000475e:	dd00      	ble.n	10004762 <_strtod_r+0x6f2>
10004760:	1c23      	adds	r3, r4, #0
10004762:	2b00      	cmp	r3, #0
10004764:	dd04      	ble.n	10004770 <_strtod_r+0x700>
10004766:	9a07      	ldr	r2, [sp, #28]
10004768:	1ae4      	subs	r4, r4, r3
1000476a:	1ad2      	subs	r2, r2, r3
1000476c:	9207      	str	r2, [sp, #28]
1000476e:	1aed      	subs	r5, r5, r3
10004770:	9b13      	ldr	r3, [sp, #76]	; 0x4c
10004772:	2b00      	cmp	r3, #0
10004774:	d16b      	bne.n	1000484e <_strtod_r+0x7de>
10004776:	9b07      	ldr	r3, [sp, #28]
10004778:	2b00      	cmp	r3, #0
1000477a:	dd00      	ble.n	1000477e <_strtod_r+0x70e>
1000477c:	e080      	b.n	10004880 <_strtod_r+0x810>
1000477e:	9b0a      	ldr	r3, [sp, #40]	; 0x28
10004780:	2b00      	cmp	r3, #0
10004782:	d000      	beq.n	10004786 <_strtod_r+0x716>
10004784:	e086      	b.n	10004894 <_strtod_r+0x824>
10004786:	2c00      	cmp	r4, #0
10004788:	dd00      	ble.n	1000478c <_strtod_r+0x71c>
1000478a:	e08d      	b.n	100048a8 <_strtod_r+0x838>
1000478c:	2d00      	cmp	r5, #0
1000478e:	dd00      	ble.n	10004792 <_strtod_r+0x722>
10004790:	e094      	b.n	100048bc <_strtod_r+0x84c>
10004792:	9803      	ldr	r0, [sp, #12]
10004794:	991e      	ldr	r1, [sp, #120]	; 0x78
10004796:	9a08      	ldr	r2, [sp, #32]
10004798:	f001 ff39 	bl	1000660e <__mdiff>
1000479c:	9004      	str	r0, [sp, #16]
1000479e:	2800      	cmp	r0, #0
100047a0:	d100      	bne.n	100047a4 <_strtod_r+0x734>
100047a2:	e6c9      	b.n	10004538 <_strtod_r+0x4c8>
100047a4:	2200      	movs	r2, #0
100047a6:	68c3      	ldr	r3, [r0, #12]
100047a8:	9905      	ldr	r1, [sp, #20]
100047aa:	60c2      	str	r2, [r0, #12]
100047ac:	930c      	str	r3, [sp, #48]	; 0x30
100047ae:	f001 ff13 	bl	100065d8 <__mcmp>
100047b2:	2800      	cmp	r0, #0
100047b4:	db00      	blt.n	100047b8 <_strtod_r+0x748>
100047b6:	e091      	b.n	100048dc <_strtod_r+0x86c>
100047b8:	9b0c      	ldr	r3, [sp, #48]	; 0x30
100047ba:	2b00      	cmp	r3, #0
100047bc:	d000      	beq.n	100047c0 <_strtod_r+0x750>
100047be:	e21a      	b.n	10004bf6 <_strtod_r+0xb86>
100047c0:	2e00      	cmp	r6, #0
100047c2:	d000      	beq.n	100047c6 <_strtod_r+0x756>
100047c4:	e217      	b.n	10004bf6 <_strtod_r+0xb86>
100047c6:	033b      	lsls	r3, r7, #12
100047c8:	d000      	beq.n	100047cc <_strtod_r+0x75c>
100047ca:	e214      	b.n	10004bf6 <_strtod_r+0xb86>
100047cc:	22d6      	movs	r2, #214	; 0xd6
100047ce:	4ba2      	ldr	r3, [pc, #648]	; (10004a58 <_strtod_r+0x9e8>)
100047d0:	04d2      	lsls	r2, r2, #19
100047d2:	403b      	ands	r3, r7
100047d4:	4293      	cmp	r3, r2
100047d6:	d800      	bhi.n	100047da <_strtod_r+0x76a>
100047d8:	e20d      	b.n	10004bf6 <_strtod_r+0xb86>
100047da:	9b04      	ldr	r3, [sp, #16]
100047dc:	695b      	ldr	r3, [r3, #20]
100047de:	9307      	str	r3, [sp, #28]
100047e0:	2b00      	cmp	r3, #0
100047e2:	d075      	beq.n	100048d0 <_strtod_r+0x860>
100047e4:	9904      	ldr	r1, [sp, #16]
100047e6:	9803      	ldr	r0, [sp, #12]
100047e8:	2201      	movs	r2, #1
100047ea:	f001 fea3 	bl	10006534 <__lshift>
100047ee:	9905      	ldr	r1, [sp, #20]
100047f0:	9004      	str	r0, [sp, #16]
100047f2:	f001 fef1 	bl	100065d8 <__mcmp>
100047f6:	2800      	cmp	r0, #0
100047f8:	dc00      	bgt.n	100047fc <_strtod_r+0x78c>
100047fa:	e1fc      	b.n	10004bf6 <_strtod_r+0xb86>
100047fc:	9a06      	ldr	r2, [sp, #24]
100047fe:	4b96      	ldr	r3, [pc, #600]	; (10004a58 <_strtod_r+0x9e8>)
10004800:	2a00      	cmp	r2, #0
10004802:	d100      	bne.n	10004806 <_strtod_r+0x796>
10004804:	e09a      	b.n	1000493c <_strtod_r+0x8cc>
10004806:	1c1a      	adds	r2, r3, #0
10004808:	21d6      	movs	r1, #214	; 0xd6
1000480a:	403a      	ands	r2, r7
1000480c:	04c9      	lsls	r1, r1, #19
1000480e:	428a      	cmp	r2, r1
10004810:	dd00      	ble.n	10004814 <_strtod_r+0x7a4>
10004812:	e093      	b.n	1000493c <_strtod_r+0x8cc>
10004814:	23dc      	movs	r3, #220	; 0xdc
10004816:	049b      	lsls	r3, r3, #18
10004818:	429a      	cmp	r2, r3
1000481a:	dd00      	ble.n	1000481e <_strtod_r+0x7ae>
1000481c:	e1ee      	b.n	10004bfc <_strtod_r+0xb8c>
1000481e:	2322      	movs	r3, #34	; 0x22
10004820:	9a03      	ldr	r2, [sp, #12]
10004822:	2600      	movs	r6, #0
10004824:	6013      	str	r3, [r2, #0]
10004826:	9b0b      	ldr	r3, [sp, #44]	; 0x2c
10004828:	2700      	movs	r7, #0
1000482a:	2b00      	cmp	r3, #0
1000482c:	d000      	beq.n	10004830 <_strtod_r+0x7c0>
1000482e:	e1f7      	b.n	10004c20 <_strtod_r+0xbb0>
10004830:	e20a      	b.n	10004c48 <_strtod_r+0xbd8>
10004832:	9a0a      	ldr	r2, [sp, #40]	; 0x28
10004834:	9d13      	ldr	r5, [sp, #76]	; 0x4c
10004836:	1ad4      	subs	r4, r2, r3
10004838:	e774      	b.n	10004724 <_strtod_r+0x6b4>
1000483a:	4988      	ldr	r1, [pc, #544]	; (10004a5c <_strtod_r+0x9ec>)
1000483c:	1acb      	subs	r3, r1, r3
1000483e:	1c01      	adds	r1, r0, #0
10004840:	4099      	lsls	r1, r3
10004842:	9112      	str	r1, [sp, #72]	; 0x48
10004844:	e001      	b.n	1000484a <_strtod_r+0x7da>
10004846:	2300      	movs	r3, #0
10004848:	9312      	str	r3, [sp, #72]	; 0x48
1000484a:	9018      	str	r0, [sp, #96]	; 0x60
1000484c:	e77d      	b.n	1000474a <_strtod_r+0x6da>
1000484e:	1c1a      	adds	r2, r3, #0
10004850:	9803      	ldr	r0, [sp, #12]
10004852:	9905      	ldr	r1, [sp, #20]
10004854:	f001 fe1c 	bl	10006490 <__pow5mult>
10004858:	9005      	str	r0, [sp, #20]
1000485a:	1e03      	subs	r3, r0, #0
1000485c:	d100      	bne.n	10004860 <_strtod_r+0x7f0>
1000485e:	e66b      	b.n	10004538 <_strtod_r+0x4c8>
10004860:	9803      	ldr	r0, [sp, #12]
10004862:	1c19      	adds	r1, r3, #0
10004864:	9a1e      	ldr	r2, [sp, #120]	; 0x78
10004866:	f001 fd86 	bl	10006376 <__multiply>
1000486a:	900c      	str	r0, [sp, #48]	; 0x30
1000486c:	2800      	cmp	r0, #0
1000486e:	d100      	bne.n	10004872 <_strtod_r+0x802>
10004870:	e662      	b.n	10004538 <_strtod_r+0x4c8>
10004872:	9803      	ldr	r0, [sp, #12]
10004874:	991e      	ldr	r1, [sp, #120]	; 0x78
10004876:	f001 fc96 	bl	100061a6 <_Bfree>
1000487a:	9b0c      	ldr	r3, [sp, #48]	; 0x30
1000487c:	931e      	str	r3, [sp, #120]	; 0x78
1000487e:	e77a      	b.n	10004776 <_strtod_r+0x706>
10004880:	9803      	ldr	r0, [sp, #12]
10004882:	991e      	ldr	r1, [sp, #120]	; 0x78
10004884:	9a07      	ldr	r2, [sp, #28]
10004886:	f001 fe55 	bl	10006534 <__lshift>
1000488a:	901e      	str	r0, [sp, #120]	; 0x78
1000488c:	2800      	cmp	r0, #0
1000488e:	d000      	beq.n	10004892 <_strtod_r+0x822>
10004890:	e775      	b.n	1000477e <_strtod_r+0x70e>
10004892:	e651      	b.n	10004538 <_strtod_r+0x4c8>
10004894:	9803      	ldr	r0, [sp, #12]
10004896:	9908      	ldr	r1, [sp, #32]
10004898:	9a0a      	ldr	r2, [sp, #40]	; 0x28
1000489a:	f001 fdf9 	bl	10006490 <__pow5mult>
1000489e:	9008      	str	r0, [sp, #32]
100048a0:	2800      	cmp	r0, #0
100048a2:	d000      	beq.n	100048a6 <_strtod_r+0x836>
100048a4:	e76f      	b.n	10004786 <_strtod_r+0x716>
100048a6:	e647      	b.n	10004538 <_strtod_r+0x4c8>
100048a8:	9803      	ldr	r0, [sp, #12]
100048aa:	9908      	ldr	r1, [sp, #32]
100048ac:	1c22      	adds	r2, r4, #0
100048ae:	f001 fe41 	bl	10006534 <__lshift>
100048b2:	9008      	str	r0, [sp, #32]
100048b4:	2800      	cmp	r0, #0
100048b6:	d000      	beq.n	100048ba <_strtod_r+0x84a>
100048b8:	e768      	b.n	1000478c <_strtod_r+0x71c>
100048ba:	e63d      	b.n	10004538 <_strtod_r+0x4c8>
100048bc:	9803      	ldr	r0, [sp, #12]
100048be:	9905      	ldr	r1, [sp, #20]
100048c0:	1c2a      	adds	r2, r5, #0
100048c2:	f001 fe37 	bl	10006534 <__lshift>
100048c6:	9005      	str	r0, [sp, #20]
100048c8:	2800      	cmp	r0, #0
100048ca:	d000      	beq.n	100048ce <_strtod_r+0x85e>
100048cc:	e761      	b.n	10004792 <_strtod_r+0x722>
100048ce:	e633      	b.n	10004538 <_strtod_r+0x4c8>
100048d0:	9b04      	ldr	r3, [sp, #16]
100048d2:	691b      	ldr	r3, [r3, #16]
100048d4:	9307      	str	r3, [sp, #28]
100048d6:	2b01      	cmp	r3, #1
100048d8:	dc84      	bgt.n	100047e4 <_strtod_r+0x774>
100048da:	e18c      	b.n	10004bf6 <_strtod_r+0xb86>
100048dc:	2800      	cmp	r0, #0
100048de:	d164      	bne.n	100049aa <_strtod_r+0x93a>
100048e0:	9a0c      	ldr	r2, [sp, #48]	; 0x30
100048e2:	033b      	lsls	r3, r7, #12
100048e4:	2a00      	cmp	r2, #0
100048e6:	d024      	beq.n	10004932 <_strtod_r+0x8c2>
100048e8:	4a5d      	ldr	r2, [pc, #372]	; (10004a60 <_strtod_r+0x9f0>)
100048ea:	1c39      	adds	r1, r7, #0
100048ec:	0b1b      	lsrs	r3, r3, #12
100048ee:	4293      	cmp	r3, r2
100048f0:	d12d      	bne.n	1000494e <_strtod_r+0x8de>
100048f2:	9a06      	ldr	r2, [sp, #24]
100048f4:	3801      	subs	r0, #1
100048f6:	1c34      	adds	r4, r6, #0
100048f8:	1c03      	adds	r3, r0, #0
100048fa:	2a00      	cmp	r2, #0
100048fc:	d00a      	beq.n	10004914 <_strtod_r+0x8a4>
100048fe:	25d4      	movs	r5, #212	; 0xd4
10004900:	4a55      	ldr	r2, [pc, #340]	; (10004a58 <_strtod_r+0x9e8>)
10004902:	04ed      	lsls	r5, r5, #19
10004904:	403a      	ands	r2, r7
10004906:	42aa      	cmp	r2, r5
10004908:	d804      	bhi.n	10004914 <_strtod_r+0x8a4>
1000490a:	336c      	adds	r3, #108	; 0x6c
1000490c:	0d12      	lsrs	r2, r2, #20
1000490e:	1a9a      	subs	r2, r3, r2
10004910:	1c03      	adds	r3, r0, #0
10004912:	4093      	lsls	r3, r2
10004914:	429c      	cmp	r4, r3
10004916:	d11a      	bne.n	1000494e <_strtod_r+0x8de>
10004918:	4b52      	ldr	r3, [pc, #328]	; (10004a64 <_strtod_r+0x9f4>)
1000491a:	4299      	cmp	r1, r3
1000491c:	d102      	bne.n	10004924 <_strtod_r+0x8b4>
1000491e:	1c63      	adds	r3, r4, #1
10004920:	d100      	bne.n	10004924 <_strtod_r+0x8b4>
10004922:	e609      	b.n	10004538 <_strtod_r+0x4c8>
10004924:	4b4c      	ldr	r3, [pc, #304]	; (10004a58 <_strtod_r+0x9e8>)
10004926:	2600      	movs	r6, #0
10004928:	4019      	ands	r1, r3
1000492a:	2380      	movs	r3, #128	; 0x80
1000492c:	035b      	lsls	r3, r3, #13
1000492e:	18cf      	adds	r7, r1, r3
10004930:	e161      	b.n	10004bf6 <_strtod_r+0xb86>
10004932:	2b00      	cmp	r3, #0
10004934:	d10b      	bne.n	1000494e <_strtod_r+0x8de>
10004936:	2e00      	cmp	r6, #0
10004938:	d109      	bne.n	1000494e <_strtod_r+0x8de>
1000493a:	e75f      	b.n	100047fc <_strtod_r+0x78c>
1000493c:	2601      	movs	r6, #1
1000493e:	4a4a      	ldr	r2, [pc, #296]	; (10004a68 <_strtod_r+0x9f8>)
10004940:	403b      	ands	r3, r7
10004942:	189b      	adds	r3, r3, r2
10004944:	4a46      	ldr	r2, [pc, #280]	; (10004a60 <_strtod_r+0x9f0>)
10004946:	4276      	negs	r6, r6
10004948:	431a      	orrs	r2, r3
1000494a:	1c17      	adds	r7, r2, #0
1000494c:	e153      	b.n	10004bf6 <_strtod_r+0xb86>
1000494e:	9b12      	ldr	r3, [sp, #72]	; 0x48
10004950:	2b00      	cmp	r3, #0
10004952:	d003      	beq.n	1000495c <_strtod_r+0x8ec>
10004954:	423b      	tst	r3, r7
10004956:	d100      	bne.n	1000495a <_strtod_r+0x8ea>
10004958:	e14d      	b.n	10004bf6 <_strtod_r+0xb86>
1000495a:	e003      	b.n	10004964 <_strtod_r+0x8f4>
1000495c:	9b18      	ldr	r3, [sp, #96]	; 0x60
1000495e:	4233      	tst	r3, r6
10004960:	d100      	bne.n	10004964 <_strtod_r+0x8f4>
10004962:	e148      	b.n	10004bf6 <_strtod_r+0xb86>
10004964:	9b0c      	ldr	r3, [sp, #48]	; 0x30
10004966:	1c30      	adds	r0, r6, #0
10004968:	1c39      	adds	r1, r7, #0
1000496a:	9a06      	ldr	r2, [sp, #24]
1000496c:	2b00      	cmp	r3, #0
1000496e:	d00a      	beq.n	10004986 <_strtod_r+0x916>
10004970:	f7ff fb68 	bl	10004044 <sulp>
10004974:	1c02      	adds	r2, r0, #0
10004976:	1c0b      	adds	r3, r1, #0
10004978:	980e      	ldr	r0, [sp, #56]	; 0x38
1000497a:	990f      	ldr	r1, [sp, #60]	; 0x3c
1000497c:	f002 faa8 	bl	10006ed0 <__aeabi_dadd>
10004980:	1c06      	adds	r6, r0, #0
10004982:	1c0f      	adds	r7, r1, #0
10004984:	e137      	b.n	10004bf6 <_strtod_r+0xb86>
10004986:	f7ff fb5d 	bl	10004044 <sulp>
1000498a:	1c02      	adds	r2, r0, #0
1000498c:	1c0b      	adds	r3, r1, #0
1000498e:	980e      	ldr	r0, [sp, #56]	; 0x38
10004990:	990f      	ldr	r1, [sp, #60]	; 0x3c
10004992:	f003 fc9d 	bl	100082d0 <__aeabi_dsub>
10004996:	2200      	movs	r2, #0
10004998:	2300      	movs	r3, #0
1000499a:	1c06      	adds	r6, r0, #0
1000499c:	1c0f      	adds	r7, r1, #0
1000499e:	f002 fa4b 	bl	10006e38 <__aeabi_dcmpeq>
100049a2:	2800      	cmp	r0, #0
100049a4:	d000      	beq.n	100049a8 <_strtod_r+0x938>
100049a6:	e73a      	b.n	1000481e <_strtod_r+0x7ae>
100049a8:	e125      	b.n	10004bf6 <_strtod_r+0xb86>
100049aa:	9804      	ldr	r0, [sp, #16]
100049ac:	9905      	ldr	r1, [sp, #20]
100049ae:	f001 ff63 	bl	10006878 <__ratio>
100049b2:	2380      	movs	r3, #128	; 0x80
100049b4:	2200      	movs	r2, #0
100049b6:	05db      	lsls	r3, r3, #23
100049b8:	1c04      	adds	r4, r0, #0
100049ba:	1c0d      	adds	r5, r1, #0
100049bc:	f002 fa4c 	bl	10006e58 <__aeabi_dcmple>
100049c0:	2800      	cmp	r0, #0
100049c2:	d036      	beq.n	10004a32 <_strtod_r+0x9c2>
100049c4:	9b0c      	ldr	r3, [sp, #48]	; 0x30
100049c6:	2b00      	cmp	r3, #0
100049c8:	d002      	beq.n	100049d0 <_strtod_r+0x960>
100049ca:	2400      	movs	r4, #0
100049cc:	4d27      	ldr	r5, [pc, #156]	; (10004a6c <_strtod_r+0x9fc>)
100049ce:	e00b      	b.n	100049e8 <_strtod_r+0x978>
100049d0:	2e00      	cmp	r6, #0
100049d2:	d102      	bne.n	100049da <_strtod_r+0x96a>
100049d4:	033b      	lsls	r3, r7, #12
100049d6:	d105      	bne.n	100049e4 <_strtod_r+0x974>
100049d8:	e00b      	b.n	100049f2 <_strtod_r+0x982>
100049da:	2e01      	cmp	r6, #1
100049dc:	d102      	bne.n	100049e4 <_strtod_r+0x974>
100049de:	2f00      	cmp	r7, #0
100049e0:	d100      	bne.n	100049e4 <_strtod_r+0x974>
100049e2:	e71c      	b.n	1000481e <_strtod_r+0x7ae>
100049e4:	2400      	movs	r4, #0
100049e6:	4d22      	ldr	r5, [pc, #136]	; (10004a70 <_strtod_r+0xa00>)
100049e8:	2300      	movs	r3, #0
100049ea:	9307      	str	r3, [sp, #28]
100049ec:	4b1f      	ldr	r3, [pc, #124]	; (10004a6c <_strtod_r+0x9fc>)
100049ee:	930a      	str	r3, [sp, #40]	; 0x28
100049f0:	e048      	b.n	10004a84 <_strtod_r+0xa14>
100049f2:	1c20      	adds	r0, r4, #0
100049f4:	1c29      	adds	r1, r5, #0
100049f6:	2200      	movs	r2, #0
100049f8:	4b1c      	ldr	r3, [pc, #112]	; (10004a6c <_strtod_r+0x9fc>)
100049fa:	f002 fa23 	bl	10006e44 <__aeabi_dcmplt>
100049fe:	2800      	cmp	r0, #0
10004a00:	d108      	bne.n	10004a14 <_strtod_r+0x9a4>
10004a02:	1c20      	adds	r0, r4, #0
10004a04:	1c29      	adds	r1, r5, #0
10004a06:	2200      	movs	r2, #0
10004a08:	4b1a      	ldr	r3, [pc, #104]	; (10004a74 <_strtod_r+0xa04>)
10004a0a:	f003 f9c7 	bl	10007d9c <__aeabi_dmul>
10004a0e:	9007      	str	r0, [sp, #28]
10004a10:	910a      	str	r1, [sp, #40]	; 0x28
10004a12:	e003      	b.n	10004a1c <_strtod_r+0x9ac>
10004a14:	9b0c      	ldr	r3, [sp, #48]	; 0x30
10004a16:	9307      	str	r3, [sp, #28]
10004a18:	4b16      	ldr	r3, [pc, #88]	; (10004a74 <_strtod_r+0xa04>)
10004a1a:	930a      	str	r3, [sp, #40]	; 0x28
10004a1c:	2280      	movs	r2, #128	; 0x80
10004a1e:	0612      	lsls	r2, r2, #24
10004a20:	4694      	mov	ip, r2
10004a22:	9b07      	ldr	r3, [sp, #28]
10004a24:	931a      	str	r3, [sp, #104]	; 0x68
10004a26:	9b0a      	ldr	r3, [sp, #40]	; 0x28
10004a28:	4463      	add	r3, ip
10004a2a:	931b      	str	r3, [sp, #108]	; 0x6c
10004a2c:	9c1a      	ldr	r4, [sp, #104]	; 0x68
10004a2e:	9d1b      	ldr	r5, [sp, #108]	; 0x6c
10004a30:	e028      	b.n	10004a84 <_strtod_r+0xa14>
10004a32:	4b10      	ldr	r3, [pc, #64]	; (10004a74 <_strtod_r+0xa04>)
10004a34:	1c20      	adds	r0, r4, #0
10004a36:	1c29      	adds	r1, r5, #0
10004a38:	2200      	movs	r2, #0
10004a3a:	f003 f9af 	bl	10007d9c <__aeabi_dmul>
10004a3e:	9b0c      	ldr	r3, [sp, #48]	; 0x30
10004a40:	9007      	str	r0, [sp, #28]
10004a42:	910a      	str	r1, [sp, #40]	; 0x28
10004a44:	2b00      	cmp	r3, #0
10004a46:	d117      	bne.n	10004a78 <_strtod_r+0xa08>
10004a48:	2380      	movs	r3, #128	; 0x80
10004a4a:	061b      	lsls	r3, r3, #24
10004a4c:	18cb      	adds	r3, r1, r3
10004a4e:	9014      	str	r0, [sp, #80]	; 0x50
10004a50:	9315      	str	r3, [sp, #84]	; 0x54
10004a52:	e015      	b.n	10004a80 <_strtod_r+0xa10>
10004a54:	fffffc03 	.word	0xfffffc03
10004a58:	7ff00000 	.word	0x7ff00000
10004a5c:	fffffbe3 	.word	0xfffffbe3
10004a60:	000fffff 	.word	0x000fffff
10004a64:	7fefffff 	.word	0x7fefffff
10004a68:	fff00000 	.word	0xfff00000
10004a6c:	3ff00000 	.word	0x3ff00000
10004a70:	bff00000 	.word	0xbff00000
10004a74:	3fe00000 	.word	0x3fe00000
10004a78:	9a07      	ldr	r2, [sp, #28]
10004a7a:	9b0a      	ldr	r3, [sp, #40]	; 0x28
10004a7c:	9214      	str	r2, [sp, #80]	; 0x50
10004a7e:	9315      	str	r3, [sp, #84]	; 0x54
10004a80:	9c14      	ldr	r4, [sp, #80]	; 0x50
10004a82:	9d15      	ldr	r5, [sp, #84]	; 0x54
10004a84:	4b7a      	ldr	r3, [pc, #488]	; (10004c70 <_strtod_r+0xc00>)
10004a86:	403b      	ands	r3, r7
10004a88:	9312      	str	r3, [sp, #72]	; 0x48
10004a8a:	9a12      	ldr	r2, [sp, #72]	; 0x48
10004a8c:	4b79      	ldr	r3, [pc, #484]	; (10004c74 <_strtod_r+0xc04>)
10004a8e:	429a      	cmp	r2, r3
10004a90:	d12b      	bne.n	10004aea <_strtod_r+0xa7a>
10004a92:	9a0e      	ldr	r2, [sp, #56]	; 0x38
10004a94:	9b0f      	ldr	r3, [sp, #60]	; 0x3c
10004a96:	9210      	str	r2, [sp, #64]	; 0x40
10004a98:	9311      	str	r3, [sp, #68]	; 0x44
10004a9a:	4b77      	ldr	r3, [pc, #476]	; (10004c78 <_strtod_r+0xc08>)
10004a9c:	1c30      	adds	r0, r6, #0
10004a9e:	18ff      	adds	r7, r7, r3
10004aa0:	1c39      	adds	r1, r7, #0
10004aa2:	f001 fe1f 	bl	100066e4 <__ulp>
10004aa6:	1c02      	adds	r2, r0, #0
10004aa8:	1c0b      	adds	r3, r1, #0
10004aaa:	1c20      	adds	r0, r4, #0
10004aac:	1c29      	adds	r1, r5, #0
10004aae:	f003 f975 	bl	10007d9c <__aeabi_dmul>
10004ab2:	1c02      	adds	r2, r0, #0
10004ab4:	1c0b      	adds	r3, r1, #0
10004ab6:	1c30      	adds	r0, r6, #0
10004ab8:	1c39      	adds	r1, r7, #0
10004aba:	f002 fa09 	bl	10006ed0 <__aeabi_dadd>
10004abe:	4b6c      	ldr	r3, [pc, #432]	; (10004c70 <_strtod_r+0xc00>)
10004ac0:	4a6e      	ldr	r2, [pc, #440]	; (10004c7c <_strtod_r+0xc0c>)
10004ac2:	1c06      	adds	r6, r0, #0
10004ac4:	400b      	ands	r3, r1
10004ac6:	4293      	cmp	r3, r2
10004ac8:	d90b      	bls.n	10004ae2 <_strtod_r+0xa72>
10004aca:	4b6d      	ldr	r3, [pc, #436]	; (10004c80 <_strtod_r+0xc10>)
10004acc:	9a11      	ldr	r2, [sp, #68]	; 0x44
10004ace:	429a      	cmp	r2, r3
10004ad0:	d103      	bne.n	10004ada <_strtod_r+0xa6a>
10004ad2:	9b10      	ldr	r3, [sp, #64]	; 0x40
10004ad4:	3301      	adds	r3, #1
10004ad6:	d100      	bne.n	10004ada <_strtod_r+0xa6a>
10004ad8:	e52e      	b.n	10004538 <_strtod_r+0x4c8>
10004ada:	2601      	movs	r6, #1
10004adc:	4f68      	ldr	r7, [pc, #416]	; (10004c80 <_strtod_r+0xc10>)
10004ade:	4276      	negs	r6, r6
10004ae0:	e078      	b.n	10004bd4 <_strtod_r+0xb64>
10004ae2:	23d4      	movs	r3, #212	; 0xd4
10004ae4:	049b      	lsls	r3, r3, #18
10004ae6:	18cf      	adds	r7, r1, r3
10004ae8:	e040      	b.n	10004b6c <_strtod_r+0xafc>
10004aea:	9b06      	ldr	r3, [sp, #24]
10004aec:	2b00      	cmp	r3, #0
10004aee:	d02b      	beq.n	10004b48 <_strtod_r+0xad8>
10004af0:	23d4      	movs	r3, #212	; 0xd4
10004af2:	9a12      	ldr	r2, [sp, #72]	; 0x48
10004af4:	04db      	lsls	r3, r3, #19
10004af6:	429a      	cmp	r2, r3
10004af8:	d826      	bhi.n	10004b48 <_strtod_r+0xad8>
10004afa:	9807      	ldr	r0, [sp, #28]
10004afc:	990a      	ldr	r1, [sp, #40]	; 0x28
10004afe:	4a61      	ldr	r2, [pc, #388]	; (10004c84 <_strtod_r+0xc14>)
10004b00:	4b61      	ldr	r3, [pc, #388]	; (10004c88 <_strtod_r+0xc18>)
10004b02:	f002 f9a9 	bl	10006e58 <__aeabi_dcmple>
10004b06:	2800      	cmp	r0, #0
10004b08:	d019      	beq.n	10004b3e <_strtod_r+0xace>
10004b0a:	9807      	ldr	r0, [sp, #28]
10004b0c:	990a      	ldr	r1, [sp, #40]	; 0x28
10004b0e:	f002 f9c1 	bl	10006e94 <__aeabi_d2uiz>
10004b12:	2800      	cmp	r0, #0
10004b14:	d100      	bne.n	10004b18 <_strtod_r+0xaa8>
10004b16:	3001      	adds	r0, #1
10004b18:	f003 ffc6 	bl	10008aa8 <__aeabi_ui2d>
10004b1c:	9b0c      	ldr	r3, [sp, #48]	; 0x30
10004b1e:	9007      	str	r0, [sp, #28]
10004b20:	910a      	str	r1, [sp, #40]	; 0x28
10004b22:	2b00      	cmp	r3, #0
10004b24:	d105      	bne.n	10004b32 <_strtod_r+0xac2>
10004b26:	2380      	movs	r3, #128	; 0x80
10004b28:	061b      	lsls	r3, r3, #24
10004b2a:	18cb      	adds	r3, r1, r3
10004b2c:	9016      	str	r0, [sp, #88]	; 0x58
10004b2e:	9317      	str	r3, [sp, #92]	; 0x5c
10004b30:	e003      	b.n	10004b3a <_strtod_r+0xaca>
10004b32:	9a07      	ldr	r2, [sp, #28]
10004b34:	9b0a      	ldr	r3, [sp, #40]	; 0x28
10004b36:	9216      	str	r2, [sp, #88]	; 0x58
10004b38:	9317      	str	r3, [sp, #92]	; 0x5c
10004b3a:	9c16      	ldr	r4, [sp, #88]	; 0x58
10004b3c:	9d17      	ldr	r5, [sp, #92]	; 0x5c
10004b3e:	23d6      	movs	r3, #214	; 0xd6
10004b40:	9a12      	ldr	r2, [sp, #72]	; 0x48
10004b42:	04db      	lsls	r3, r3, #19
10004b44:	18eb      	adds	r3, r5, r3
10004b46:	1a9d      	subs	r5, r3, r2
10004b48:	980e      	ldr	r0, [sp, #56]	; 0x38
10004b4a:	990f      	ldr	r1, [sp, #60]	; 0x3c
10004b4c:	f001 fdca 	bl	100066e4 <__ulp>
10004b50:	1c02      	adds	r2, r0, #0
10004b52:	1c0b      	adds	r3, r1, #0
10004b54:	1c20      	adds	r0, r4, #0
10004b56:	1c29      	adds	r1, r5, #0
10004b58:	f003 f920 	bl	10007d9c <__aeabi_dmul>
10004b5c:	1c02      	adds	r2, r0, #0
10004b5e:	1c0b      	adds	r3, r1, #0
10004b60:	980e      	ldr	r0, [sp, #56]	; 0x38
10004b62:	990f      	ldr	r1, [sp, #60]	; 0x3c
10004b64:	f002 f9b4 	bl	10006ed0 <__aeabi_dadd>
10004b68:	1c06      	adds	r6, r0, #0
10004b6a:	1c0f      	adds	r7, r1, #0
10004b6c:	9b06      	ldr	r3, [sp, #24]
10004b6e:	970e      	str	r7, [sp, #56]	; 0x38
10004b70:	2b00      	cmp	r3, #0
10004b72:	d12f      	bne.n	10004bd4 <_strtod_r+0xb64>
10004b74:	4b3e      	ldr	r3, [pc, #248]	; (10004c70 <_strtod_r+0xc00>)
10004b76:	9a12      	ldr	r2, [sp, #72]	; 0x48
10004b78:	403b      	ands	r3, r7
10004b7a:	429a      	cmp	r2, r3
10004b7c:	d12a      	bne.n	10004bd4 <_strtod_r+0xb64>
10004b7e:	990a      	ldr	r1, [sp, #40]	; 0x28
10004b80:	9807      	ldr	r0, [sp, #28]
10004b82:	f003 ff1f 	bl	100089c4 <__aeabi_d2iz>
10004b86:	f003 ff53 	bl	10008a30 <__aeabi_i2d>
10004b8a:	1c0b      	adds	r3, r1, #0
10004b8c:	1c02      	adds	r2, r0, #0
10004b8e:	990a      	ldr	r1, [sp, #40]	; 0x28
10004b90:	9807      	ldr	r0, [sp, #28]
10004b92:	f003 fb9d 	bl	100082d0 <__aeabi_dsub>
10004b96:	9b0c      	ldr	r3, [sp, #48]	; 0x30
10004b98:	1c04      	adds	r4, r0, #0
10004b9a:	1c0d      	adds	r5, r1, #0
10004b9c:	2b00      	cmp	r3, #0
10004b9e:	d104      	bne.n	10004baa <_strtod_r+0xb3a>
10004ba0:	2e00      	cmp	r6, #0
10004ba2:	d102      	bne.n	10004baa <_strtod_r+0xb3a>
10004ba4:	9b0e      	ldr	r3, [sp, #56]	; 0x38
10004ba6:	031b      	lsls	r3, r3, #12
10004ba8:	d00e      	beq.n	10004bc8 <_strtod_r+0xb58>
10004baa:	1c20      	adds	r0, r4, #0
10004bac:	1c29      	adds	r1, r5, #0
10004bae:	4a37      	ldr	r2, [pc, #220]	; (10004c8c <_strtod_r+0xc1c>)
10004bb0:	4b37      	ldr	r3, [pc, #220]	; (10004c90 <_strtod_r+0xc20>)
10004bb2:	f002 f947 	bl	10006e44 <__aeabi_dcmplt>
10004bb6:	2800      	cmp	r0, #0
10004bb8:	d132      	bne.n	10004c20 <_strtod_r+0xbb0>
10004bba:	1c20      	adds	r0, r4, #0
10004bbc:	1c29      	adds	r1, r5, #0
10004bbe:	4a35      	ldr	r2, [pc, #212]	; (10004c94 <_strtod_r+0xc24>)
10004bc0:	4b35      	ldr	r3, [pc, #212]	; (10004c98 <_strtod_r+0xc28>)
10004bc2:	f002 f953 	bl	10006e6c <__aeabi_dcmpgt>
10004bc6:	e003      	b.n	10004bd0 <_strtod_r+0xb60>
10004bc8:	4a30      	ldr	r2, [pc, #192]	; (10004c8c <_strtod_r+0xc1c>)
10004bca:	4b34      	ldr	r3, [pc, #208]	; (10004c9c <_strtod_r+0xc2c>)
10004bcc:	f002 f93a 	bl	10006e44 <__aeabi_dcmplt>
10004bd0:	2800      	cmp	r0, #0
10004bd2:	d125      	bne.n	10004c20 <_strtod_r+0xbb0>
10004bd4:	9803      	ldr	r0, [sp, #12]
10004bd6:	991e      	ldr	r1, [sp, #120]	; 0x78
10004bd8:	f001 fae5 	bl	100061a6 <_Bfree>
10004bdc:	9803      	ldr	r0, [sp, #12]
10004bde:	9908      	ldr	r1, [sp, #32]
10004be0:	f001 fae1 	bl	100061a6 <_Bfree>
10004be4:	9803      	ldr	r0, [sp, #12]
10004be6:	9905      	ldr	r1, [sp, #20]
10004be8:	f001 fadd 	bl	100061a6 <_Bfree>
10004bec:	9803      	ldr	r0, [sp, #12]
10004bee:	9904      	ldr	r1, [sp, #16]
10004bf0:	f001 fad9 	bl	100061a6 <_Bfree>
10004bf4:	e55f      	b.n	100046b6 <_strtod_r+0x646>
10004bf6:	9b06      	ldr	r3, [sp, #24]
10004bf8:	2b00      	cmp	r3, #0
10004bfa:	d011      	beq.n	10004c20 <_strtod_r+0xbb0>
10004bfc:	4b28      	ldr	r3, [pc, #160]	; (10004ca0 <_strtod_r+0xc30>)
10004bfe:	1c30      	adds	r0, r6, #0
10004c00:	9311      	str	r3, [sp, #68]	; 0x44
10004c02:	2300      	movs	r3, #0
10004c04:	9310      	str	r3, [sp, #64]	; 0x40
10004c06:	1c39      	adds	r1, r7, #0
10004c08:	9a10      	ldr	r2, [sp, #64]	; 0x40
10004c0a:	9b11      	ldr	r3, [sp, #68]	; 0x44
10004c0c:	f003 f8c6 	bl	10007d9c <__aeabi_dmul>
10004c10:	1c06      	adds	r6, r0, #0
10004c12:	1e0f      	subs	r7, r1, #0
10004c14:	d104      	bne.n	10004c20 <_strtod_r+0xbb0>
10004c16:	2800      	cmp	r0, #0
10004c18:	d102      	bne.n	10004c20 <_strtod_r+0xbb0>
10004c1a:	2322      	movs	r3, #34	; 0x22
10004c1c:	9a03      	ldr	r2, [sp, #12]
10004c1e:	6013      	str	r3, [r2, #0]
10004c20:	9803      	ldr	r0, [sp, #12]
10004c22:	991e      	ldr	r1, [sp, #120]	; 0x78
10004c24:	f001 fabf 	bl	100061a6 <_Bfree>
10004c28:	9803      	ldr	r0, [sp, #12]
10004c2a:	9908      	ldr	r1, [sp, #32]
10004c2c:	f001 fabb 	bl	100061a6 <_Bfree>
10004c30:	9803      	ldr	r0, [sp, #12]
10004c32:	9905      	ldr	r1, [sp, #20]
10004c34:	f001 fab7 	bl	100061a6 <_Bfree>
10004c38:	9803      	ldr	r0, [sp, #12]
10004c3a:	990b      	ldr	r1, [sp, #44]	; 0x2c
10004c3c:	f001 fab3 	bl	100061a6 <_Bfree>
10004c40:	9803      	ldr	r0, [sp, #12]
10004c42:	9904      	ldr	r1, [sp, #16]
10004c44:	f001 faaf 	bl	100061a6 <_Bfree>
10004c48:	9b19      	ldr	r3, [sp, #100]	; 0x64
10004c4a:	2b00      	cmp	r3, #0
10004c4c:	d002      	beq.n	10004c54 <_strtod_r+0xbe4>
10004c4e:	9b19      	ldr	r3, [sp, #100]	; 0x64
10004c50:	9a1d      	ldr	r2, [sp, #116]	; 0x74
10004c52:	601a      	str	r2, [r3, #0]
10004c54:	9b0d      	ldr	r3, [sp, #52]	; 0x34
10004c56:	2b00      	cmp	r3, #0
10004c58:	d004      	beq.n	10004c64 <_strtod_r+0xbf4>
10004c5a:	2380      	movs	r3, #128	; 0x80
10004c5c:	061b      	lsls	r3, r3, #24
10004c5e:	1c32      	adds	r2, r6, #0
10004c60:	18fb      	adds	r3, r7, r3
10004c62:	e001      	b.n	10004c68 <_strtod_r+0xbf8>
10004c64:	1c32      	adds	r2, r6, #0
10004c66:	1c3b      	adds	r3, r7, #0
10004c68:	1c10      	adds	r0, r2, #0
10004c6a:	1c19      	adds	r1, r3, #0
10004c6c:	b023      	add	sp, #140	; 0x8c
10004c6e:	bdf0      	pop	{r4, r5, r6, r7, pc}
10004c70:	7ff00000 	.word	0x7ff00000
10004c74:	7fe00000 	.word	0x7fe00000
10004c78:	fcb00000 	.word	0xfcb00000
10004c7c:	7c9fffff 	.word	0x7c9fffff
10004c80:	7fefffff 	.word	0x7fefffff
10004c84:	ffc00000 	.word	0xffc00000
10004c88:	41dfffff 	.word	0x41dfffff
10004c8c:	94a03595 	.word	0x94a03595
10004c90:	3fdfffff 	.word	0x3fdfffff
10004c94:	35afe535 	.word	0x35afe535
10004c98:	3fe00000 	.word	0x3fe00000
10004c9c:	3fcfffff 	.word	0x3fcfffff
10004ca0:	39500000 	.word	0x39500000

10004ca4 <_strtol_r>:
10004ca4:	b5f0      	push	{r4, r5, r6, r7, lr}
10004ca6:	1c1e      	adds	r6, r3, #0
10004ca8:	4b44      	ldr	r3, [pc, #272]	; (10004dbc <_strtol_r+0x118>)
10004caa:	b087      	sub	sp, #28
10004cac:	681b      	ldr	r3, [r3, #0]
10004cae:	9005      	str	r0, [sp, #20]
10004cb0:	9302      	str	r3, [sp, #8]
10004cb2:	1c0b      	adds	r3, r1, #0
10004cb4:	9103      	str	r1, [sp, #12]
10004cb6:	9201      	str	r2, [sp, #4]
10004cb8:	781c      	ldrb	r4, [r3, #0]
10004cba:	9a02      	ldr	r2, [sp, #8]
10004cbc:	1c5d      	adds	r5, r3, #1
10004cbe:	1912      	adds	r2, r2, r4
10004cc0:	7850      	ldrb	r0, [r2, #1]
10004cc2:	2208      	movs	r2, #8
10004cc4:	4010      	ands	r0, r2
10004cc6:	d001      	beq.n	10004ccc <_strtol_r+0x28>
10004cc8:	1c2b      	adds	r3, r5, #0
10004cca:	e7f5      	b.n	10004cb8 <_strtol_r+0x14>
10004ccc:	2c2d      	cmp	r4, #45	; 0x2d
10004cce:	d104      	bne.n	10004cda <_strtol_r+0x36>
10004cd0:	1c9d      	adds	r5, r3, #2
10004cd2:	785c      	ldrb	r4, [r3, #1]
10004cd4:	2301      	movs	r3, #1
10004cd6:	9300      	str	r3, [sp, #0]
10004cd8:	e004      	b.n	10004ce4 <_strtol_r+0x40>
10004cda:	9000      	str	r0, [sp, #0]
10004cdc:	2c2b      	cmp	r4, #43	; 0x2b
10004cde:	d101      	bne.n	10004ce4 <_strtol_r+0x40>
10004ce0:	785c      	ldrb	r4, [r3, #1]
10004ce2:	1c9d      	adds	r5, r3, #2
10004ce4:	2e00      	cmp	r6, #0
10004ce6:	d002      	beq.n	10004cee <_strtol_r+0x4a>
10004ce8:	2e10      	cmp	r6, #16
10004cea:	d10a      	bne.n	10004d02 <_strtol_r+0x5e>
10004cec:	e060      	b.n	10004db0 <_strtol_r+0x10c>
10004cee:	2c30      	cmp	r4, #48	; 0x30
10004cf0:	d15c      	bne.n	10004dac <_strtol_r+0x108>
10004cf2:	2220      	movs	r2, #32
10004cf4:	782b      	ldrb	r3, [r5, #0]
10004cf6:	4393      	bics	r3, r2
10004cf8:	2b58      	cmp	r3, #88	; 0x58
10004cfa:	d152      	bne.n	10004da2 <_strtol_r+0xfe>
10004cfc:	2610      	movs	r6, #16
10004cfe:	786c      	ldrb	r4, [r5, #1]
10004d00:	3502      	adds	r5, #2
10004d02:	9f00      	ldr	r7, [sp, #0]
10004d04:	1c31      	adds	r1, r6, #0
10004d06:	1e7b      	subs	r3, r7, #1
10004d08:	419f      	sbcs	r7, r3
10004d0a:	4b2d      	ldr	r3, [pc, #180]	; (10004dc0 <_strtol_r+0x11c>)
10004d0c:	18ff      	adds	r7, r7, r3
10004d0e:	1c38      	adds	r0, r7, #0
10004d10:	f7fc fc4a 	bl	100015a8 <__aeabi_uidivmod>
10004d14:	1c38      	adds	r0, r7, #0
10004d16:	9104      	str	r1, [sp, #16]
10004d18:	1c31      	adds	r1, r6, #0
10004d1a:	f7fc fc25 	bl	10001568 <__aeabi_uidiv>
10004d1e:	2200      	movs	r2, #0
10004d20:	1c07      	adds	r7, r0, #0
10004d22:	1c13      	adds	r3, r2, #0
10004d24:	9902      	ldr	r1, [sp, #8]
10004d26:	1909      	adds	r1, r1, r4
10004d28:	7849      	ldrb	r1, [r1, #1]
10004d2a:	0748      	lsls	r0, r1, #29
10004d2c:	d501      	bpl.n	10004d32 <_strtol_r+0x8e>
10004d2e:	3c30      	subs	r4, #48	; 0x30
10004d30:	e007      	b.n	10004d42 <_strtol_r+0x9e>
10004d32:	2003      	movs	r0, #3
10004d34:	4008      	ands	r0, r1
10004d36:	d017      	beq.n	10004d68 <_strtol_r+0xc4>
10004d38:	2137      	movs	r1, #55	; 0x37
10004d3a:	2801      	cmp	r0, #1
10004d3c:	d000      	beq.n	10004d40 <_strtol_r+0x9c>
10004d3e:	3120      	adds	r1, #32
10004d40:	1a64      	subs	r4, r4, r1
10004d42:	42b4      	cmp	r4, r6
10004d44:	da10      	bge.n	10004d68 <_strtol_r+0xc4>
10004d46:	1c51      	adds	r1, r2, #1
10004d48:	d00b      	beq.n	10004d62 <_strtol_r+0xbe>
10004d4a:	42bb      	cmp	r3, r7
10004d4c:	d807      	bhi.n	10004d5e <_strtol_r+0xba>
10004d4e:	d102      	bne.n	10004d56 <_strtol_r+0xb2>
10004d50:	9a04      	ldr	r2, [sp, #16]
10004d52:	4294      	cmp	r4, r2
10004d54:	dc03      	bgt.n	10004d5e <_strtol_r+0xba>
10004d56:	4373      	muls	r3, r6
10004d58:	2201      	movs	r2, #1
10004d5a:	18e3      	adds	r3, r4, r3
10004d5c:	e001      	b.n	10004d62 <_strtol_r+0xbe>
10004d5e:	2201      	movs	r2, #1
10004d60:	4252      	negs	r2, r2
10004d62:	782c      	ldrb	r4, [r5, #0]
10004d64:	3501      	adds	r5, #1
10004d66:	e7dd      	b.n	10004d24 <_strtol_r+0x80>
10004d68:	1c18      	adds	r0, r3, #0
10004d6a:	1c51      	adds	r1, r2, #1
10004d6c:	d10b      	bne.n	10004d86 <_strtol_r+0xe2>
10004d6e:	9800      	ldr	r0, [sp, #0]
10004d70:	9a05      	ldr	r2, [sp, #20]
10004d72:	1e43      	subs	r3, r0, #1
10004d74:	4198      	sbcs	r0, r3
10004d76:	4b12      	ldr	r3, [pc, #72]	; (10004dc0 <_strtol_r+0x11c>)
10004d78:	18c0      	adds	r0, r0, r3
10004d7a:	2322      	movs	r3, #34	; 0x22
10004d7c:	6013      	str	r3, [r2, #0]
10004d7e:	9b01      	ldr	r3, [sp, #4]
10004d80:	2b00      	cmp	r3, #0
10004d82:	d10a      	bne.n	10004d9a <_strtol_r+0xf6>
10004d84:	e017      	b.n	10004db6 <_strtol_r+0x112>
10004d86:	9900      	ldr	r1, [sp, #0]
10004d88:	2900      	cmp	r1, #0
10004d8a:	d000      	beq.n	10004d8e <_strtol_r+0xea>
10004d8c:	4258      	negs	r0, r3
10004d8e:	9b01      	ldr	r3, [sp, #4]
10004d90:	2b00      	cmp	r3, #0
10004d92:	d010      	beq.n	10004db6 <_strtol_r+0x112>
10004d94:	9b03      	ldr	r3, [sp, #12]
10004d96:	2a00      	cmp	r2, #0
10004d98:	d000      	beq.n	10004d9c <_strtol_r+0xf8>
10004d9a:	1e6b      	subs	r3, r5, #1
10004d9c:	9a01      	ldr	r2, [sp, #4]
10004d9e:	6013      	str	r3, [r2, #0]
10004da0:	e009      	b.n	10004db6 <_strtol_r+0x112>
10004da2:	2430      	movs	r4, #48	; 0x30
10004da4:	2e00      	cmp	r6, #0
10004da6:	d1ac      	bne.n	10004d02 <_strtol_r+0x5e>
10004da8:	2608      	movs	r6, #8
10004daa:	e7aa      	b.n	10004d02 <_strtol_r+0x5e>
10004dac:	260a      	movs	r6, #10
10004dae:	e7a8      	b.n	10004d02 <_strtol_r+0x5e>
10004db0:	2c30      	cmp	r4, #48	; 0x30
10004db2:	d1a6      	bne.n	10004d02 <_strtol_r+0x5e>
10004db4:	e79d      	b.n	10004cf2 <_strtol_r+0x4e>
10004db6:	b007      	add	sp, #28
10004db8:	bdf0      	pop	{r4, r5, r6, r7, pc}
10004dba:	46c0      	nop			; (mov r8, r8)
10004dbc:	20000b10 	.word	0x20000b10
10004dc0:	7fffffff 	.word	0x7fffffff

10004dc4 <quorem>:
10004dc4:	b5f0      	push	{r4, r5, r6, r7, lr}
10004dc6:	6903      	ldr	r3, [r0, #16]
10004dc8:	690c      	ldr	r4, [r1, #16]
10004dca:	b089      	sub	sp, #36	; 0x24
10004dcc:	2600      	movs	r6, #0
10004dce:	42a3      	cmp	r3, r4
10004dd0:	db7c      	blt.n	10004ecc <quorem+0x108>
10004dd2:	1c0b      	adds	r3, r1, #0
10004dd4:	3c01      	subs	r4, #1
10004dd6:	3314      	adds	r3, #20
10004dd8:	00a5      	lsls	r5, r4, #2
10004dda:	9303      	str	r3, [sp, #12]
10004ddc:	195b      	adds	r3, r3, r5
10004dde:	9304      	str	r3, [sp, #16]
10004de0:	1c03      	adds	r3, r0, #0
10004de2:	3314      	adds	r3, #20
10004de4:	9301      	str	r3, [sp, #4]
10004de6:	195d      	adds	r5, r3, r5
10004de8:	9b04      	ldr	r3, [sp, #16]
10004dea:	9107      	str	r1, [sp, #28]
10004dec:	681b      	ldr	r3, [r3, #0]
10004dee:	9002      	str	r0, [sp, #8]
10004df0:	1c59      	adds	r1, r3, #1
10004df2:	6828      	ldr	r0, [r5, #0]
10004df4:	9305      	str	r3, [sp, #20]
10004df6:	f7fc fbb7 	bl	10001568 <__aeabi_uidiv>
10004dfa:	1e07      	subs	r7, r0, #0
10004dfc:	42b7      	cmp	r7, r6
10004dfe:	d035      	beq.n	10004e6c <quorem+0xa8>
10004e00:	9b03      	ldr	r3, [sp, #12]
10004e02:	9801      	ldr	r0, [sp, #4]
10004e04:	469c      	mov	ip, r3
10004e06:	9605      	str	r6, [sp, #20]
10004e08:	4663      	mov	r3, ip
10004e0a:	cb04      	ldmia	r3!, {r2}
10004e0c:	b291      	uxth	r1, r2
10004e0e:	4379      	muls	r1, r7
10004e10:	0c12      	lsrs	r2, r2, #16
10004e12:	437a      	muls	r2, r7
10004e14:	1871      	adds	r1, r6, r1
10004e16:	0c0e      	lsrs	r6, r1, #16
10004e18:	469c      	mov	ip, r3
10004e1a:	18b3      	adds	r3, r6, r2
10004e1c:	9306      	str	r3, [sp, #24]
10004e1e:	8802      	ldrh	r2, [r0, #0]
10004e20:	0c1e      	lsrs	r6, r3, #16
10004e22:	9b05      	ldr	r3, [sp, #20]
10004e24:	b289      	uxth	r1, r1
10004e26:	18d2      	adds	r2, r2, r3
10004e28:	6803      	ldr	r3, [r0, #0]
10004e2a:	1a52      	subs	r2, r2, r1
10004e2c:	0c19      	lsrs	r1, r3, #16
10004e2e:	466b      	mov	r3, sp
10004e30:	8b1b      	ldrh	r3, [r3, #24]
10004e32:	1acb      	subs	r3, r1, r3
10004e34:	1411      	asrs	r1, r2, #16
10004e36:	185b      	adds	r3, r3, r1
10004e38:	1419      	asrs	r1, r3, #16
10004e3a:	b292      	uxth	r2, r2
10004e3c:	041b      	lsls	r3, r3, #16
10004e3e:	431a      	orrs	r2, r3
10004e40:	9b04      	ldr	r3, [sp, #16]
10004e42:	9105      	str	r1, [sp, #20]
10004e44:	c004      	stmia	r0!, {r2}
10004e46:	4563      	cmp	r3, ip
10004e48:	d2de      	bcs.n	10004e08 <quorem+0x44>
10004e4a:	682b      	ldr	r3, [r5, #0]
10004e4c:	2b00      	cmp	r3, #0
10004e4e:	d10d      	bne.n	10004e6c <quorem+0xa8>
10004e50:	1c23      	adds	r3, r4, #0
10004e52:	9a01      	ldr	r2, [sp, #4]
10004e54:	3d04      	subs	r5, #4
10004e56:	4295      	cmp	r5, r2
10004e58:	d803      	bhi.n	10004e62 <quorem+0x9e>
10004e5a:	9a02      	ldr	r2, [sp, #8]
10004e5c:	1c1c      	adds	r4, r3, #0
10004e5e:	6113      	str	r3, [r2, #16]
10004e60:	e004      	b.n	10004e6c <quorem+0xa8>
10004e62:	682a      	ldr	r2, [r5, #0]
10004e64:	2a00      	cmp	r2, #0
10004e66:	d1f8      	bne.n	10004e5a <quorem+0x96>
10004e68:	3b01      	subs	r3, #1
10004e6a:	e7f2      	b.n	10004e52 <quorem+0x8e>
10004e6c:	9802      	ldr	r0, [sp, #8]
10004e6e:	9907      	ldr	r1, [sp, #28]
10004e70:	f001 fbb2 	bl	100065d8 <__mcmp>
10004e74:	2800      	cmp	r0, #0
10004e76:	db28      	blt.n	10004eca <quorem+0x106>
10004e78:	2000      	movs	r0, #0
10004e7a:	9901      	ldr	r1, [sp, #4]
10004e7c:	9a03      	ldr	r2, [sp, #12]
10004e7e:	3701      	adds	r7, #1
10004e80:	ca20      	ldmia	r2!, {r5}
10004e82:	880b      	ldrh	r3, [r1, #0]
10004e84:	1818      	adds	r0, r3, r0
10004e86:	b2ab      	uxth	r3, r5
10004e88:	1ac3      	subs	r3, r0, r3
10004e8a:	6808      	ldr	r0, [r1, #0]
10004e8c:	0c2d      	lsrs	r5, r5, #16
10004e8e:	0c00      	lsrs	r0, r0, #16
10004e90:	1b45      	subs	r5, r0, r5
10004e92:	141e      	asrs	r6, r3, #16
10004e94:	19ad      	adds	r5, r5, r6
10004e96:	1428      	asrs	r0, r5, #16
10004e98:	b29b      	uxth	r3, r3
10004e9a:	042d      	lsls	r5, r5, #16
10004e9c:	432b      	orrs	r3, r5
10004e9e:	c108      	stmia	r1!, {r3}
10004ea0:	9b04      	ldr	r3, [sp, #16]
10004ea2:	4293      	cmp	r3, r2
10004ea4:	d2ec      	bcs.n	10004e80 <quorem+0xbc>
10004ea6:	9a01      	ldr	r2, [sp, #4]
10004ea8:	00a3      	lsls	r3, r4, #2
10004eaa:	18d3      	adds	r3, r2, r3
10004eac:	681a      	ldr	r2, [r3, #0]
10004eae:	2a00      	cmp	r2, #0
10004eb0:	d10b      	bne.n	10004eca <quorem+0x106>
10004eb2:	9a01      	ldr	r2, [sp, #4]
10004eb4:	3b04      	subs	r3, #4
10004eb6:	4293      	cmp	r3, r2
10004eb8:	d802      	bhi.n	10004ec0 <quorem+0xfc>
10004eba:	9b02      	ldr	r3, [sp, #8]
10004ebc:	611c      	str	r4, [r3, #16]
10004ebe:	e004      	b.n	10004eca <quorem+0x106>
10004ec0:	681a      	ldr	r2, [r3, #0]
10004ec2:	2a00      	cmp	r2, #0
10004ec4:	d1f9      	bne.n	10004eba <quorem+0xf6>
10004ec6:	3c01      	subs	r4, #1
10004ec8:	e7f3      	b.n	10004eb2 <quorem+0xee>
10004eca:	1c3e      	adds	r6, r7, #0
10004ecc:	1c30      	adds	r0, r6, #0
10004ece:	b009      	add	sp, #36	; 0x24
10004ed0:	bdf0      	pop	{r4, r5, r6, r7, pc}
	...

10004ed4 <_dtoa_r>:
10004ed4:	b5f0      	push	{r4, r5, r6, r7, lr}
10004ed6:	1c16      	adds	r6, r2, #0
10004ed8:	1c1f      	adds	r7, r3, #0
10004eda:	6a44      	ldr	r4, [r0, #36]	; 0x24
10004edc:	b09b      	sub	sp, #108	; 0x6c
10004ede:	9008      	str	r0, [sp, #32]
10004ee0:	9d23      	ldr	r5, [sp, #140]	; 0x8c
10004ee2:	9606      	str	r6, [sp, #24]
10004ee4:	9707      	str	r7, [sp, #28]
10004ee6:	2c00      	cmp	r4, #0
10004ee8:	d108      	bne.n	10004efc <_dtoa_r+0x28>
10004eea:	2010      	movs	r0, #16
10004eec:	f001 f90e 	bl	1000610c <malloc>
10004ef0:	9b08      	ldr	r3, [sp, #32]
10004ef2:	6258      	str	r0, [r3, #36]	; 0x24
10004ef4:	6044      	str	r4, [r0, #4]
10004ef6:	6084      	str	r4, [r0, #8]
10004ef8:	6004      	str	r4, [r0, #0]
10004efa:	60c4      	str	r4, [r0, #12]
10004efc:	9b08      	ldr	r3, [sp, #32]
10004efe:	6a5b      	ldr	r3, [r3, #36]	; 0x24
10004f00:	6819      	ldr	r1, [r3, #0]
10004f02:	2900      	cmp	r1, #0
10004f04:	d00b      	beq.n	10004f1e <_dtoa_r+0x4a>
10004f06:	685a      	ldr	r2, [r3, #4]
10004f08:	2301      	movs	r3, #1
10004f0a:	4093      	lsls	r3, r2
10004f0c:	604a      	str	r2, [r1, #4]
10004f0e:	608b      	str	r3, [r1, #8]
10004f10:	9808      	ldr	r0, [sp, #32]
10004f12:	f001 f948 	bl	100061a6 <_Bfree>
10004f16:	2200      	movs	r2, #0
10004f18:	9b08      	ldr	r3, [sp, #32]
10004f1a:	6a5b      	ldr	r3, [r3, #36]	; 0x24
10004f1c:	601a      	str	r2, [r3, #0]
10004f1e:	9b07      	ldr	r3, [sp, #28]
10004f20:	2b00      	cmp	r3, #0
10004f22:	da05      	bge.n	10004f30 <_dtoa_r+0x5c>
10004f24:	2301      	movs	r3, #1
10004f26:	602b      	str	r3, [r5, #0]
10004f28:	007b      	lsls	r3, r7, #1
10004f2a:	085b      	lsrs	r3, r3, #1
10004f2c:	9307      	str	r3, [sp, #28]
10004f2e:	e001      	b.n	10004f34 <_dtoa_r+0x60>
10004f30:	2300      	movs	r3, #0
10004f32:	602b      	str	r3, [r5, #0]
10004f34:	9c07      	ldr	r4, [sp, #28]
10004f36:	4bc6      	ldr	r3, [pc, #792]	; (10005250 <_dtoa_r+0x37c>)
10004f38:	1c22      	adds	r2, r4, #0
10004f3a:	9317      	str	r3, [sp, #92]	; 0x5c
10004f3c:	401a      	ands	r2, r3
10004f3e:	429a      	cmp	r2, r3
10004f40:	d119      	bne.n	10004f76 <_dtoa_r+0xa2>
10004f42:	4bc4      	ldr	r3, [pc, #784]	; (10005254 <_dtoa_r+0x380>)
10004f44:	9a22      	ldr	r2, [sp, #136]	; 0x88
10004f46:	6013      	str	r3, [r2, #0]
10004f48:	9a06      	ldr	r2, [sp, #24]
10004f4a:	4bc3      	ldr	r3, [pc, #780]	; (10005258 <_dtoa_r+0x384>)
10004f4c:	2a00      	cmp	r2, #0
10004f4e:	d102      	bne.n	10004f56 <_dtoa_r+0x82>
10004f50:	0324      	lsls	r4, r4, #12
10004f52:	d100      	bne.n	10004f56 <_dtoa_r+0x82>
10004f54:	4bc1      	ldr	r3, [pc, #772]	; (1000525c <_dtoa_r+0x388>)
10004f56:	9a24      	ldr	r2, [sp, #144]	; 0x90
10004f58:	1c18      	adds	r0, r3, #0
10004f5a:	2a00      	cmp	r2, #0
10004f5c:	d101      	bne.n	10004f62 <_dtoa_r+0x8e>
10004f5e:	f000 fdb6 	bl	10005ace <_dtoa_r+0xbfa>
10004f62:	78d9      	ldrb	r1, [r3, #3]
10004f64:	1cda      	adds	r2, r3, #3
10004f66:	2900      	cmp	r1, #0
10004f68:	d000      	beq.n	10004f6c <_dtoa_r+0x98>
10004f6a:	3205      	adds	r2, #5
10004f6c:	9924      	ldr	r1, [sp, #144]	; 0x90
10004f6e:	1c18      	adds	r0, r3, #0
10004f70:	600a      	str	r2, [r1, #0]
10004f72:	f000 fdac 	bl	10005ace <_dtoa_r+0xbfa>
10004f76:	9e06      	ldr	r6, [sp, #24]
10004f78:	9f07      	ldr	r7, [sp, #28]
10004f7a:	2200      	movs	r2, #0
10004f7c:	1c30      	adds	r0, r6, #0
10004f7e:	1c39      	adds	r1, r7, #0
10004f80:	2300      	movs	r3, #0
10004f82:	f001 ff59 	bl	10006e38 <__aeabi_dcmpeq>
10004f86:	1e05      	subs	r5, r0, #0
10004f88:	d00e      	beq.n	10004fa8 <_dtoa_r+0xd4>
10004f8a:	2301      	movs	r3, #1
10004f8c:	9a22      	ldr	r2, [sp, #136]	; 0x88
10004f8e:	6013      	str	r3, [r2, #0]
10004f90:	4bb3      	ldr	r3, [pc, #716]	; (10005260 <_dtoa_r+0x38c>)
10004f92:	9a24      	ldr	r2, [sp, #144]	; 0x90
10004f94:	1c18      	adds	r0, r3, #0
10004f96:	2a00      	cmp	r2, #0
10004f98:	d101      	bne.n	10004f9e <_dtoa_r+0xca>
10004f9a:	f000 fd98 	bl	10005ace <_dtoa_r+0xbfa>
10004f9e:	4ab1      	ldr	r2, [pc, #708]	; (10005264 <_dtoa_r+0x390>)
10004fa0:	9924      	ldr	r1, [sp, #144]	; 0x90
10004fa2:	600a      	str	r2, [r1, #0]
10004fa4:	f000 fd93 	bl	10005ace <_dtoa_r+0xbfa>
10004fa8:	ab19      	add	r3, sp, #100	; 0x64
10004faa:	9300      	str	r3, [sp, #0]
10004fac:	ab18      	add	r3, sp, #96	; 0x60
10004fae:	9301      	str	r3, [sp, #4]
10004fb0:	9808      	ldr	r0, [sp, #32]
10004fb2:	1c32      	adds	r2, r6, #0
10004fb4:	1c3b      	adds	r3, r7, #0
10004fb6:	f001 fc0b 	bl	100067d0 <__d2b>
10004fba:	0061      	lsls	r1, r4, #1
10004fbc:	900a      	str	r0, [sp, #40]	; 0x28
10004fbe:	0d49      	lsrs	r1, r1, #21
10004fc0:	d009      	beq.n	10004fd6 <_dtoa_r+0x102>
10004fc2:	0338      	lsls	r0, r7, #12
10004fc4:	4ca8      	ldr	r4, [pc, #672]	; (10005268 <_dtoa_r+0x394>)
10004fc6:	0b00      	lsrs	r0, r0, #12
10004fc8:	4304      	orrs	r4, r0
10004fca:	48a8      	ldr	r0, [pc, #672]	; (1000526c <_dtoa_r+0x398>)
10004fcc:	1c32      	adds	r2, r6, #0
10004fce:	1c23      	adds	r3, r4, #0
10004fd0:	180e      	adds	r6, r1, r0
10004fd2:	9516      	str	r5, [sp, #88]	; 0x58
10004fd4:	e01c      	b.n	10005010 <_dtoa_r+0x13c>
10004fd6:	9b18      	ldr	r3, [sp, #96]	; 0x60
10004fd8:	9a19      	ldr	r2, [sp, #100]	; 0x64
10004fda:	189e      	adds	r6, r3, r2
10004fdc:	4ba4      	ldr	r3, [pc, #656]	; (10005270 <_dtoa_r+0x39c>)
10004fde:	429e      	cmp	r6, r3
10004fe0:	db09      	blt.n	10004ff6 <_dtoa_r+0x122>
10004fe2:	4ba4      	ldr	r3, [pc, #656]	; (10005274 <_dtoa_r+0x3a0>)
10004fe4:	18f0      	adds	r0, r6, r3
10004fe6:	9b06      	ldr	r3, [sp, #24]
10004fe8:	40c3      	lsrs	r3, r0
10004fea:	1c18      	adds	r0, r3, #0
10004fec:	4ba2      	ldr	r3, [pc, #648]	; (10005278 <_dtoa_r+0x3a4>)
10004fee:	1b9b      	subs	r3, r3, r6
10004ff0:	409c      	lsls	r4, r3
10004ff2:	4320      	orrs	r0, r4
10004ff4:	e004      	b.n	10005000 <_dtoa_r+0x12c>
10004ff6:	48a1      	ldr	r0, [pc, #644]	; (1000527c <_dtoa_r+0x3a8>)
10004ff8:	9b06      	ldr	r3, [sp, #24]
10004ffa:	1b80      	subs	r0, r0, r6
10004ffc:	4083      	lsls	r3, r0
10004ffe:	1c18      	adds	r0, r3, #0
10005000:	f003 fd52 	bl	10008aa8 <__aeabi_ui2d>
10005004:	4c9e      	ldr	r4, [pc, #632]	; (10005280 <_dtoa_r+0x3ac>)
10005006:	1c02      	adds	r2, r0, #0
10005008:	190b      	adds	r3, r1, r4
1000500a:	2101      	movs	r1, #1
1000500c:	3e01      	subs	r6, #1
1000500e:	9116      	str	r1, [sp, #88]	; 0x58
10005010:	1c10      	adds	r0, r2, #0
10005012:	1c19      	adds	r1, r3, #0
10005014:	2200      	movs	r2, #0
10005016:	4b9b      	ldr	r3, [pc, #620]	; (10005284 <_dtoa_r+0x3b0>)
10005018:	f003 f95a 	bl	100082d0 <__aeabi_dsub>
1000501c:	4a9a      	ldr	r2, [pc, #616]	; (10005288 <_dtoa_r+0x3b4>)
1000501e:	4b9b      	ldr	r3, [pc, #620]	; (1000528c <_dtoa_r+0x3b8>)
10005020:	f002 febc 	bl	10007d9c <__aeabi_dmul>
10005024:	4a9a      	ldr	r2, [pc, #616]	; (10005290 <_dtoa_r+0x3bc>)
10005026:	4b9b      	ldr	r3, [pc, #620]	; (10005294 <_dtoa_r+0x3c0>)
10005028:	f001 ff52 	bl	10006ed0 <__aeabi_dadd>
1000502c:	1c04      	adds	r4, r0, #0
1000502e:	1c30      	adds	r0, r6, #0
10005030:	1c0d      	adds	r5, r1, #0
10005032:	f003 fcfd 	bl	10008a30 <__aeabi_i2d>
10005036:	4a98      	ldr	r2, [pc, #608]	; (10005298 <_dtoa_r+0x3c4>)
10005038:	4b98      	ldr	r3, [pc, #608]	; (1000529c <_dtoa_r+0x3c8>)
1000503a:	f002 feaf 	bl	10007d9c <__aeabi_dmul>
1000503e:	1c02      	adds	r2, r0, #0
10005040:	1c0b      	adds	r3, r1, #0
10005042:	1c20      	adds	r0, r4, #0
10005044:	1c29      	adds	r1, r5, #0
10005046:	f001 ff43 	bl	10006ed0 <__aeabi_dadd>
1000504a:	1c04      	adds	r4, r0, #0
1000504c:	1c0d      	adds	r5, r1, #0
1000504e:	f003 fcb9 	bl	100089c4 <__aeabi_d2iz>
10005052:	1c29      	adds	r1, r5, #0
10005054:	9003      	str	r0, [sp, #12]
10005056:	2200      	movs	r2, #0
10005058:	1c20      	adds	r0, r4, #0
1000505a:	2300      	movs	r3, #0
1000505c:	f001 fef2 	bl	10006e44 <__aeabi_dcmplt>
10005060:	2800      	cmp	r0, #0
10005062:	d00d      	beq.n	10005080 <_dtoa_r+0x1ac>
10005064:	9803      	ldr	r0, [sp, #12]
10005066:	f003 fce3 	bl	10008a30 <__aeabi_i2d>
1000506a:	1c02      	adds	r2, r0, #0
1000506c:	1c0b      	adds	r3, r1, #0
1000506e:	1c20      	adds	r0, r4, #0
10005070:	1c29      	adds	r1, r5, #0
10005072:	f001 fee1 	bl	10006e38 <__aeabi_dcmpeq>
10005076:	4243      	negs	r3, r0
10005078:	4143      	adcs	r3, r0
1000507a:	9a03      	ldr	r2, [sp, #12]
1000507c:	1ad3      	subs	r3, r2, r3
1000507e:	9303      	str	r3, [sp, #12]
10005080:	2301      	movs	r3, #1
10005082:	9313      	str	r3, [sp, #76]	; 0x4c
10005084:	9b03      	ldr	r3, [sp, #12]
10005086:	2b16      	cmp	r3, #22
10005088:	d811      	bhi.n	100050ae <_dtoa_r+0x1da>
1000508a:	4a85      	ldr	r2, [pc, #532]	; (100052a0 <_dtoa_r+0x3cc>)
1000508c:	00db      	lsls	r3, r3, #3
1000508e:	18d3      	adds	r3, r2, r3
10005090:	6818      	ldr	r0, [r3, #0]
10005092:	6859      	ldr	r1, [r3, #4]
10005094:	9a06      	ldr	r2, [sp, #24]
10005096:	9b07      	ldr	r3, [sp, #28]
10005098:	f001 fee8 	bl	10006e6c <__aeabi_dcmpgt>
1000509c:	2800      	cmp	r0, #0
1000509e:	d005      	beq.n	100050ac <_dtoa_r+0x1d8>
100050a0:	9b03      	ldr	r3, [sp, #12]
100050a2:	3b01      	subs	r3, #1
100050a4:	9303      	str	r3, [sp, #12]
100050a6:	2300      	movs	r3, #0
100050a8:	9313      	str	r3, [sp, #76]	; 0x4c
100050aa:	e000      	b.n	100050ae <_dtoa_r+0x1da>
100050ac:	9013      	str	r0, [sp, #76]	; 0x4c
100050ae:	9b18      	ldr	r3, [sp, #96]	; 0x60
100050b0:	1b9e      	subs	r6, r3, r6
100050b2:	2300      	movs	r3, #0
100050b4:	930d      	str	r3, [sp, #52]	; 0x34
100050b6:	3e01      	subs	r6, #1
100050b8:	960e      	str	r6, [sp, #56]	; 0x38
100050ba:	d504      	bpl.n	100050c6 <_dtoa_r+0x1f2>
100050bc:	9b0e      	ldr	r3, [sp, #56]	; 0x38
100050be:	425b      	negs	r3, r3
100050c0:	930d      	str	r3, [sp, #52]	; 0x34
100050c2:	2300      	movs	r3, #0
100050c4:	930e      	str	r3, [sp, #56]	; 0x38
100050c6:	9b03      	ldr	r3, [sp, #12]
100050c8:	2b00      	cmp	r3, #0
100050ca:	db08      	blt.n	100050de <_dtoa_r+0x20a>
100050cc:	9a03      	ldr	r2, [sp, #12]
100050ce:	9b0e      	ldr	r3, [sp, #56]	; 0x38
100050d0:	4694      	mov	ip, r2
100050d2:	4463      	add	r3, ip
100050d4:	930e      	str	r3, [sp, #56]	; 0x38
100050d6:	2300      	movs	r3, #0
100050d8:	9212      	str	r2, [sp, #72]	; 0x48
100050da:	930f      	str	r3, [sp, #60]	; 0x3c
100050dc:	e007      	b.n	100050ee <_dtoa_r+0x21a>
100050de:	9b0d      	ldr	r3, [sp, #52]	; 0x34
100050e0:	9a03      	ldr	r2, [sp, #12]
100050e2:	1a9b      	subs	r3, r3, r2
100050e4:	930d      	str	r3, [sp, #52]	; 0x34
100050e6:	4253      	negs	r3, r2
100050e8:	930f      	str	r3, [sp, #60]	; 0x3c
100050ea:	2300      	movs	r3, #0
100050ec:	9312      	str	r3, [sp, #72]	; 0x48
100050ee:	9b20      	ldr	r3, [sp, #128]	; 0x80
100050f0:	2501      	movs	r5, #1
100050f2:	2b09      	cmp	r3, #9
100050f4:	d827      	bhi.n	10005146 <_dtoa_r+0x272>
100050f6:	2b05      	cmp	r3, #5
100050f8:	dd02      	ble.n	10005100 <_dtoa_r+0x22c>
100050fa:	2500      	movs	r5, #0
100050fc:	3b04      	subs	r3, #4
100050fe:	9320      	str	r3, [sp, #128]	; 0x80
10005100:	9b20      	ldr	r3, [sp, #128]	; 0x80
10005102:	1e98      	subs	r0, r3, #2
10005104:	2803      	cmp	r0, #3
10005106:	d823      	bhi.n	10005150 <_dtoa_r+0x27c>
10005108:	f7fe f886 	bl	10003218 <__gnu_thumb1_case_uqi>
1000510c:	10040e02 	.word	0x10040e02
10005110:	2300      	movs	r3, #0
10005112:	e000      	b.n	10005116 <_dtoa_r+0x242>
10005114:	2301      	movs	r3, #1
10005116:	9310      	str	r3, [sp, #64]	; 0x40
10005118:	9b21      	ldr	r3, [sp, #132]	; 0x84
1000511a:	2b00      	cmp	r3, #0
1000511c:	dc21      	bgt.n	10005162 <_dtoa_r+0x28e>
1000511e:	2301      	movs	r3, #1
10005120:	930b      	str	r3, [sp, #44]	; 0x2c
10005122:	9309      	str	r3, [sp, #36]	; 0x24
10005124:	1c1a      	adds	r2, r3, #0
10005126:	e01a      	b.n	1000515e <_dtoa_r+0x28a>
10005128:	2300      	movs	r3, #0
1000512a:	e000      	b.n	1000512e <_dtoa_r+0x25a>
1000512c:	2301      	movs	r3, #1
1000512e:	9a03      	ldr	r2, [sp, #12]
10005130:	9310      	str	r3, [sp, #64]	; 0x40
10005132:	4694      	mov	ip, r2
10005134:	9b21      	ldr	r3, [sp, #132]	; 0x84
10005136:	4463      	add	r3, ip
10005138:	930b      	str	r3, [sp, #44]	; 0x2c
1000513a:	3301      	adds	r3, #1
1000513c:	9309      	str	r3, [sp, #36]	; 0x24
1000513e:	2b00      	cmp	r3, #0
10005140:	dc12      	bgt.n	10005168 <_dtoa_r+0x294>
10005142:	2301      	movs	r3, #1
10005144:	e010      	b.n	10005168 <_dtoa_r+0x294>
10005146:	2300      	movs	r3, #0
10005148:	9510      	str	r5, [sp, #64]	; 0x40
1000514a:	9320      	str	r3, [sp, #128]	; 0x80
1000514c:	3b01      	subs	r3, #1
1000514e:	e002      	b.n	10005156 <_dtoa_r+0x282>
10005150:	2301      	movs	r3, #1
10005152:	9310      	str	r3, [sp, #64]	; 0x40
10005154:	3b02      	subs	r3, #2
10005156:	2200      	movs	r2, #0
10005158:	930b      	str	r3, [sp, #44]	; 0x2c
1000515a:	9309      	str	r3, [sp, #36]	; 0x24
1000515c:	3313      	adds	r3, #19
1000515e:	9221      	str	r2, [sp, #132]	; 0x84
10005160:	e002      	b.n	10005168 <_dtoa_r+0x294>
10005162:	9b21      	ldr	r3, [sp, #132]	; 0x84
10005164:	930b      	str	r3, [sp, #44]	; 0x2c
10005166:	9309      	str	r3, [sp, #36]	; 0x24
10005168:	9a08      	ldr	r2, [sp, #32]
1000516a:	6a54      	ldr	r4, [r2, #36]	; 0x24
1000516c:	2200      	movs	r2, #0
1000516e:	6062      	str	r2, [r4, #4]
10005170:	3204      	adds	r2, #4
10005172:	1c11      	adds	r1, r2, #0
10005174:	3114      	adds	r1, #20
10005176:	4299      	cmp	r1, r3
10005178:	d804      	bhi.n	10005184 <_dtoa_r+0x2b0>
1000517a:	6861      	ldr	r1, [r4, #4]
1000517c:	0052      	lsls	r2, r2, #1
1000517e:	3101      	adds	r1, #1
10005180:	6061      	str	r1, [r4, #4]
10005182:	e7f6      	b.n	10005172 <_dtoa_r+0x29e>
10005184:	9808      	ldr	r0, [sp, #32]
10005186:	6861      	ldr	r1, [r4, #4]
10005188:	f000 ffd5 	bl	10006136 <_Balloc>
1000518c:	9b08      	ldr	r3, [sp, #32]
1000518e:	6020      	str	r0, [r4, #0]
10005190:	6a5b      	ldr	r3, [r3, #36]	; 0x24
10005192:	681b      	ldr	r3, [r3, #0]
10005194:	930c      	str	r3, [sp, #48]	; 0x30
10005196:	9b09      	ldr	r3, [sp, #36]	; 0x24
10005198:	2b0e      	cmp	r3, #14
1000519a:	d900      	bls.n	1000519e <_dtoa_r+0x2ca>
1000519c:	e188      	b.n	100054b0 <_dtoa_r+0x5dc>
1000519e:	2d00      	cmp	r5, #0
100051a0:	d100      	bne.n	100051a4 <_dtoa_r+0x2d0>
100051a2:	e185      	b.n	100054b0 <_dtoa_r+0x5dc>
100051a4:	9b06      	ldr	r3, [sp, #24]
100051a6:	9c07      	ldr	r4, [sp, #28]
100051a8:	9314      	str	r3, [sp, #80]	; 0x50
100051aa:	9415      	str	r4, [sp, #84]	; 0x54
100051ac:	9b03      	ldr	r3, [sp, #12]
100051ae:	2b00      	cmp	r3, #0
100051b0:	dd30      	ble.n	10005214 <_dtoa_r+0x340>
100051b2:	220f      	movs	r2, #15
100051b4:	493a      	ldr	r1, [pc, #232]	; (100052a0 <_dtoa_r+0x3cc>)
100051b6:	4013      	ands	r3, r2
100051b8:	00db      	lsls	r3, r3, #3
100051ba:	18cb      	adds	r3, r1, r3
100051bc:	685c      	ldr	r4, [r3, #4]
100051be:	681b      	ldr	r3, [r3, #0]
100051c0:	9304      	str	r3, [sp, #16]
100051c2:	9405      	str	r4, [sp, #20]
100051c4:	9b03      	ldr	r3, [sp, #12]
100051c6:	2702      	movs	r7, #2
100051c8:	111d      	asrs	r5, r3, #4
100051ca:	06eb      	lsls	r3, r5, #27
100051cc:	d50a      	bpl.n	100051e4 <_dtoa_r+0x310>
100051ce:	9814      	ldr	r0, [sp, #80]	; 0x50
100051d0:	9915      	ldr	r1, [sp, #84]	; 0x54
100051d2:	4b34      	ldr	r3, [pc, #208]	; (100052a4 <_dtoa_r+0x3d0>)
100051d4:	4015      	ands	r5, r2
100051d6:	6a1a      	ldr	r2, [r3, #32]
100051d8:	6a5b      	ldr	r3, [r3, #36]	; 0x24
100051da:	f002 f9a1 	bl	10007520 <__aeabi_ddiv>
100051de:	9006      	str	r0, [sp, #24]
100051e0:	9107      	str	r1, [sp, #28]
100051e2:	3701      	adds	r7, #1
100051e4:	4c2f      	ldr	r4, [pc, #188]	; (100052a4 <_dtoa_r+0x3d0>)
100051e6:	2d00      	cmp	r5, #0
100051e8:	d00d      	beq.n	10005206 <_dtoa_r+0x332>
100051ea:	07eb      	lsls	r3, r5, #31
100051ec:	d508      	bpl.n	10005200 <_dtoa_r+0x32c>
100051ee:	9804      	ldr	r0, [sp, #16]
100051f0:	9905      	ldr	r1, [sp, #20]
100051f2:	6822      	ldr	r2, [r4, #0]
100051f4:	6863      	ldr	r3, [r4, #4]
100051f6:	f002 fdd1 	bl	10007d9c <__aeabi_dmul>
100051fa:	9004      	str	r0, [sp, #16]
100051fc:	9105      	str	r1, [sp, #20]
100051fe:	3701      	adds	r7, #1
10005200:	106d      	asrs	r5, r5, #1
10005202:	3408      	adds	r4, #8
10005204:	e7ef      	b.n	100051e6 <_dtoa_r+0x312>
10005206:	9806      	ldr	r0, [sp, #24]
10005208:	9907      	ldr	r1, [sp, #28]
1000520a:	9a04      	ldr	r2, [sp, #16]
1000520c:	9b05      	ldr	r3, [sp, #20]
1000520e:	f002 f987 	bl	10007520 <__aeabi_ddiv>
10005212:	e049      	b.n	100052a8 <_dtoa_r+0x3d4>
10005214:	9b03      	ldr	r3, [sp, #12]
10005216:	2702      	movs	r7, #2
10005218:	425d      	negs	r5, r3
1000521a:	2d00      	cmp	r5, #0
1000521c:	d046      	beq.n	100052ac <_dtoa_r+0x3d8>
1000521e:	9814      	ldr	r0, [sp, #80]	; 0x50
10005220:	9915      	ldr	r1, [sp, #84]	; 0x54
10005222:	230f      	movs	r3, #15
10005224:	4a1e      	ldr	r2, [pc, #120]	; (100052a0 <_dtoa_r+0x3cc>)
10005226:	402b      	ands	r3, r5
10005228:	00db      	lsls	r3, r3, #3
1000522a:	18d3      	adds	r3, r2, r3
1000522c:	681a      	ldr	r2, [r3, #0]
1000522e:	685b      	ldr	r3, [r3, #4]
10005230:	f002 fdb4 	bl	10007d9c <__aeabi_dmul>
10005234:	4c1b      	ldr	r4, [pc, #108]	; (100052a4 <_dtoa_r+0x3d0>)
10005236:	112d      	asrs	r5, r5, #4
10005238:	2d00      	cmp	r5, #0
1000523a:	d035      	beq.n	100052a8 <_dtoa_r+0x3d4>
1000523c:	07eb      	lsls	r3, r5, #31
1000523e:	d504      	bpl.n	1000524a <_dtoa_r+0x376>
10005240:	6822      	ldr	r2, [r4, #0]
10005242:	6863      	ldr	r3, [r4, #4]
10005244:	3701      	adds	r7, #1
10005246:	f002 fda9 	bl	10007d9c <__aeabi_dmul>
1000524a:	106d      	asrs	r5, r5, #1
1000524c:	3408      	adds	r4, #8
1000524e:	e7f3      	b.n	10005238 <_dtoa_r+0x364>
10005250:	7ff00000 	.word	0x7ff00000
10005254:	0000270f 	.word	0x0000270f
10005258:	10009836 	.word	0x10009836
1000525c:	1000982d 	.word	0x1000982d
10005260:	100096b2 	.word	0x100096b2
10005264:	100096b3 	.word	0x100096b3
10005268:	3ff00000 	.word	0x3ff00000
1000526c:	fffffc01 	.word	0xfffffc01
10005270:	fffffbef 	.word	0xfffffbef
10005274:	00000412 	.word	0x00000412
10005278:	fffffc0e 	.word	0xfffffc0e
1000527c:	fffffbee 	.word	0xfffffbee
10005280:	fe100000 	.word	0xfe100000
10005284:	3ff80000 	.word	0x3ff80000
10005288:	636f4361 	.word	0x636f4361
1000528c:	3fd287a7 	.word	0x3fd287a7
10005290:	8b60c8b3 	.word	0x8b60c8b3
10005294:	3fc68a28 	.word	0x3fc68a28
10005298:	509f79fb 	.word	0x509f79fb
1000529c:	3fd34413 	.word	0x3fd34413
100052a0:	10009848 	.word	0x10009848
100052a4:	10009910 	.word	0x10009910
100052a8:	9006      	str	r0, [sp, #24]
100052aa:	9107      	str	r1, [sp, #28]
100052ac:	9b13      	ldr	r3, [sp, #76]	; 0x4c
100052ae:	2b00      	cmp	r3, #0
100052b0:	d01e      	beq.n	100052f0 <_dtoa_r+0x41c>
100052b2:	9c06      	ldr	r4, [sp, #24]
100052b4:	9d07      	ldr	r5, [sp, #28]
100052b6:	2200      	movs	r2, #0
100052b8:	1c20      	adds	r0, r4, #0
100052ba:	1c29      	adds	r1, r5, #0
100052bc:	4bce      	ldr	r3, [pc, #824]	; (100055f8 <_dtoa_r+0x724>)
100052be:	f001 fdc1 	bl	10006e44 <__aeabi_dcmplt>
100052c2:	2800      	cmp	r0, #0
100052c4:	d014      	beq.n	100052f0 <_dtoa_r+0x41c>
100052c6:	9b09      	ldr	r3, [sp, #36]	; 0x24
100052c8:	2b00      	cmp	r3, #0
100052ca:	d011      	beq.n	100052f0 <_dtoa_r+0x41c>
100052cc:	9b0b      	ldr	r3, [sp, #44]	; 0x2c
100052ce:	2b00      	cmp	r3, #0
100052d0:	dc00      	bgt.n	100052d4 <_dtoa_r+0x400>
100052d2:	e0e9      	b.n	100054a8 <_dtoa_r+0x5d4>
100052d4:	9b03      	ldr	r3, [sp, #12]
100052d6:	1c29      	adds	r1, r5, #0
100052d8:	3b01      	subs	r3, #1
100052da:	9311      	str	r3, [sp, #68]	; 0x44
100052dc:	1c20      	adds	r0, r4, #0
100052de:	2200      	movs	r2, #0
100052e0:	4bc6      	ldr	r3, [pc, #792]	; (100055fc <_dtoa_r+0x728>)
100052e2:	f002 fd5b 	bl	10007d9c <__aeabi_dmul>
100052e6:	3701      	adds	r7, #1
100052e8:	9006      	str	r0, [sp, #24]
100052ea:	9107      	str	r1, [sp, #28]
100052ec:	9d0b      	ldr	r5, [sp, #44]	; 0x2c
100052ee:	e002      	b.n	100052f6 <_dtoa_r+0x422>
100052f0:	9b03      	ldr	r3, [sp, #12]
100052f2:	9d09      	ldr	r5, [sp, #36]	; 0x24
100052f4:	9311      	str	r3, [sp, #68]	; 0x44
100052f6:	1c38      	adds	r0, r7, #0
100052f8:	9b06      	ldr	r3, [sp, #24]
100052fa:	9c07      	ldr	r4, [sp, #28]
100052fc:	9304      	str	r3, [sp, #16]
100052fe:	9405      	str	r4, [sp, #20]
10005300:	f003 fb96 	bl	10008a30 <__aeabi_i2d>
10005304:	9a04      	ldr	r2, [sp, #16]
10005306:	9b05      	ldr	r3, [sp, #20]
10005308:	f002 fd48 	bl	10007d9c <__aeabi_dmul>
1000530c:	2200      	movs	r2, #0
1000530e:	4bbc      	ldr	r3, [pc, #752]	; (10005600 <_dtoa_r+0x72c>)
10005310:	f001 fdde 	bl	10006ed0 <__aeabi_dadd>
10005314:	9006      	str	r0, [sp, #24]
10005316:	9107      	str	r1, [sp, #28]
10005318:	9e06      	ldr	r6, [sp, #24]
1000531a:	9f07      	ldr	r7, [sp, #28]
1000531c:	9b07      	ldr	r3, [sp, #28]
1000531e:	4ab9      	ldr	r2, [pc, #740]	; (10005604 <_dtoa_r+0x730>)
10005320:	189c      	adds	r4, r3, r2
10005322:	2d00      	cmp	r5, #0
10005324:	d11c      	bne.n	10005360 <_dtoa_r+0x48c>
10005326:	9804      	ldr	r0, [sp, #16]
10005328:	9905      	ldr	r1, [sp, #20]
1000532a:	2200      	movs	r2, #0
1000532c:	4bb6      	ldr	r3, [pc, #728]	; (10005608 <_dtoa_r+0x734>)
1000532e:	f002 ffcf 	bl	100082d0 <__aeabi_dsub>
10005332:	1c32      	adds	r2, r6, #0
10005334:	1c23      	adds	r3, r4, #0
10005336:	9004      	str	r0, [sp, #16]
10005338:	9105      	str	r1, [sp, #20]
1000533a:	f001 fd97 	bl	10006e6c <__aeabi_dcmpgt>
1000533e:	2800      	cmp	r0, #0
10005340:	d000      	beq.n	10005344 <_dtoa_r+0x470>
10005342:	e263      	b.n	1000580c <_dtoa_r+0x938>
10005344:	9804      	ldr	r0, [sp, #16]
10005346:	9905      	ldr	r1, [sp, #20]
10005348:	1c32      	adds	r2, r6, #0
1000534a:	4eb0      	ldr	r6, [pc, #704]	; (1000560c <_dtoa_r+0x738>)
1000534c:	9c07      	ldr	r4, [sp, #28]
1000534e:	46b4      	mov	ip, r6
10005350:	4464      	add	r4, ip
10005352:	1c23      	adds	r3, r4, #0
10005354:	f001 fd76 	bl	10006e44 <__aeabi_dcmplt>
10005358:	2800      	cmp	r0, #0
1000535a:	d000      	beq.n	1000535e <_dtoa_r+0x48a>
1000535c:	e24c      	b.n	100057f8 <_dtoa_r+0x924>
1000535e:	e0a3      	b.n	100054a8 <_dtoa_r+0x5d4>
10005360:	4aab      	ldr	r2, [pc, #684]	; (10005610 <_dtoa_r+0x73c>)
10005362:	1e6b      	subs	r3, r5, #1
10005364:	9910      	ldr	r1, [sp, #64]	; 0x40
10005366:	00db      	lsls	r3, r3, #3
10005368:	18d3      	adds	r3, r2, r3
1000536a:	2900      	cmp	r1, #0
1000536c:	d04e      	beq.n	1000540c <_dtoa_r+0x538>
1000536e:	681a      	ldr	r2, [r3, #0]
10005370:	685b      	ldr	r3, [r3, #4]
10005372:	2000      	movs	r0, #0
10005374:	49a7      	ldr	r1, [pc, #668]	; (10005614 <_dtoa_r+0x740>)
10005376:	f002 f8d3 	bl	10007520 <__aeabi_ddiv>
1000537a:	1c32      	adds	r2, r6, #0
1000537c:	1c23      	adds	r3, r4, #0
1000537e:	f002 ffa7 	bl	100082d0 <__aeabi_dsub>
10005382:	9e04      	ldr	r6, [sp, #16]
10005384:	9f05      	ldr	r7, [sp, #20]
10005386:	9b0c      	ldr	r3, [sp, #48]	; 0x30
10005388:	9006      	str	r0, [sp, #24]
1000538a:	9107      	str	r1, [sp, #28]
1000538c:	9304      	str	r3, [sp, #16]
1000538e:	1c39      	adds	r1, r7, #0
10005390:	1c30      	adds	r0, r6, #0
10005392:	f003 fb17 	bl	100089c4 <__aeabi_d2iz>
10005396:	1c04      	adds	r4, r0, #0
10005398:	f003 fb4a 	bl	10008a30 <__aeabi_i2d>
1000539c:	1c02      	adds	r2, r0, #0
1000539e:	1c0b      	adds	r3, r1, #0
100053a0:	1c30      	adds	r0, r6, #0
100053a2:	1c39      	adds	r1, r7, #0
100053a4:	f002 ff94 	bl	100082d0 <__aeabi_dsub>
100053a8:	9b04      	ldr	r3, [sp, #16]
100053aa:	3430      	adds	r4, #48	; 0x30
100053ac:	3301      	adds	r3, #1
100053ae:	9304      	str	r3, [sp, #16]
100053b0:	3b01      	subs	r3, #1
100053b2:	701c      	strb	r4, [r3, #0]
100053b4:	9a06      	ldr	r2, [sp, #24]
100053b6:	9b07      	ldr	r3, [sp, #28]
100053b8:	1c06      	adds	r6, r0, #0
100053ba:	1c0f      	adds	r7, r1, #0
100053bc:	f001 fd42 	bl	10006e44 <__aeabi_dcmplt>
100053c0:	2800      	cmp	r0, #0
100053c2:	d000      	beq.n	100053c6 <_dtoa_r+0x4f2>
100053c4:	e361      	b.n	10005a8a <_dtoa_r+0xbb6>
100053c6:	1c32      	adds	r2, r6, #0
100053c8:	1c3b      	adds	r3, r7, #0
100053ca:	2000      	movs	r0, #0
100053cc:	498a      	ldr	r1, [pc, #552]	; (100055f8 <_dtoa_r+0x724>)
100053ce:	f002 ff7f 	bl	100082d0 <__aeabi_dsub>
100053d2:	9a06      	ldr	r2, [sp, #24]
100053d4:	9b07      	ldr	r3, [sp, #28]
100053d6:	f001 fd35 	bl	10006e44 <__aeabi_dcmplt>
100053da:	2800      	cmp	r0, #0
100053dc:	d000      	beq.n	100053e0 <_dtoa_r+0x50c>
100053de:	e0cd      	b.n	1000557c <_dtoa_r+0x6a8>
100053e0:	9b04      	ldr	r3, [sp, #16]
100053e2:	9a0c      	ldr	r2, [sp, #48]	; 0x30
100053e4:	1a9b      	subs	r3, r3, r2
100053e6:	42ab      	cmp	r3, r5
100053e8:	da5e      	bge.n	100054a8 <_dtoa_r+0x5d4>
100053ea:	9806      	ldr	r0, [sp, #24]
100053ec:	9907      	ldr	r1, [sp, #28]
100053ee:	2200      	movs	r2, #0
100053f0:	4b82      	ldr	r3, [pc, #520]	; (100055fc <_dtoa_r+0x728>)
100053f2:	f002 fcd3 	bl	10007d9c <__aeabi_dmul>
100053f6:	2200      	movs	r2, #0
100053f8:	9006      	str	r0, [sp, #24]
100053fa:	9107      	str	r1, [sp, #28]
100053fc:	4b7f      	ldr	r3, [pc, #508]	; (100055fc <_dtoa_r+0x728>)
100053fe:	1c30      	adds	r0, r6, #0
10005400:	1c39      	adds	r1, r7, #0
10005402:	f002 fccb 	bl	10007d9c <__aeabi_dmul>
10005406:	1c06      	adds	r6, r0, #0
10005408:	1c0f      	adds	r7, r1, #0
1000540a:	e7c0      	b.n	1000538e <_dtoa_r+0x4ba>
1000540c:	6818      	ldr	r0, [r3, #0]
1000540e:	6859      	ldr	r1, [r3, #4]
10005410:	1c32      	adds	r2, r6, #0
10005412:	1c23      	adds	r3, r4, #0
10005414:	f002 fcc2 	bl	10007d9c <__aeabi_dmul>
10005418:	9e04      	ldr	r6, [sp, #16]
1000541a:	9f05      	ldr	r7, [sp, #20]
1000541c:	9c0c      	ldr	r4, [sp, #48]	; 0x30
1000541e:	9006      	str	r0, [sp, #24]
10005420:	9107      	str	r1, [sp, #28]
10005422:	1963      	adds	r3, r4, r5
10005424:	9304      	str	r3, [sp, #16]
10005426:	1c39      	adds	r1, r7, #0
10005428:	1c30      	adds	r0, r6, #0
1000542a:	f003 facb 	bl	100089c4 <__aeabi_d2iz>
1000542e:	1c05      	adds	r5, r0, #0
10005430:	f003 fafe 	bl	10008a30 <__aeabi_i2d>
10005434:	1c0b      	adds	r3, r1, #0
10005436:	1c02      	adds	r2, r0, #0
10005438:	1c39      	adds	r1, r7, #0
1000543a:	1c30      	adds	r0, r6, #0
1000543c:	f002 ff48 	bl	100082d0 <__aeabi_dsub>
10005440:	3530      	adds	r5, #48	; 0x30
10005442:	9b04      	ldr	r3, [sp, #16]
10005444:	7025      	strb	r5, [r4, #0]
10005446:	3401      	adds	r4, #1
10005448:	1c06      	adds	r6, r0, #0
1000544a:	1c0f      	adds	r7, r1, #0
1000544c:	42a3      	cmp	r3, r4
1000544e:	d124      	bne.n	1000549a <_dtoa_r+0x5c6>
10005450:	2200      	movs	r2, #0
10005452:	9806      	ldr	r0, [sp, #24]
10005454:	9907      	ldr	r1, [sp, #28]
10005456:	4b6f      	ldr	r3, [pc, #444]	; (10005614 <_dtoa_r+0x740>)
10005458:	f001 fd3a 	bl	10006ed0 <__aeabi_dadd>
1000545c:	1c02      	adds	r2, r0, #0
1000545e:	1c0b      	adds	r3, r1, #0
10005460:	1c30      	adds	r0, r6, #0
10005462:	1c39      	adds	r1, r7, #0
10005464:	f001 fd02 	bl	10006e6c <__aeabi_dcmpgt>
10005468:	2800      	cmp	r0, #0
1000546a:	d000      	beq.n	1000546e <_dtoa_r+0x59a>
1000546c:	e086      	b.n	1000557c <_dtoa_r+0x6a8>
1000546e:	9a06      	ldr	r2, [sp, #24]
10005470:	9b07      	ldr	r3, [sp, #28]
10005472:	2000      	movs	r0, #0
10005474:	4967      	ldr	r1, [pc, #412]	; (10005614 <_dtoa_r+0x740>)
10005476:	f002 ff2b 	bl	100082d0 <__aeabi_dsub>
1000547a:	1c02      	adds	r2, r0, #0
1000547c:	1c0b      	adds	r3, r1, #0
1000547e:	1c30      	adds	r0, r6, #0
10005480:	1c39      	adds	r1, r7, #0
10005482:	f001 fcdf 	bl	10006e44 <__aeabi_dcmplt>
10005486:	2800      	cmp	r0, #0
10005488:	d00e      	beq.n	100054a8 <_dtoa_r+0x5d4>
1000548a:	9b04      	ldr	r3, [sp, #16]
1000548c:	3b01      	subs	r3, #1
1000548e:	781a      	ldrb	r2, [r3, #0]
10005490:	2a30      	cmp	r2, #48	; 0x30
10005492:	d000      	beq.n	10005496 <_dtoa_r+0x5c2>
10005494:	e2f9      	b.n	10005a8a <_dtoa_r+0xbb6>
10005496:	9304      	str	r3, [sp, #16]
10005498:	e7f7      	b.n	1000548a <_dtoa_r+0x5b6>
1000549a:	2200      	movs	r2, #0
1000549c:	4b57      	ldr	r3, [pc, #348]	; (100055fc <_dtoa_r+0x728>)
1000549e:	f002 fc7d 	bl	10007d9c <__aeabi_dmul>
100054a2:	1c06      	adds	r6, r0, #0
100054a4:	1c0f      	adds	r7, r1, #0
100054a6:	e7be      	b.n	10005426 <_dtoa_r+0x552>
100054a8:	9b14      	ldr	r3, [sp, #80]	; 0x50
100054aa:	9c15      	ldr	r4, [sp, #84]	; 0x54
100054ac:	9306      	str	r3, [sp, #24]
100054ae:	9407      	str	r4, [sp, #28]
100054b0:	9b19      	ldr	r3, [sp, #100]	; 0x64
100054b2:	2b00      	cmp	r3, #0
100054b4:	da00      	bge.n	100054b8 <_dtoa_r+0x5e4>
100054b6:	e086      	b.n	100055c6 <_dtoa_r+0x6f2>
100054b8:	9a03      	ldr	r2, [sp, #12]
100054ba:	2a0e      	cmp	r2, #14
100054bc:	dd00      	ble.n	100054c0 <_dtoa_r+0x5ec>
100054be:	e082      	b.n	100055c6 <_dtoa_r+0x6f2>
100054c0:	00d3      	lsls	r3, r2, #3
100054c2:	4a53      	ldr	r2, [pc, #332]	; (10005610 <_dtoa_r+0x73c>)
100054c4:	18d3      	adds	r3, r2, r3
100054c6:	681e      	ldr	r6, [r3, #0]
100054c8:	685f      	ldr	r7, [r3, #4]
100054ca:	9b21      	ldr	r3, [sp, #132]	; 0x84
100054cc:	2b00      	cmp	r3, #0
100054ce:	da14      	bge.n	100054fa <_dtoa_r+0x626>
100054d0:	9b09      	ldr	r3, [sp, #36]	; 0x24
100054d2:	2b00      	cmp	r3, #0
100054d4:	dc11      	bgt.n	100054fa <_dtoa_r+0x626>
100054d6:	d000      	beq.n	100054da <_dtoa_r+0x606>
100054d8:	e190      	b.n	100057fc <_dtoa_r+0x928>
100054da:	1c30      	adds	r0, r6, #0
100054dc:	1c39      	adds	r1, r7, #0
100054de:	2200      	movs	r2, #0
100054e0:	4b49      	ldr	r3, [pc, #292]	; (10005608 <_dtoa_r+0x734>)
100054e2:	f002 fc5b 	bl	10007d9c <__aeabi_dmul>
100054e6:	9a06      	ldr	r2, [sp, #24]
100054e8:	9b07      	ldr	r3, [sp, #28]
100054ea:	f001 fcc9 	bl	10006e80 <__aeabi_dcmpge>
100054ee:	9f09      	ldr	r7, [sp, #36]	; 0x24
100054f0:	1c3e      	adds	r6, r7, #0
100054f2:	2800      	cmp	r0, #0
100054f4:	d000      	beq.n	100054f8 <_dtoa_r+0x624>
100054f6:	e183      	b.n	10005800 <_dtoa_r+0x92c>
100054f8:	e18c      	b.n	10005814 <_dtoa_r+0x940>
100054fa:	9b0c      	ldr	r3, [sp, #48]	; 0x30
100054fc:	9c06      	ldr	r4, [sp, #24]
100054fe:	9d07      	ldr	r5, [sp, #28]
10005500:	9304      	str	r3, [sp, #16]
10005502:	1c32      	adds	r2, r6, #0
10005504:	1c3b      	adds	r3, r7, #0
10005506:	1c20      	adds	r0, r4, #0
10005508:	1c29      	adds	r1, r5, #0
1000550a:	f002 f809 	bl	10007520 <__aeabi_ddiv>
1000550e:	f003 fa59 	bl	100089c4 <__aeabi_d2iz>
10005512:	9006      	str	r0, [sp, #24]
10005514:	f003 fa8c 	bl	10008a30 <__aeabi_i2d>
10005518:	1c32      	adds	r2, r6, #0
1000551a:	1c3b      	adds	r3, r7, #0
1000551c:	f002 fc3e 	bl	10007d9c <__aeabi_dmul>
10005520:	1c02      	adds	r2, r0, #0
10005522:	1c0b      	adds	r3, r1, #0
10005524:	1c20      	adds	r0, r4, #0
10005526:	1c29      	adds	r1, r5, #0
10005528:	f002 fed2 	bl	100082d0 <__aeabi_dsub>
1000552c:	1c0b      	adds	r3, r1, #0
1000552e:	9904      	ldr	r1, [sp, #16]
10005530:	1c02      	adds	r2, r0, #0
10005532:	9806      	ldr	r0, [sp, #24]
10005534:	3101      	adds	r1, #1
10005536:	9104      	str	r1, [sp, #16]
10005538:	3030      	adds	r0, #48	; 0x30
1000553a:	3901      	subs	r1, #1
1000553c:	7008      	strb	r0, [r1, #0]
1000553e:	980c      	ldr	r0, [sp, #48]	; 0x30
10005540:	9904      	ldr	r1, [sp, #16]
10005542:	1a09      	subs	r1, r1, r0
10005544:	9809      	ldr	r0, [sp, #36]	; 0x24
10005546:	4281      	cmp	r1, r0
10005548:	d12e      	bne.n	100055a8 <_dtoa_r+0x6d4>
1000554a:	1c10      	adds	r0, r2, #0
1000554c:	1c19      	adds	r1, r3, #0
1000554e:	f001 fcbf 	bl	10006ed0 <__aeabi_dadd>
10005552:	1c32      	adds	r2, r6, #0
10005554:	1c3b      	adds	r3, r7, #0
10005556:	1c04      	adds	r4, r0, #0
10005558:	1c0d      	adds	r5, r1, #0
1000555a:	f001 fc87 	bl	10006e6c <__aeabi_dcmpgt>
1000555e:	2800      	cmp	r0, #0
10005560:	d110      	bne.n	10005584 <_dtoa_r+0x6b0>
10005562:	1c20      	adds	r0, r4, #0
10005564:	1c29      	adds	r1, r5, #0
10005566:	1c32      	adds	r2, r6, #0
10005568:	1c3b      	adds	r3, r7, #0
1000556a:	f001 fc65 	bl	10006e38 <__aeabi_dcmpeq>
1000556e:	2800      	cmp	r0, #0
10005570:	d100      	bne.n	10005574 <_dtoa_r+0x6a0>
10005572:	e28c      	b.n	10005a8e <_dtoa_r+0xbba>
10005574:	9b06      	ldr	r3, [sp, #24]
10005576:	07db      	lsls	r3, r3, #31
10005578:	d404      	bmi.n	10005584 <_dtoa_r+0x6b0>
1000557a:	e288      	b.n	10005a8e <_dtoa_r+0xbba>
1000557c:	9b11      	ldr	r3, [sp, #68]	; 0x44
1000557e:	9303      	str	r3, [sp, #12]
10005580:	e000      	b.n	10005584 <_dtoa_r+0x6b0>
10005582:	9304      	str	r3, [sp, #16]
10005584:	9b04      	ldr	r3, [sp, #16]
10005586:	3b01      	subs	r3, #1
10005588:	781a      	ldrb	r2, [r3, #0]
1000558a:	2a39      	cmp	r2, #57	; 0x39
1000558c:	d108      	bne.n	100055a0 <_dtoa_r+0x6cc>
1000558e:	9a0c      	ldr	r2, [sp, #48]	; 0x30
10005590:	4293      	cmp	r3, r2
10005592:	d1f6      	bne.n	10005582 <_dtoa_r+0x6ae>
10005594:	9b03      	ldr	r3, [sp, #12]
10005596:	3301      	adds	r3, #1
10005598:	9303      	str	r3, [sp, #12]
1000559a:	2330      	movs	r3, #48	; 0x30
1000559c:	7013      	strb	r3, [r2, #0]
1000559e:	1c13      	adds	r3, r2, #0
100055a0:	781a      	ldrb	r2, [r3, #0]
100055a2:	3201      	adds	r2, #1
100055a4:	701a      	strb	r2, [r3, #0]
100055a6:	e272      	b.n	10005a8e <_dtoa_r+0xbba>
100055a8:	1c10      	adds	r0, r2, #0
100055aa:	1c19      	adds	r1, r3, #0
100055ac:	2200      	movs	r2, #0
100055ae:	4b13      	ldr	r3, [pc, #76]	; (100055fc <_dtoa_r+0x728>)
100055b0:	f002 fbf4 	bl	10007d9c <__aeabi_dmul>
100055b4:	2200      	movs	r2, #0
100055b6:	2300      	movs	r3, #0
100055b8:	1c04      	adds	r4, r0, #0
100055ba:	1c0d      	adds	r5, r1, #0
100055bc:	f001 fc3c 	bl	10006e38 <__aeabi_dcmpeq>
100055c0:	2800      	cmp	r0, #0
100055c2:	d09e      	beq.n	10005502 <_dtoa_r+0x62e>
100055c4:	e263      	b.n	10005a8e <_dtoa_r+0xbba>
100055c6:	9a10      	ldr	r2, [sp, #64]	; 0x40
100055c8:	2a00      	cmp	r2, #0
100055ca:	d044      	beq.n	10005656 <_dtoa_r+0x782>
100055cc:	9a20      	ldr	r2, [sp, #128]	; 0x80
100055ce:	2a01      	cmp	r2, #1
100055d0:	dc0b      	bgt.n	100055ea <_dtoa_r+0x716>
100055d2:	9a16      	ldr	r2, [sp, #88]	; 0x58
100055d4:	2a00      	cmp	r2, #0
100055d6:	d002      	beq.n	100055de <_dtoa_r+0x70a>
100055d8:	4a0f      	ldr	r2, [pc, #60]	; (10005618 <_dtoa_r+0x744>)
100055da:	189b      	adds	r3, r3, r2
100055dc:	e002      	b.n	100055e4 <_dtoa_r+0x710>
100055de:	2336      	movs	r3, #54	; 0x36
100055e0:	9a18      	ldr	r2, [sp, #96]	; 0x60
100055e2:	1a9b      	subs	r3, r3, r2
100055e4:	9d0f      	ldr	r5, [sp, #60]	; 0x3c
100055e6:	9c0d      	ldr	r4, [sp, #52]	; 0x34
100055e8:	e029      	b.n	1000563e <_dtoa_r+0x76a>
100055ea:	9b09      	ldr	r3, [sp, #36]	; 0x24
100055ec:	1e5d      	subs	r5, r3, #1
100055ee:	9b0f      	ldr	r3, [sp, #60]	; 0x3c
100055f0:	42ab      	cmp	r3, r5
100055f2:	db13      	blt.n	1000561c <_dtoa_r+0x748>
100055f4:	1b5d      	subs	r5, r3, r5
100055f6:	e018      	b.n	1000562a <_dtoa_r+0x756>
100055f8:	3ff00000 	.word	0x3ff00000
100055fc:	40240000 	.word	0x40240000
10005600:	401c0000 	.word	0x401c0000
10005604:	fcc00000 	.word	0xfcc00000
10005608:	40140000 	.word	0x40140000
1000560c:	7cc00000 	.word	0x7cc00000
10005610:	10009848 	.word	0x10009848
10005614:	3fe00000 	.word	0x3fe00000
10005618:	00000433 	.word	0x00000433
1000561c:	9b0f      	ldr	r3, [sp, #60]	; 0x3c
1000561e:	950f      	str	r5, [sp, #60]	; 0x3c
10005620:	1aea      	subs	r2, r5, r3
10005622:	2500      	movs	r5, #0
10005624:	9b12      	ldr	r3, [sp, #72]	; 0x48
10005626:	189b      	adds	r3, r3, r2
10005628:	9312      	str	r3, [sp, #72]	; 0x48
1000562a:	9b09      	ldr	r3, [sp, #36]	; 0x24
1000562c:	2b00      	cmp	r3, #0
1000562e:	da04      	bge.n	1000563a <_dtoa_r+0x766>
10005630:	9b0d      	ldr	r3, [sp, #52]	; 0x34
10005632:	9a09      	ldr	r2, [sp, #36]	; 0x24
10005634:	1a9c      	subs	r4, r3, r2
10005636:	2300      	movs	r3, #0
10005638:	e001      	b.n	1000563e <_dtoa_r+0x76a>
1000563a:	9c0d      	ldr	r4, [sp, #52]	; 0x34
1000563c:	9b09      	ldr	r3, [sp, #36]	; 0x24
1000563e:	9a0d      	ldr	r2, [sp, #52]	; 0x34
10005640:	9808      	ldr	r0, [sp, #32]
10005642:	18d2      	adds	r2, r2, r3
10005644:	920d      	str	r2, [sp, #52]	; 0x34
10005646:	9a0e      	ldr	r2, [sp, #56]	; 0x38
10005648:	2101      	movs	r1, #1
1000564a:	18d3      	adds	r3, r2, r3
1000564c:	930e      	str	r3, [sp, #56]	; 0x38
1000564e:	f000 fe89 	bl	10006364 <__i2b>
10005652:	1c06      	adds	r6, r0, #0
10005654:	e002      	b.n	1000565c <_dtoa_r+0x788>
10005656:	9d0f      	ldr	r5, [sp, #60]	; 0x3c
10005658:	9c0d      	ldr	r4, [sp, #52]	; 0x34
1000565a:	9e10      	ldr	r6, [sp, #64]	; 0x40
1000565c:	2c00      	cmp	r4, #0
1000565e:	d00c      	beq.n	1000567a <_dtoa_r+0x7a6>
10005660:	9b0e      	ldr	r3, [sp, #56]	; 0x38
10005662:	2b00      	cmp	r3, #0
10005664:	dd09      	ble.n	1000567a <_dtoa_r+0x7a6>
10005666:	42a3      	cmp	r3, r4
10005668:	dd00      	ble.n	1000566c <_dtoa_r+0x798>
1000566a:	1c23      	adds	r3, r4, #0
1000566c:	9a0d      	ldr	r2, [sp, #52]	; 0x34
1000566e:	1ae4      	subs	r4, r4, r3
10005670:	1ad2      	subs	r2, r2, r3
10005672:	920d      	str	r2, [sp, #52]	; 0x34
10005674:	9a0e      	ldr	r2, [sp, #56]	; 0x38
10005676:	1ad3      	subs	r3, r2, r3
10005678:	930e      	str	r3, [sp, #56]	; 0x38
1000567a:	9b0f      	ldr	r3, [sp, #60]	; 0x3c
1000567c:	2b00      	cmp	r3, #0
1000567e:	dd21      	ble.n	100056c4 <_dtoa_r+0x7f0>
10005680:	9b10      	ldr	r3, [sp, #64]	; 0x40
10005682:	2b00      	cmp	r3, #0
10005684:	d018      	beq.n	100056b8 <_dtoa_r+0x7e4>
10005686:	2d00      	cmp	r5, #0
10005688:	dd10      	ble.n	100056ac <_dtoa_r+0x7d8>
1000568a:	1c31      	adds	r1, r6, #0
1000568c:	1c2a      	adds	r2, r5, #0
1000568e:	9808      	ldr	r0, [sp, #32]
10005690:	f000 fefe 	bl	10006490 <__pow5mult>
10005694:	1c06      	adds	r6, r0, #0
10005696:	9a0a      	ldr	r2, [sp, #40]	; 0x28
10005698:	1c31      	adds	r1, r6, #0
1000569a:	9808      	ldr	r0, [sp, #32]
1000569c:	f000 fe6b 	bl	10006376 <__multiply>
100056a0:	1c07      	adds	r7, r0, #0
100056a2:	990a      	ldr	r1, [sp, #40]	; 0x28
100056a4:	9808      	ldr	r0, [sp, #32]
100056a6:	f000 fd7e 	bl	100061a6 <_Bfree>
100056aa:	970a      	str	r7, [sp, #40]	; 0x28
100056ac:	9b0f      	ldr	r3, [sp, #60]	; 0x3c
100056ae:	1b5a      	subs	r2, r3, r5
100056b0:	d008      	beq.n	100056c4 <_dtoa_r+0x7f0>
100056b2:	9808      	ldr	r0, [sp, #32]
100056b4:	990a      	ldr	r1, [sp, #40]	; 0x28
100056b6:	e002      	b.n	100056be <_dtoa_r+0x7ea>
100056b8:	9808      	ldr	r0, [sp, #32]
100056ba:	990a      	ldr	r1, [sp, #40]	; 0x28
100056bc:	9a0f      	ldr	r2, [sp, #60]	; 0x3c
100056be:	f000 fee7 	bl	10006490 <__pow5mult>
100056c2:	900a      	str	r0, [sp, #40]	; 0x28
100056c4:	9808      	ldr	r0, [sp, #32]
100056c6:	2101      	movs	r1, #1
100056c8:	f000 fe4c 	bl	10006364 <__i2b>
100056cc:	9b12      	ldr	r3, [sp, #72]	; 0x48
100056ce:	1c07      	adds	r7, r0, #0
100056d0:	2b00      	cmp	r3, #0
100056d2:	dd0a      	ble.n	100056ea <_dtoa_r+0x816>
100056d4:	1c39      	adds	r1, r7, #0
100056d6:	1c1a      	adds	r2, r3, #0
100056d8:	9808      	ldr	r0, [sp, #32]
100056da:	f000 fed9 	bl	10006490 <__pow5mult>
100056de:	9b20      	ldr	r3, [sp, #128]	; 0x80
100056e0:	1c07      	adds	r7, r0, #0
100056e2:	2500      	movs	r5, #0
100056e4:	2b01      	cmp	r3, #1
100056e6:	dc1b      	bgt.n	10005720 <_dtoa_r+0x84c>
100056e8:	e003      	b.n	100056f2 <_dtoa_r+0x81e>
100056ea:	9b20      	ldr	r3, [sp, #128]	; 0x80
100056ec:	2500      	movs	r5, #0
100056ee:	2b01      	cmp	r3, #1
100056f0:	dc12      	bgt.n	10005718 <_dtoa_r+0x844>
100056f2:	2500      	movs	r5, #0
100056f4:	9b06      	ldr	r3, [sp, #24]
100056f6:	42ab      	cmp	r3, r5
100056f8:	d10e      	bne.n	10005718 <_dtoa_r+0x844>
100056fa:	9b07      	ldr	r3, [sp, #28]
100056fc:	031b      	lsls	r3, r3, #12
100056fe:	42ab      	cmp	r3, r5
10005700:	d10a      	bne.n	10005718 <_dtoa_r+0x844>
10005702:	9b17      	ldr	r3, [sp, #92]	; 0x5c
10005704:	9a07      	ldr	r2, [sp, #28]
10005706:	4213      	tst	r3, r2
10005708:	d006      	beq.n	10005718 <_dtoa_r+0x844>
1000570a:	9b0d      	ldr	r3, [sp, #52]	; 0x34
1000570c:	3501      	adds	r5, #1
1000570e:	3301      	adds	r3, #1
10005710:	930d      	str	r3, [sp, #52]	; 0x34
10005712:	9b0e      	ldr	r3, [sp, #56]	; 0x38
10005714:	3301      	adds	r3, #1
10005716:	930e      	str	r3, [sp, #56]	; 0x38
10005718:	9b12      	ldr	r3, [sp, #72]	; 0x48
1000571a:	2001      	movs	r0, #1
1000571c:	2b00      	cmp	r3, #0
1000571e:	d008      	beq.n	10005732 <_dtoa_r+0x85e>
10005720:	693b      	ldr	r3, [r7, #16]
10005722:	3303      	adds	r3, #3
10005724:	009b      	lsls	r3, r3, #2
10005726:	18fb      	adds	r3, r7, r3
10005728:	6858      	ldr	r0, [r3, #4]
1000572a:	f000 fdd1 	bl	100062d0 <__hi0bits>
1000572e:	2320      	movs	r3, #32
10005730:	1a18      	subs	r0, r3, r0
10005732:	9b0e      	ldr	r3, [sp, #56]	; 0x38
10005734:	18c0      	adds	r0, r0, r3
10005736:	231f      	movs	r3, #31
10005738:	4018      	ands	r0, r3
1000573a:	d009      	beq.n	10005750 <_dtoa_r+0x87c>
1000573c:	3301      	adds	r3, #1
1000573e:	1a1b      	subs	r3, r3, r0
10005740:	2b04      	cmp	r3, #4
10005742:	dd02      	ble.n	1000574a <_dtoa_r+0x876>
10005744:	231c      	movs	r3, #28
10005746:	1a18      	subs	r0, r3, r0
10005748:	e003      	b.n	10005752 <_dtoa_r+0x87e>
1000574a:	2b04      	cmp	r3, #4
1000574c:	d008      	beq.n	10005760 <_dtoa_r+0x88c>
1000574e:	1c18      	adds	r0, r3, #0
10005750:	301c      	adds	r0, #28
10005752:	9b0d      	ldr	r3, [sp, #52]	; 0x34
10005754:	1824      	adds	r4, r4, r0
10005756:	181b      	adds	r3, r3, r0
10005758:	930d      	str	r3, [sp, #52]	; 0x34
1000575a:	9b0e      	ldr	r3, [sp, #56]	; 0x38
1000575c:	181b      	adds	r3, r3, r0
1000575e:	930e      	str	r3, [sp, #56]	; 0x38
10005760:	9b0d      	ldr	r3, [sp, #52]	; 0x34
10005762:	2b00      	cmp	r3, #0
10005764:	dd05      	ble.n	10005772 <_dtoa_r+0x89e>
10005766:	9808      	ldr	r0, [sp, #32]
10005768:	990a      	ldr	r1, [sp, #40]	; 0x28
1000576a:	1c1a      	adds	r2, r3, #0
1000576c:	f000 fee2 	bl	10006534 <__lshift>
10005770:	900a      	str	r0, [sp, #40]	; 0x28
10005772:	9b0e      	ldr	r3, [sp, #56]	; 0x38
10005774:	2b00      	cmp	r3, #0
10005776:	dd05      	ble.n	10005784 <_dtoa_r+0x8b0>
10005778:	1c39      	adds	r1, r7, #0
1000577a:	9808      	ldr	r0, [sp, #32]
1000577c:	1c1a      	adds	r2, r3, #0
1000577e:	f000 fed9 	bl	10006534 <__lshift>
10005782:	1c07      	adds	r7, r0, #0
10005784:	9b13      	ldr	r3, [sp, #76]	; 0x4c
10005786:	2b00      	cmp	r3, #0
10005788:	d01e      	beq.n	100057c8 <_dtoa_r+0x8f4>
1000578a:	980a      	ldr	r0, [sp, #40]	; 0x28
1000578c:	1c39      	adds	r1, r7, #0
1000578e:	f000 ff23 	bl	100065d8 <__mcmp>
10005792:	2800      	cmp	r0, #0
10005794:	da18      	bge.n	100057c8 <_dtoa_r+0x8f4>
10005796:	9b03      	ldr	r3, [sp, #12]
10005798:	9808      	ldr	r0, [sp, #32]
1000579a:	3b01      	subs	r3, #1
1000579c:	9303      	str	r3, [sp, #12]
1000579e:	990a      	ldr	r1, [sp, #40]	; 0x28
100057a0:	2300      	movs	r3, #0
100057a2:	220a      	movs	r2, #10
100057a4:	f000 fd18 	bl	100061d8 <__multadd>
100057a8:	9b10      	ldr	r3, [sp, #64]	; 0x40
100057aa:	900a      	str	r0, [sp, #40]	; 0x28
100057ac:	2b00      	cmp	r3, #0
100057ae:	d100      	bne.n	100057b2 <_dtoa_r+0x8de>
100057b0:	e17f      	b.n	10005ab2 <_dtoa_r+0xbde>
100057b2:	1c31      	adds	r1, r6, #0
100057b4:	2300      	movs	r3, #0
100057b6:	9808      	ldr	r0, [sp, #32]
100057b8:	220a      	movs	r2, #10
100057ba:	f000 fd0d 	bl	100061d8 <__multadd>
100057be:	9b0b      	ldr	r3, [sp, #44]	; 0x2c
100057c0:	1c06      	adds	r6, r0, #0
100057c2:	2b00      	cmp	r3, #0
100057c4:	dc3c      	bgt.n	10005840 <_dtoa_r+0x96c>
100057c6:	e17d      	b.n	10005ac4 <_dtoa_r+0xbf0>
100057c8:	9b09      	ldr	r3, [sp, #36]	; 0x24
100057ca:	2b00      	cmp	r3, #0
100057cc:	dc2e      	bgt.n	1000582c <_dtoa_r+0x958>
100057ce:	9b20      	ldr	r3, [sp, #128]	; 0x80
100057d0:	2b02      	cmp	r3, #2
100057d2:	dd2b      	ble.n	1000582c <_dtoa_r+0x958>
100057d4:	9b09      	ldr	r3, [sp, #36]	; 0x24
100057d6:	930b      	str	r3, [sp, #44]	; 0x2c
100057d8:	9b0b      	ldr	r3, [sp, #44]	; 0x2c
100057da:	2b00      	cmp	r3, #0
100057dc:	d110      	bne.n	10005800 <_dtoa_r+0x92c>
100057de:	1c39      	adds	r1, r7, #0
100057e0:	9808      	ldr	r0, [sp, #32]
100057e2:	2205      	movs	r2, #5
100057e4:	f000 fcf8 	bl	100061d8 <__multadd>
100057e8:	1c07      	adds	r7, r0, #0
100057ea:	980a      	ldr	r0, [sp, #40]	; 0x28
100057ec:	1c39      	adds	r1, r7, #0
100057ee:	f000 fef3 	bl	100065d8 <__mcmp>
100057f2:	2800      	cmp	r0, #0
100057f4:	dc0e      	bgt.n	10005814 <_dtoa_r+0x940>
100057f6:	e003      	b.n	10005800 <_dtoa_r+0x92c>
100057f8:	1c2f      	adds	r7, r5, #0
100057fa:	e000      	b.n	100057fe <_dtoa_r+0x92a>
100057fc:	2700      	movs	r7, #0
100057fe:	1c3e      	adds	r6, r7, #0
10005800:	9b21      	ldr	r3, [sp, #132]	; 0x84
10005802:	43db      	mvns	r3, r3
10005804:	9303      	str	r3, [sp, #12]
10005806:	9b0c      	ldr	r3, [sp, #48]	; 0x30
10005808:	9304      	str	r3, [sp, #16]
1000580a:	e00c      	b.n	10005826 <_dtoa_r+0x952>
1000580c:	1c2f      	adds	r7, r5, #0
1000580e:	1c2e      	adds	r6, r5, #0
10005810:	9b11      	ldr	r3, [sp, #68]	; 0x44
10005812:	9303      	str	r3, [sp, #12]
10005814:	9b0c      	ldr	r3, [sp, #48]	; 0x30
10005816:	9a0c      	ldr	r2, [sp, #48]	; 0x30
10005818:	3301      	adds	r3, #1
1000581a:	9304      	str	r3, [sp, #16]
1000581c:	2331      	movs	r3, #49	; 0x31
1000581e:	7013      	strb	r3, [r2, #0]
10005820:	9b03      	ldr	r3, [sp, #12]
10005822:	3301      	adds	r3, #1
10005824:	9303      	str	r3, [sp, #12]
10005826:	9609      	str	r6, [sp, #36]	; 0x24
10005828:	2600      	movs	r6, #0
1000582a:	e11a      	b.n	10005a62 <_dtoa_r+0xb8e>
1000582c:	9b10      	ldr	r3, [sp, #64]	; 0x40
1000582e:	2b00      	cmp	r3, #0
10005830:	d104      	bne.n	1000583c <_dtoa_r+0x968>
10005832:	9b09      	ldr	r3, [sp, #36]	; 0x24
10005834:	930b      	str	r3, [sp, #44]	; 0x2c
10005836:	9d0c      	ldr	r5, [sp, #48]	; 0x30
10005838:	9c0a      	ldr	r4, [sp, #40]	; 0x28
1000583a:	e0d0      	b.n	100059de <_dtoa_r+0xb0a>
1000583c:	9b09      	ldr	r3, [sp, #36]	; 0x24
1000583e:	930b      	str	r3, [sp, #44]	; 0x2c
10005840:	2c00      	cmp	r4, #0
10005842:	dd05      	ble.n	10005850 <_dtoa_r+0x97c>
10005844:	1c31      	adds	r1, r6, #0
10005846:	9808      	ldr	r0, [sp, #32]
10005848:	1c22      	adds	r2, r4, #0
1000584a:	f000 fe73 	bl	10006534 <__lshift>
1000584e:	1c06      	adds	r6, r0, #0
10005850:	9609      	str	r6, [sp, #36]	; 0x24
10005852:	2d00      	cmp	r5, #0
10005854:	d012      	beq.n	1000587c <_dtoa_r+0x9a8>
10005856:	6871      	ldr	r1, [r6, #4]
10005858:	9808      	ldr	r0, [sp, #32]
1000585a:	f000 fc6c 	bl	10006136 <_Balloc>
1000585e:	1c31      	adds	r1, r6, #0
10005860:	1c04      	adds	r4, r0, #0
10005862:	6933      	ldr	r3, [r6, #16]
10005864:	310c      	adds	r1, #12
10005866:	1c9a      	adds	r2, r3, #2
10005868:	0092      	lsls	r2, r2, #2
1000586a:	300c      	adds	r0, #12
1000586c:	f7fd fd32 	bl	100032d4 <memcpy>
10005870:	9808      	ldr	r0, [sp, #32]
10005872:	1c21      	adds	r1, r4, #0
10005874:	2201      	movs	r2, #1
10005876:	f000 fe5d 	bl	10006534 <__lshift>
1000587a:	9009      	str	r0, [sp, #36]	; 0x24
1000587c:	9b0c      	ldr	r3, [sp, #48]	; 0x30
1000587e:	9a0c      	ldr	r2, [sp, #48]	; 0x30
10005880:	930e      	str	r3, [sp, #56]	; 0x38
10005882:	9b0b      	ldr	r3, [sp, #44]	; 0x2c
10005884:	9c0a      	ldr	r4, [sp, #40]	; 0x28
10005886:	3b01      	subs	r3, #1
10005888:	18d3      	adds	r3, r2, r3
1000588a:	9310      	str	r3, [sp, #64]	; 0x40
1000588c:	1c39      	adds	r1, r7, #0
1000588e:	1c20      	adds	r0, r4, #0
10005890:	f7ff fa98 	bl	10004dc4 <quorem>
10005894:	1c03      	adds	r3, r0, #0
10005896:	900f      	str	r0, [sp, #60]	; 0x3c
10005898:	3330      	adds	r3, #48	; 0x30
1000589a:	1c31      	adds	r1, r6, #0
1000589c:	1c20      	adds	r0, r4, #0
1000589e:	930d      	str	r3, [sp, #52]	; 0x34
100058a0:	f000 fe9a 	bl	100065d8 <__mcmp>
100058a4:	1c39      	adds	r1, r7, #0
100058a6:	900b      	str	r0, [sp, #44]	; 0x2c
100058a8:	9a09      	ldr	r2, [sp, #36]	; 0x24
100058aa:	9808      	ldr	r0, [sp, #32]
100058ac:	f000 feaf 	bl	1000660e <__mdiff>
100058b0:	2301      	movs	r3, #1
100058b2:	9304      	str	r3, [sp, #16]
100058b4:	68c3      	ldr	r3, [r0, #12]
100058b6:	1c05      	adds	r5, r0, #0
100058b8:	2b00      	cmp	r3, #0
100058ba:	d104      	bne.n	100058c6 <_dtoa_r+0x9f2>
100058bc:	1c20      	adds	r0, r4, #0
100058be:	1c29      	adds	r1, r5, #0
100058c0:	f000 fe8a 	bl	100065d8 <__mcmp>
100058c4:	9004      	str	r0, [sp, #16]
100058c6:	9808      	ldr	r0, [sp, #32]
100058c8:	1c29      	adds	r1, r5, #0
100058ca:	f000 fc6c 	bl	100061a6 <_Bfree>
100058ce:	9b04      	ldr	r3, [sp, #16]
100058d0:	9a20      	ldr	r2, [sp, #128]	; 0x80
100058d2:	4313      	orrs	r3, r2
100058d4:	d110      	bne.n	100058f8 <_dtoa_r+0xa24>
100058d6:	9a06      	ldr	r2, [sp, #24]
100058d8:	3301      	adds	r3, #1
100058da:	4213      	tst	r3, r2
100058dc:	d10c      	bne.n	100058f8 <_dtoa_r+0xa24>
100058de:	980d      	ldr	r0, [sp, #52]	; 0x34
100058e0:	940a      	str	r4, [sp, #40]	; 0x28
100058e2:	2839      	cmp	r0, #57	; 0x39
100058e4:	d03d      	beq.n	10005962 <_dtoa_r+0xa8e>
100058e6:	9b0b      	ldr	r3, [sp, #44]	; 0x2c
100058e8:	2b00      	cmp	r3, #0
100058ea:	dd01      	ble.n	100058f0 <_dtoa_r+0xa1c>
100058ec:	980f      	ldr	r0, [sp, #60]	; 0x3c
100058ee:	3031      	adds	r0, #49	; 0x31
100058f0:	9b0e      	ldr	r3, [sp, #56]	; 0x38
100058f2:	3301      	adds	r3, #1
100058f4:	9304      	str	r3, [sp, #16]
100058f6:	e03e      	b.n	10005976 <_dtoa_r+0xaa2>
100058f8:	9b0b      	ldr	r3, [sp, #44]	; 0x2c
100058fa:	2b00      	cmp	r3, #0
100058fc:	da05      	bge.n	1000590a <_dtoa_r+0xa36>
100058fe:	9b04      	ldr	r3, [sp, #16]
10005900:	9d0d      	ldr	r5, [sp, #52]	; 0x34
10005902:	940a      	str	r4, [sp, #40]	; 0x28
10005904:	2b00      	cmp	r3, #0
10005906:	dc09      	bgt.n	1000591c <_dtoa_r+0xa48>
10005908:	e01c      	b.n	10005944 <_dtoa_r+0xa70>
1000590a:	9d0b      	ldr	r5, [sp, #44]	; 0x2c
1000590c:	9b20      	ldr	r3, [sp, #128]	; 0x80
1000590e:	431d      	orrs	r5, r3
10005910:	d11e      	bne.n	10005950 <_dtoa_r+0xa7c>
10005912:	2301      	movs	r3, #1
10005914:	9a06      	ldr	r2, [sp, #24]
10005916:	4213      	tst	r3, r2
10005918:	d11a      	bne.n	10005950 <_dtoa_r+0xa7c>
1000591a:	e7f0      	b.n	100058fe <_dtoa_r+0xa2a>
1000591c:	1c21      	adds	r1, r4, #0
1000591e:	9808      	ldr	r0, [sp, #32]
10005920:	2201      	movs	r2, #1
10005922:	f000 fe07 	bl	10006534 <__lshift>
10005926:	1c39      	adds	r1, r7, #0
10005928:	900a      	str	r0, [sp, #40]	; 0x28
1000592a:	f000 fe55 	bl	100065d8 <__mcmp>
1000592e:	2800      	cmp	r0, #0
10005930:	dc03      	bgt.n	1000593a <_dtoa_r+0xa66>
10005932:	d107      	bne.n	10005944 <_dtoa_r+0xa70>
10005934:	9b0d      	ldr	r3, [sp, #52]	; 0x34
10005936:	07db      	lsls	r3, r3, #31
10005938:	d504      	bpl.n	10005944 <_dtoa_r+0xa70>
1000593a:	9b0d      	ldr	r3, [sp, #52]	; 0x34
1000593c:	2b39      	cmp	r3, #57	; 0x39
1000593e:	d010      	beq.n	10005962 <_dtoa_r+0xa8e>
10005940:	1c1d      	adds	r5, r3, #0
10005942:	3501      	adds	r5, #1
10005944:	9b0e      	ldr	r3, [sp, #56]	; 0x38
10005946:	3301      	adds	r3, #1
10005948:	9304      	str	r3, [sp, #16]
1000594a:	9b0e      	ldr	r3, [sp, #56]	; 0x38
1000594c:	701d      	strb	r5, [r3, #0]
1000594e:	e088      	b.n	10005a62 <_dtoa_r+0xb8e>
10005950:	9b0e      	ldr	r3, [sp, #56]	; 0x38
10005952:	1c5d      	adds	r5, r3, #1
10005954:	9b04      	ldr	r3, [sp, #16]
10005956:	2b00      	cmp	r3, #0
10005958:	dd10      	ble.n	1000597c <_dtoa_r+0xaa8>
1000595a:	9b0d      	ldr	r3, [sp, #52]	; 0x34
1000595c:	940a      	str	r4, [sp, #40]	; 0x28
1000595e:	2b39      	cmp	r3, #57	; 0x39
10005960:	d106      	bne.n	10005970 <_dtoa_r+0xa9c>
10005962:	9b0e      	ldr	r3, [sp, #56]	; 0x38
10005964:	9a0e      	ldr	r2, [sp, #56]	; 0x38
10005966:	3301      	adds	r3, #1
10005968:	9304      	str	r3, [sp, #16]
1000596a:	2339      	movs	r3, #57	; 0x39
1000596c:	7013      	strb	r3, [r2, #0]
1000596e:	e060      	b.n	10005a32 <_dtoa_r+0xb5e>
10005970:	980d      	ldr	r0, [sp, #52]	; 0x34
10005972:	9504      	str	r5, [sp, #16]
10005974:	3001      	adds	r0, #1
10005976:	9b0e      	ldr	r3, [sp, #56]	; 0x38
10005978:	7018      	strb	r0, [r3, #0]
1000597a:	e072      	b.n	10005a62 <_dtoa_r+0xb8e>
1000597c:	466a      	mov	r2, sp
1000597e:	2134      	movs	r1, #52	; 0x34
10005980:	1852      	adds	r2, r2, r1
10005982:	7812      	ldrb	r2, [r2, #0]
10005984:	9b0e      	ldr	r3, [sp, #56]	; 0x38
10005986:	9504      	str	r5, [sp, #16]
10005988:	701a      	strb	r2, [r3, #0]
1000598a:	9a10      	ldr	r2, [sp, #64]	; 0x40
1000598c:	4293      	cmp	r3, r2
1000598e:	d03f      	beq.n	10005a10 <_dtoa_r+0xb3c>
10005990:	1c21      	adds	r1, r4, #0
10005992:	220a      	movs	r2, #10
10005994:	2300      	movs	r3, #0
10005996:	9808      	ldr	r0, [sp, #32]
10005998:	f000 fc1e 	bl	100061d8 <__multadd>
1000599c:	9b09      	ldr	r3, [sp, #36]	; 0x24
1000599e:	1c04      	adds	r4, r0, #0
100059a0:	1c31      	adds	r1, r6, #0
100059a2:	9808      	ldr	r0, [sp, #32]
100059a4:	220a      	movs	r2, #10
100059a6:	429e      	cmp	r6, r3
100059a8:	d105      	bne.n	100059b6 <_dtoa_r+0xae2>
100059aa:	2300      	movs	r3, #0
100059ac:	f000 fc14 	bl	100061d8 <__multadd>
100059b0:	1c06      	adds	r6, r0, #0
100059b2:	9009      	str	r0, [sp, #36]	; 0x24
100059b4:	e00a      	b.n	100059cc <_dtoa_r+0xaf8>
100059b6:	2300      	movs	r3, #0
100059b8:	f000 fc0e 	bl	100061d8 <__multadd>
100059bc:	9909      	ldr	r1, [sp, #36]	; 0x24
100059be:	1c06      	adds	r6, r0, #0
100059c0:	220a      	movs	r2, #10
100059c2:	9808      	ldr	r0, [sp, #32]
100059c4:	2300      	movs	r3, #0
100059c6:	f000 fc07 	bl	100061d8 <__multadd>
100059ca:	9009      	str	r0, [sp, #36]	; 0x24
100059cc:	950e      	str	r5, [sp, #56]	; 0x38
100059ce:	e75d      	b.n	1000588c <_dtoa_r+0x9b8>
100059d0:	1c21      	adds	r1, r4, #0
100059d2:	9808      	ldr	r0, [sp, #32]
100059d4:	220a      	movs	r2, #10
100059d6:	2300      	movs	r3, #0
100059d8:	f000 fbfe 	bl	100061d8 <__multadd>
100059dc:	1c04      	adds	r4, r0, #0
100059de:	1c20      	adds	r0, r4, #0
100059e0:	1c39      	adds	r1, r7, #0
100059e2:	f7ff f9ef 	bl	10004dc4 <quorem>
100059e6:	2234      	movs	r2, #52	; 0x34
100059e8:	466b      	mov	r3, sp
100059ea:	3030      	adds	r0, #48	; 0x30
100059ec:	189b      	adds	r3, r3, r2
100059ee:	900d      	str	r0, [sp, #52]	; 0x34
100059f0:	781b      	ldrb	r3, [r3, #0]
100059f2:	9a0b      	ldr	r2, [sp, #44]	; 0x2c
100059f4:	702b      	strb	r3, [r5, #0]
100059f6:	9b0c      	ldr	r3, [sp, #48]	; 0x30
100059f8:	3501      	adds	r5, #1
100059fa:	1aeb      	subs	r3, r5, r3
100059fc:	4293      	cmp	r3, r2
100059fe:	dbe7      	blt.n	100059d0 <_dtoa_r+0xafc>
10005a00:	1e13      	subs	r3, r2, #0
10005a02:	dc00      	bgt.n	10005a06 <_dtoa_r+0xb32>
10005a04:	2301      	movs	r3, #1
10005a06:	9609      	str	r6, [sp, #36]	; 0x24
10005a08:	2600      	movs	r6, #0
10005a0a:	9a0c      	ldr	r2, [sp, #48]	; 0x30
10005a0c:	18d3      	adds	r3, r2, r3
10005a0e:	9304      	str	r3, [sp, #16]
10005a10:	1c21      	adds	r1, r4, #0
10005a12:	9808      	ldr	r0, [sp, #32]
10005a14:	2201      	movs	r2, #1
10005a16:	f000 fd8d 	bl	10006534 <__lshift>
10005a1a:	1c39      	adds	r1, r7, #0
10005a1c:	900a      	str	r0, [sp, #40]	; 0x28
10005a1e:	f000 fddb 	bl	100065d8 <__mcmp>
10005a22:	2800      	cmp	r0, #0
10005a24:	dc05      	bgt.n	10005a32 <_dtoa_r+0xb5e>
10005a26:	d115      	bne.n	10005a54 <_dtoa_r+0xb80>
10005a28:	9b0d      	ldr	r3, [sp, #52]	; 0x34
10005a2a:	07db      	lsls	r3, r3, #31
10005a2c:	d401      	bmi.n	10005a32 <_dtoa_r+0xb5e>
10005a2e:	e011      	b.n	10005a54 <_dtoa_r+0xb80>
10005a30:	9304      	str	r3, [sp, #16]
10005a32:	9b04      	ldr	r3, [sp, #16]
10005a34:	3b01      	subs	r3, #1
10005a36:	781a      	ldrb	r2, [r3, #0]
10005a38:	2a39      	cmp	r2, #57	; 0x39
10005a3a:	d108      	bne.n	10005a4e <_dtoa_r+0xb7a>
10005a3c:	9a0c      	ldr	r2, [sp, #48]	; 0x30
10005a3e:	4293      	cmp	r3, r2
10005a40:	d1f6      	bne.n	10005a30 <_dtoa_r+0xb5c>
10005a42:	9b03      	ldr	r3, [sp, #12]
10005a44:	3301      	adds	r3, #1
10005a46:	9303      	str	r3, [sp, #12]
10005a48:	2331      	movs	r3, #49	; 0x31
10005a4a:	7013      	strb	r3, [r2, #0]
10005a4c:	e009      	b.n	10005a62 <_dtoa_r+0xb8e>
10005a4e:	3201      	adds	r2, #1
10005a50:	701a      	strb	r2, [r3, #0]
10005a52:	e006      	b.n	10005a62 <_dtoa_r+0xb8e>
10005a54:	9b04      	ldr	r3, [sp, #16]
10005a56:	3b01      	subs	r3, #1
10005a58:	781a      	ldrb	r2, [r3, #0]
10005a5a:	2a30      	cmp	r2, #48	; 0x30
10005a5c:	d101      	bne.n	10005a62 <_dtoa_r+0xb8e>
10005a5e:	9304      	str	r3, [sp, #16]
10005a60:	e7f8      	b.n	10005a54 <_dtoa_r+0xb80>
10005a62:	9808      	ldr	r0, [sp, #32]
10005a64:	1c39      	adds	r1, r7, #0
10005a66:	f000 fb9e 	bl	100061a6 <_Bfree>
10005a6a:	9b09      	ldr	r3, [sp, #36]	; 0x24
10005a6c:	2b00      	cmp	r3, #0
10005a6e:	d00e      	beq.n	10005a8e <_dtoa_r+0xbba>
10005a70:	2e00      	cmp	r6, #0
10005a72:	d005      	beq.n	10005a80 <_dtoa_r+0xbac>
10005a74:	429e      	cmp	r6, r3
10005a76:	d003      	beq.n	10005a80 <_dtoa_r+0xbac>
10005a78:	9808      	ldr	r0, [sp, #32]
10005a7a:	1c31      	adds	r1, r6, #0
10005a7c:	f000 fb93 	bl	100061a6 <_Bfree>
10005a80:	9808      	ldr	r0, [sp, #32]
10005a82:	9909      	ldr	r1, [sp, #36]	; 0x24
10005a84:	f000 fb8f 	bl	100061a6 <_Bfree>
10005a88:	e001      	b.n	10005a8e <_dtoa_r+0xbba>
10005a8a:	9b11      	ldr	r3, [sp, #68]	; 0x44
10005a8c:	9303      	str	r3, [sp, #12]
10005a8e:	9808      	ldr	r0, [sp, #32]
10005a90:	990a      	ldr	r1, [sp, #40]	; 0x28
10005a92:	f000 fb88 	bl	100061a6 <_Bfree>
10005a96:	2300      	movs	r3, #0
10005a98:	9a04      	ldr	r2, [sp, #16]
10005a9a:	980c      	ldr	r0, [sp, #48]	; 0x30
10005a9c:	7013      	strb	r3, [r2, #0]
10005a9e:	9b03      	ldr	r3, [sp, #12]
10005aa0:	9a22      	ldr	r2, [sp, #136]	; 0x88
10005aa2:	3301      	adds	r3, #1
10005aa4:	6013      	str	r3, [r2, #0]
10005aa6:	9b24      	ldr	r3, [sp, #144]	; 0x90
10005aa8:	2b00      	cmp	r3, #0
10005aaa:	d010      	beq.n	10005ace <_dtoa_r+0xbfa>
10005aac:	9a04      	ldr	r2, [sp, #16]
10005aae:	601a      	str	r2, [r3, #0]
10005ab0:	e00d      	b.n	10005ace <_dtoa_r+0xbfa>
10005ab2:	9b0b      	ldr	r3, [sp, #44]	; 0x2c
10005ab4:	2b00      	cmp	r3, #0
10005ab6:	dd00      	ble.n	10005aba <_dtoa_r+0xbe6>
10005ab8:	e6bd      	b.n	10005836 <_dtoa_r+0x962>
10005aba:	9b20      	ldr	r3, [sp, #128]	; 0x80
10005abc:	2b02      	cmp	r3, #2
10005abe:	dd00      	ble.n	10005ac2 <_dtoa_r+0xbee>
10005ac0:	e68a      	b.n	100057d8 <_dtoa_r+0x904>
10005ac2:	e6b8      	b.n	10005836 <_dtoa_r+0x962>
10005ac4:	9b20      	ldr	r3, [sp, #128]	; 0x80
10005ac6:	2b02      	cmp	r3, #2
10005ac8:	dd00      	ble.n	10005acc <_dtoa_r+0xbf8>
10005aca:	e685      	b.n	100057d8 <_dtoa_r+0x904>
10005acc:	e6b8      	b.n	10005840 <_dtoa_r+0x96c>
10005ace:	b01b      	add	sp, #108	; 0x6c
10005ad0:	bdf0      	pop	{r4, r5, r6, r7, pc}
10005ad2:	46c0      	nop			; (mov r8, r8)

10005ad4 <rshift>:
10005ad4:	b5f0      	push	{r4, r5, r6, r7, lr}
10005ad6:	1c06      	adds	r6, r0, #0
10005ad8:	6905      	ldr	r5, [r0, #16]
10005ada:	3614      	adds	r6, #20
10005adc:	114a      	asrs	r2, r1, #5
10005ade:	1c34      	adds	r4, r6, #0
10005ae0:	42aa      	cmp	r2, r5
10005ae2:	da25      	bge.n	10005b30 <rshift+0x5c>
10005ae4:	231f      	movs	r3, #31
10005ae6:	00ad      	lsls	r5, r5, #2
10005ae8:	0092      	lsls	r2, r2, #2
10005aea:	4019      	ands	r1, r3
10005aec:	1975      	adds	r5, r6, r5
10005aee:	18b2      	adds	r2, r6, r2
10005af0:	1c33      	adds	r3, r6, #0
10005af2:	2900      	cmp	r1, #0
10005af4:	d016      	beq.n	10005b24 <rshift+0x50>
10005af6:	1c13      	adds	r3, r2, #0
10005af8:	cb04      	ldmia	r3!, {r2}
10005afa:	2720      	movs	r7, #32
10005afc:	40ca      	lsrs	r2, r1
10005afe:	46b4      	mov	ip, r6
10005b00:	1a7f      	subs	r7, r7, r1
10005b02:	4664      	mov	r4, ip
10005b04:	42ab      	cmp	r3, r5
10005b06:	d208      	bcs.n	10005b1a <rshift+0x46>
10005b08:	681c      	ldr	r4, [r3, #0]
10005b0a:	40bc      	lsls	r4, r7
10005b0c:	4322      	orrs	r2, r4
10005b0e:	4664      	mov	r4, ip
10005b10:	c404      	stmia	r4!, {r2}
10005b12:	cb04      	ldmia	r3!, {r2}
10005b14:	46a4      	mov	ip, r4
10005b16:	40ca      	lsrs	r2, r1
10005b18:	e7f3      	b.n	10005b02 <rshift+0x2e>
10005b1a:	6022      	str	r2, [r4, #0]
10005b1c:	2a00      	cmp	r2, #0
10005b1e:	d007      	beq.n	10005b30 <rshift+0x5c>
10005b20:	3404      	adds	r4, #4
10005b22:	e005      	b.n	10005b30 <rshift+0x5c>
10005b24:	1c1c      	adds	r4, r3, #0
10005b26:	42aa      	cmp	r2, r5
10005b28:	d202      	bcs.n	10005b30 <rshift+0x5c>
10005b2a:	ca02      	ldmia	r2!, {r1}
10005b2c:	c302      	stmia	r3!, {r1}
10005b2e:	e7f9      	b.n	10005b24 <rshift+0x50>
10005b30:	1ba3      	subs	r3, r4, r6
10005b32:	109b      	asrs	r3, r3, #2
10005b34:	6103      	str	r3, [r0, #16]
10005b36:	d100      	bne.n	10005b3a <rshift+0x66>
10005b38:	6143      	str	r3, [r0, #20]
10005b3a:	bdf0      	pop	{r4, r5, r6, r7, pc}

10005b3c <__hexdig_fun>:
10005b3c:	1c03      	adds	r3, r0, #0
10005b3e:	3b30      	subs	r3, #48	; 0x30
10005b40:	2b09      	cmp	r3, #9
10005b42:	d801      	bhi.n	10005b48 <__hexdig_fun+0xc>
10005b44:	3820      	subs	r0, #32
10005b46:	e00b      	b.n	10005b60 <__hexdig_fun+0x24>
10005b48:	1c03      	adds	r3, r0, #0
10005b4a:	3b61      	subs	r3, #97	; 0x61
10005b4c:	2b05      	cmp	r3, #5
10005b4e:	d801      	bhi.n	10005b54 <__hexdig_fun+0x18>
10005b50:	3847      	subs	r0, #71	; 0x47
10005b52:	e005      	b.n	10005b60 <__hexdig_fun+0x24>
10005b54:	1c02      	adds	r2, r0, #0
10005b56:	3a41      	subs	r2, #65	; 0x41
10005b58:	2300      	movs	r3, #0
10005b5a:	2a05      	cmp	r2, #5
10005b5c:	d801      	bhi.n	10005b62 <__hexdig_fun+0x26>
10005b5e:	3827      	subs	r0, #39	; 0x27
10005b60:	b2c3      	uxtb	r3, r0
10005b62:	1c18      	adds	r0, r3, #0
10005b64:	4770      	bx	lr

10005b66 <__gethex>:
10005b66:	b5f0      	push	{r4, r5, r6, r7, lr}
10005b68:	b08d      	sub	sp, #52	; 0x34
10005b6a:	9109      	str	r1, [sp, #36]	; 0x24
10005b6c:	9202      	str	r2, [sp, #8]
10005b6e:	930a      	str	r3, [sp, #40]	; 0x28
10005b70:	9005      	str	r0, [sp, #20]
10005b72:	f000 fac7 	bl	10006104 <_localeconv_r>
10005b76:	6803      	ldr	r3, [r0, #0]
10005b78:	1c18      	adds	r0, r3, #0
10005b7a:	9307      	str	r3, [sp, #28]
10005b7c:	f7fe fa46 	bl	1000400c <strlen>
10005b80:	9b07      	ldr	r3, [sp, #28]
10005b82:	9004      	str	r0, [sp, #16]
10005b84:	181b      	adds	r3, r3, r0
10005b86:	3b01      	subs	r3, #1
10005b88:	781b      	ldrb	r3, [r3, #0]
10005b8a:	930b      	str	r3, [sp, #44]	; 0x2c
10005b8c:	9b09      	ldr	r3, [sp, #36]	; 0x24
10005b8e:	6819      	ldr	r1, [r3, #0]
10005b90:	1c8a      	adds	r2, r1, #2
10005b92:	9201      	str	r2, [sp, #4]
10005b94:	9801      	ldr	r0, [sp, #4]
10005b96:	1a53      	subs	r3, r2, r1
10005b98:	7800      	ldrb	r0, [r0, #0]
10005b9a:	3b02      	subs	r3, #2
10005b9c:	3201      	adds	r2, #1
10005b9e:	2830      	cmp	r0, #48	; 0x30
10005ba0:	d0f7      	beq.n	10005b92 <__gethex+0x2c>
10005ba2:	9308      	str	r3, [sp, #32]
10005ba4:	f7ff ffca 	bl	10005b3c <__hexdig_fun>
10005ba8:	1e06      	subs	r6, r0, #0
10005baa:	d120      	bne.n	10005bee <__gethex+0x88>
10005bac:	9801      	ldr	r0, [sp, #4]
10005bae:	9907      	ldr	r1, [sp, #28]
10005bb0:	9a04      	ldr	r2, [sp, #16]
10005bb2:	f001 f8d7 	bl	10006d64 <strncmp>
10005bb6:	2800      	cmp	r0, #0
10005bb8:	d13c      	bne.n	10005c34 <__gethex+0xce>
10005bba:	9b01      	ldr	r3, [sp, #4]
10005bbc:	9a04      	ldr	r2, [sp, #16]
10005bbe:	189c      	adds	r4, r3, r2
10005bc0:	7820      	ldrb	r0, [r4, #0]
10005bc2:	f7ff ffbb 	bl	10005b3c <__hexdig_fun>
10005bc6:	2800      	cmp	r0, #0
10005bc8:	d037      	beq.n	10005c3a <__gethex+0xd4>
10005bca:	9401      	str	r4, [sp, #4]
10005bcc:	9b01      	ldr	r3, [sp, #4]
10005bce:	7818      	ldrb	r0, [r3, #0]
10005bd0:	2830      	cmp	r0, #48	; 0x30
10005bd2:	d103      	bne.n	10005bdc <__gethex+0x76>
10005bd4:	9b01      	ldr	r3, [sp, #4]
10005bd6:	3301      	adds	r3, #1
10005bd8:	9301      	str	r3, [sp, #4]
10005bda:	e7f7      	b.n	10005bcc <__gethex+0x66>
10005bdc:	f7ff ffae 	bl	10005b3c <__hexdig_fun>
10005be0:	4243      	negs	r3, r0
10005be2:	4143      	adcs	r3, r0
10005be4:	9303      	str	r3, [sp, #12]
10005be6:	2301      	movs	r3, #1
10005be8:	1c26      	adds	r6, r4, #0
10005bea:	9308      	str	r3, [sp, #32]
10005bec:	e002      	b.n	10005bf4 <__gethex+0x8e>
10005bee:	2300      	movs	r3, #0
10005bf0:	1c1e      	adds	r6, r3, #0
10005bf2:	9303      	str	r3, [sp, #12]
10005bf4:	9c01      	ldr	r4, [sp, #4]
10005bf6:	7820      	ldrb	r0, [r4, #0]
10005bf8:	f7ff ffa0 	bl	10005b3c <__hexdig_fun>
10005bfc:	2800      	cmp	r0, #0
10005bfe:	d001      	beq.n	10005c04 <__gethex+0x9e>
10005c00:	3401      	adds	r4, #1
10005c02:	e7f8      	b.n	10005bf6 <__gethex+0x90>
10005c04:	1c20      	adds	r0, r4, #0
10005c06:	9907      	ldr	r1, [sp, #28]
10005c08:	9a04      	ldr	r2, [sp, #16]
10005c0a:	f001 f8ab 	bl	10006d64 <strncmp>
10005c0e:	2800      	cmp	r0, #0
10005c10:	d10b      	bne.n	10005c2a <__gethex+0xc4>
10005c12:	2e00      	cmp	r6, #0
10005c14:	d10b      	bne.n	10005c2e <__gethex+0xc8>
10005c16:	9b04      	ldr	r3, [sp, #16]
10005c18:	18e6      	adds	r6, r4, r3
10005c1a:	1c34      	adds	r4, r6, #0
10005c1c:	7820      	ldrb	r0, [r4, #0]
10005c1e:	f7ff ff8d 	bl	10005b3c <__hexdig_fun>
10005c22:	2800      	cmp	r0, #0
10005c24:	d001      	beq.n	10005c2a <__gethex+0xc4>
10005c26:	3401      	adds	r4, #1
10005c28:	e7f8      	b.n	10005c1c <__gethex+0xb6>
10005c2a:	1e37      	subs	r7, r6, #0
10005c2c:	d008      	beq.n	10005c40 <__gethex+0xda>
10005c2e:	1b36      	subs	r6, r6, r4
10005c30:	00b7      	lsls	r7, r6, #2
10005c32:	e005      	b.n	10005c40 <__gethex+0xda>
10005c34:	9c01      	ldr	r4, [sp, #4]
10005c36:	1c37      	adds	r7, r6, #0
10005c38:	e000      	b.n	10005c3c <__gethex+0xd6>
10005c3a:	1c07      	adds	r7, r0, #0
10005c3c:	2301      	movs	r3, #1
10005c3e:	9303      	str	r3, [sp, #12]
10005c40:	7823      	ldrb	r3, [r4, #0]
10005c42:	2b50      	cmp	r3, #80	; 0x50
10005c44:	d001      	beq.n	10005c4a <__gethex+0xe4>
10005c46:	2b70      	cmp	r3, #112	; 0x70
10005c48:	d128      	bne.n	10005c9c <__gethex+0x136>
10005c4a:	7863      	ldrb	r3, [r4, #1]
10005c4c:	2b2b      	cmp	r3, #43	; 0x2b
10005c4e:	d007      	beq.n	10005c60 <__gethex+0xfa>
10005c50:	2b2d      	cmp	r3, #45	; 0x2d
10005c52:	d003      	beq.n	10005c5c <__gethex+0xf6>
10005c54:	2300      	movs	r3, #0
10005c56:	1c65      	adds	r5, r4, #1
10005c58:	9306      	str	r3, [sp, #24]
10005c5a:	e004      	b.n	10005c66 <__gethex+0x100>
10005c5c:	2301      	movs	r3, #1
10005c5e:	e000      	b.n	10005c62 <__gethex+0xfc>
10005c60:	2300      	movs	r3, #0
10005c62:	9306      	str	r3, [sp, #24]
10005c64:	1ca5      	adds	r5, r4, #2
10005c66:	7828      	ldrb	r0, [r5, #0]
10005c68:	f7ff ff68 	bl	10005b3c <__hexdig_fun>
10005c6c:	1e43      	subs	r3, r0, #1
10005c6e:	b2db      	uxtb	r3, r3
10005c70:	2b18      	cmp	r3, #24
10005c72:	d813      	bhi.n	10005c9c <__gethex+0x136>
10005c74:	3810      	subs	r0, #16
10005c76:	3501      	adds	r5, #1
10005c78:	1c06      	adds	r6, r0, #0
10005c7a:	7828      	ldrb	r0, [r5, #0]
10005c7c:	f7ff ff5e 	bl	10005b3c <__hexdig_fun>
10005c80:	1e43      	subs	r3, r0, #1
10005c82:	b2db      	uxtb	r3, r3
10005c84:	2b18      	cmp	r3, #24
10005c86:	d803      	bhi.n	10005c90 <__gethex+0x12a>
10005c88:	230a      	movs	r3, #10
10005c8a:	435e      	muls	r6, r3
10005c8c:	1830      	adds	r0, r6, r0
10005c8e:	e7f1      	b.n	10005c74 <__gethex+0x10e>
10005c90:	9b06      	ldr	r3, [sp, #24]
10005c92:	2b00      	cmp	r3, #0
10005c94:	d000      	beq.n	10005c98 <__gethex+0x132>
10005c96:	4276      	negs	r6, r6
10005c98:	19bf      	adds	r7, r7, r6
10005c9a:	e000      	b.n	10005c9e <__gethex+0x138>
10005c9c:	1c25      	adds	r5, r4, #0
10005c9e:	9b09      	ldr	r3, [sp, #36]	; 0x24
10005ca0:	601d      	str	r5, [r3, #0]
10005ca2:	9b03      	ldr	r3, [sp, #12]
10005ca4:	2b00      	cmp	r3, #0
10005ca6:	d006      	beq.n	10005cb6 <__gethex+0x150>
10005ca8:	2000      	movs	r0, #0
10005caa:	9b08      	ldr	r3, [sp, #32]
10005cac:	4283      	cmp	r3, r0
10005cae:	d000      	beq.n	10005cb2 <__gethex+0x14c>
10005cb0:	e17b      	b.n	10005faa <__gethex+0x444>
10005cb2:	3006      	adds	r0, #6
10005cb4:	e179      	b.n	10005faa <__gethex+0x444>
10005cb6:	9b01      	ldr	r3, [sp, #4]
10005cb8:	9903      	ldr	r1, [sp, #12]
10005cba:	1ae3      	subs	r3, r4, r3
10005cbc:	3b01      	subs	r3, #1
10005cbe:	2b07      	cmp	r3, #7
10005cc0:	dd02      	ble.n	10005cc8 <__gethex+0x162>
10005cc2:	3101      	adds	r1, #1
10005cc4:	105b      	asrs	r3, r3, #1
10005cc6:	e7fa      	b.n	10005cbe <__gethex+0x158>
10005cc8:	9805      	ldr	r0, [sp, #20]
10005cca:	f000 fa34 	bl	10006136 <_Balloc>
10005cce:	1c03      	adds	r3, r0, #0
10005cd0:	2600      	movs	r6, #0
10005cd2:	1c05      	adds	r5, r0, #0
10005cd4:	3314      	adds	r3, #20
10005cd6:	9303      	str	r3, [sp, #12]
10005cd8:	9308      	str	r3, [sp, #32]
10005cda:	9606      	str	r6, [sp, #24]
10005cdc:	9b01      	ldr	r3, [sp, #4]
10005cde:	429c      	cmp	r4, r3
10005ce0:	d92a      	bls.n	10005d38 <__gethex+0x1d2>
10005ce2:	1e63      	subs	r3, r4, #1
10005ce4:	9309      	str	r3, [sp, #36]	; 0x24
10005ce6:	9a0b      	ldr	r2, [sp, #44]	; 0x2c
10005ce8:	781b      	ldrb	r3, [r3, #0]
10005cea:	4293      	cmp	r3, r2
10005cec:	d009      	beq.n	10005d02 <__gethex+0x19c>
10005cee:	9b06      	ldr	r3, [sp, #24]
10005cf0:	2b20      	cmp	r3, #32
10005cf2:	d114      	bne.n	10005d1e <__gethex+0x1b8>
10005cf4:	9b08      	ldr	r3, [sp, #32]
10005cf6:	601e      	str	r6, [r3, #0]
10005cf8:	2600      	movs	r6, #0
10005cfa:	3304      	adds	r3, #4
10005cfc:	9308      	str	r3, [sp, #32]
10005cfe:	9606      	str	r6, [sp, #24]
10005d00:	e00d      	b.n	10005d1e <__gethex+0x1b8>
10005d02:	9b09      	ldr	r3, [sp, #36]	; 0x24
10005d04:	9a04      	ldr	r2, [sp, #16]
10005d06:	1a9c      	subs	r4, r3, r2
10005d08:	9b01      	ldr	r3, [sp, #4]
10005d0a:	3401      	adds	r4, #1
10005d0c:	429c      	cmp	r4, r3
10005d0e:	d3ee      	bcc.n	10005cee <__gethex+0x188>
10005d10:	1c20      	adds	r0, r4, #0
10005d12:	9907      	ldr	r1, [sp, #28]
10005d14:	f001 f826 	bl	10006d64 <strncmp>
10005d18:	2800      	cmp	r0, #0
10005d1a:	d0df      	beq.n	10005cdc <__gethex+0x176>
10005d1c:	e7e7      	b.n	10005cee <__gethex+0x188>
10005d1e:	9b09      	ldr	r3, [sp, #36]	; 0x24
10005d20:	7818      	ldrb	r0, [r3, #0]
10005d22:	f7ff ff0b 	bl	10005b3c <__hexdig_fun>
10005d26:	230f      	movs	r3, #15
10005d28:	4018      	ands	r0, r3
10005d2a:	9b06      	ldr	r3, [sp, #24]
10005d2c:	9c09      	ldr	r4, [sp, #36]	; 0x24
10005d2e:	4098      	lsls	r0, r3
10005d30:	3304      	adds	r3, #4
10005d32:	4306      	orrs	r6, r0
10005d34:	9306      	str	r3, [sp, #24]
10005d36:	e7d1      	b.n	10005cdc <__gethex+0x176>
10005d38:	9c08      	ldr	r4, [sp, #32]
10005d3a:	9b03      	ldr	r3, [sp, #12]
10005d3c:	c440      	stmia	r4!, {r6}
10005d3e:	1ae4      	subs	r4, r4, r3
10005d40:	10a4      	asrs	r4, r4, #2
10005d42:	612c      	str	r4, [r5, #16]
10005d44:	1c30      	adds	r0, r6, #0
10005d46:	f000 fac3 	bl	100062d0 <__hi0bits>
10005d4a:	9b02      	ldr	r3, [sp, #8]
10005d4c:	0164      	lsls	r4, r4, #5
10005d4e:	681b      	ldr	r3, [r3, #0]
10005d50:	1a26      	subs	r6, r4, r0
10005d52:	9301      	str	r3, [sp, #4]
10005d54:	429e      	cmp	r6, r3
10005d56:	dd25      	ble.n	10005da4 <__gethex+0x23e>
10005d58:	1af6      	subs	r6, r6, r3
10005d5a:	1c28      	adds	r0, r5, #0
10005d5c:	1c31      	adds	r1, r6, #0
10005d5e:	f000 fdcb 	bl	100068f8 <__any_on>
10005d62:	2400      	movs	r4, #0
10005d64:	42a0      	cmp	r0, r4
10005d66:	d017      	beq.n	10005d98 <__gethex+0x232>
10005d68:	231f      	movs	r3, #31
10005d6a:	3401      	adds	r4, #1
10005d6c:	1c20      	adds	r0, r4, #0
10005d6e:	1e72      	subs	r2, r6, #1
10005d70:	4013      	ands	r3, r2
10005d72:	4098      	lsls	r0, r3
10005d74:	1c03      	adds	r3, r0, #0
10005d76:	1151      	asrs	r1, r2, #5
10005d78:	9803      	ldr	r0, [sp, #12]
10005d7a:	0089      	lsls	r1, r1, #2
10005d7c:	5809      	ldr	r1, [r1, r0]
10005d7e:	4219      	tst	r1, r3
10005d80:	d00a      	beq.n	10005d98 <__gethex+0x232>
10005d82:	42a2      	cmp	r2, r4
10005d84:	dc01      	bgt.n	10005d8a <__gethex+0x224>
10005d86:	2402      	movs	r4, #2
10005d88:	e006      	b.n	10005d98 <__gethex+0x232>
10005d8a:	1eb1      	subs	r1, r6, #2
10005d8c:	1c28      	adds	r0, r5, #0
10005d8e:	f000 fdb3 	bl	100068f8 <__any_on>
10005d92:	2800      	cmp	r0, #0
10005d94:	d0f7      	beq.n	10005d86 <__gethex+0x220>
10005d96:	2403      	movs	r4, #3
10005d98:	1c28      	adds	r0, r5, #0
10005d9a:	1c31      	adds	r1, r6, #0
10005d9c:	f7ff fe9a 	bl	10005ad4 <rshift>
10005da0:	19bf      	adds	r7, r7, r6
10005da2:	e00e      	b.n	10005dc2 <__gethex+0x25c>
10005da4:	9b01      	ldr	r3, [sp, #4]
10005da6:	2400      	movs	r4, #0
10005da8:	429e      	cmp	r6, r3
10005daa:	da0a      	bge.n	10005dc2 <__gethex+0x25c>
10005dac:	1b9e      	subs	r6, r3, r6
10005dae:	1c29      	adds	r1, r5, #0
10005db0:	9805      	ldr	r0, [sp, #20]
10005db2:	1c32      	adds	r2, r6, #0
10005db4:	f000 fbbe 	bl	10006534 <__lshift>
10005db8:	1c03      	adds	r3, r0, #0
10005dba:	1c05      	adds	r5, r0, #0
10005dbc:	3314      	adds	r3, #20
10005dbe:	1bbf      	subs	r7, r7, r6
10005dc0:	9303      	str	r3, [sp, #12]
10005dc2:	9b02      	ldr	r3, [sp, #8]
10005dc4:	689b      	ldr	r3, [r3, #8]
10005dc6:	9304      	str	r3, [sp, #16]
10005dc8:	429f      	cmp	r7, r3
10005dca:	dd08      	ble.n	10005dde <__gethex+0x278>
10005dcc:	9805      	ldr	r0, [sp, #20]
10005dce:	1c29      	adds	r1, r5, #0
10005dd0:	f000 f9e9 	bl	100061a6 <_Bfree>
10005dd4:	2300      	movs	r3, #0
10005dd6:	9a12      	ldr	r2, [sp, #72]	; 0x48
10005dd8:	20a3      	movs	r0, #163	; 0xa3
10005dda:	6013      	str	r3, [r2, #0]
10005ddc:	e0e5      	b.n	10005faa <__gethex+0x444>
10005dde:	9b02      	ldr	r3, [sp, #8]
10005de0:	685e      	ldr	r6, [r3, #4]
10005de2:	42b7      	cmp	r7, r6
10005de4:	da5a      	bge.n	10005e9c <__gethex+0x336>
10005de6:	9b01      	ldr	r3, [sp, #4]
10005de8:	1bf6      	subs	r6, r6, r7
10005dea:	429e      	cmp	r6, r3
10005dec:	db32      	blt.n	10005e54 <__gethex+0x2ee>
10005dee:	9b02      	ldr	r3, [sp, #8]
10005df0:	68db      	ldr	r3, [r3, #12]
10005df2:	2b02      	cmp	r3, #2
10005df4:	d01e      	beq.n	10005e34 <__gethex+0x2ce>
10005df6:	2b03      	cmp	r3, #3
10005df8:	d020      	beq.n	10005e3c <__gethex+0x2d6>
10005dfa:	2b01      	cmp	r3, #1
10005dfc:	d121      	bne.n	10005e42 <__gethex+0x2dc>
10005dfe:	9b01      	ldr	r3, [sp, #4]
10005e00:	429e      	cmp	r6, r3
10005e02:	d11e      	bne.n	10005e42 <__gethex+0x2dc>
10005e04:	2b01      	cmp	r3, #1
10005e06:	dc0d      	bgt.n	10005e24 <__gethex+0x2be>
10005e08:	9b02      	ldr	r3, [sp, #8]
10005e0a:	2062      	movs	r0, #98	; 0x62
10005e0c:	685b      	ldr	r3, [r3, #4]
10005e0e:	9301      	str	r3, [sp, #4]
10005e10:	9a01      	ldr	r2, [sp, #4]
10005e12:	9b0a      	ldr	r3, [sp, #40]	; 0x28
10005e14:	601a      	str	r2, [r3, #0]
10005e16:	2301      	movs	r3, #1
10005e18:	9a03      	ldr	r2, [sp, #12]
10005e1a:	612b      	str	r3, [r5, #16]
10005e1c:	6013      	str	r3, [r2, #0]
10005e1e:	9b12      	ldr	r3, [sp, #72]	; 0x48
10005e20:	601d      	str	r5, [r3, #0]
10005e22:	e0c2      	b.n	10005faa <__gethex+0x444>
10005e24:	9901      	ldr	r1, [sp, #4]
10005e26:	1c28      	adds	r0, r5, #0
10005e28:	3901      	subs	r1, #1
10005e2a:	f000 fd65 	bl	100068f8 <__any_on>
10005e2e:	2800      	cmp	r0, #0
10005e30:	d1ea      	bne.n	10005e08 <__gethex+0x2a2>
10005e32:	e006      	b.n	10005e42 <__gethex+0x2dc>
10005e34:	9b13      	ldr	r3, [sp, #76]	; 0x4c
10005e36:	2b00      	cmp	r3, #0
10005e38:	d0e6      	beq.n	10005e08 <__gethex+0x2a2>
10005e3a:	e002      	b.n	10005e42 <__gethex+0x2dc>
10005e3c:	9b13      	ldr	r3, [sp, #76]	; 0x4c
10005e3e:	2b00      	cmp	r3, #0
10005e40:	d1e2      	bne.n	10005e08 <__gethex+0x2a2>
10005e42:	9805      	ldr	r0, [sp, #20]
10005e44:	1c29      	adds	r1, r5, #0
10005e46:	f000 f9ae 	bl	100061a6 <_Bfree>
10005e4a:	2300      	movs	r3, #0
10005e4c:	9a12      	ldr	r2, [sp, #72]	; 0x48
10005e4e:	2050      	movs	r0, #80	; 0x50
10005e50:	6013      	str	r3, [r2, #0]
10005e52:	e0aa      	b.n	10005faa <__gethex+0x444>
10005e54:	1e77      	subs	r7, r6, #1
10005e56:	2c00      	cmp	r4, #0
10005e58:	d107      	bne.n	10005e6a <__gethex+0x304>
10005e5a:	2f00      	cmp	r7, #0
10005e5c:	dd06      	ble.n	10005e6c <__gethex+0x306>
10005e5e:	1c28      	adds	r0, r5, #0
10005e60:	1c39      	adds	r1, r7, #0
10005e62:	f000 fd49 	bl	100068f8 <__any_on>
10005e66:	1c04      	adds	r4, r0, #0
10005e68:	e000      	b.n	10005e6c <__gethex+0x306>
10005e6a:	2401      	movs	r4, #1
10005e6c:	231f      	movs	r3, #31
10005e6e:	117a      	asrs	r2, r7, #5
10005e70:	401f      	ands	r7, r3
10005e72:	3b1e      	subs	r3, #30
10005e74:	40bb      	lsls	r3, r7
10005e76:	1c1f      	adds	r7, r3, #0
10005e78:	9b03      	ldr	r3, [sp, #12]
10005e7a:	0092      	lsls	r2, r2, #2
10005e7c:	58d3      	ldr	r3, [r2, r3]
10005e7e:	423b      	tst	r3, r7
10005e80:	d001      	beq.n	10005e86 <__gethex+0x320>
10005e82:	2302      	movs	r3, #2
10005e84:	431c      	orrs	r4, r3
10005e86:	9b01      	ldr	r3, [sp, #4]
10005e88:	1c31      	adds	r1, r6, #0
10005e8a:	1b9b      	subs	r3, r3, r6
10005e8c:	1c28      	adds	r0, r5, #0
10005e8e:	9301      	str	r3, [sp, #4]
10005e90:	f7ff fe20 	bl	10005ad4 <rshift>
10005e94:	9b02      	ldr	r3, [sp, #8]
10005e96:	2602      	movs	r6, #2
10005e98:	685f      	ldr	r7, [r3, #4]
10005e9a:	e000      	b.n	10005e9e <__gethex+0x338>
10005e9c:	2601      	movs	r6, #1
10005e9e:	2c00      	cmp	r4, #0
10005ea0:	d07e      	beq.n	10005fa0 <__gethex+0x43a>
10005ea2:	9b02      	ldr	r3, [sp, #8]
10005ea4:	68db      	ldr	r3, [r3, #12]
10005ea6:	2b02      	cmp	r3, #2
10005ea8:	d00b      	beq.n	10005ec2 <__gethex+0x35c>
10005eaa:	2b03      	cmp	r3, #3
10005eac:	d00d      	beq.n	10005eca <__gethex+0x364>
10005eae:	2b01      	cmp	r3, #1
10005eb0:	d174      	bne.n	10005f9c <__gethex+0x436>
10005eb2:	07a2      	lsls	r2, r4, #30
10005eb4:	d572      	bpl.n	10005f9c <__gethex+0x436>
10005eb6:	9a03      	ldr	r2, [sp, #12]
10005eb8:	6812      	ldr	r2, [r2, #0]
10005eba:	4314      	orrs	r4, r2
10005ebc:	421c      	tst	r4, r3
10005ebe:	d107      	bne.n	10005ed0 <__gethex+0x36a>
10005ec0:	e06c      	b.n	10005f9c <__gethex+0x436>
10005ec2:	2301      	movs	r3, #1
10005ec4:	9a13      	ldr	r2, [sp, #76]	; 0x4c
10005ec6:	1a9b      	subs	r3, r3, r2
10005ec8:	9313      	str	r3, [sp, #76]	; 0x4c
10005eca:	9b13      	ldr	r3, [sp, #76]	; 0x4c
10005ecc:	2b00      	cmp	r3, #0
10005ece:	d065      	beq.n	10005f9c <__gethex+0x436>
10005ed0:	692c      	ldr	r4, [r5, #16]
10005ed2:	00a3      	lsls	r3, r4, #2
10005ed4:	9303      	str	r3, [sp, #12]
10005ed6:	1c2b      	adds	r3, r5, #0
10005ed8:	9a03      	ldr	r2, [sp, #12]
10005eda:	3314      	adds	r3, #20
10005edc:	1899      	adds	r1, r3, r2
10005ede:	681a      	ldr	r2, [r3, #0]
10005ee0:	1c50      	adds	r0, r2, #1
10005ee2:	d002      	beq.n	10005eea <__gethex+0x384>
10005ee4:	3201      	adds	r2, #1
10005ee6:	601a      	str	r2, [r3, #0]
10005ee8:	e021      	b.n	10005f2e <__gethex+0x3c8>
10005eea:	2200      	movs	r2, #0
10005eec:	c304      	stmia	r3!, {r2}
10005eee:	4299      	cmp	r1, r3
10005ef0:	d8f5      	bhi.n	10005ede <__gethex+0x378>
10005ef2:	68ab      	ldr	r3, [r5, #8]
10005ef4:	429c      	cmp	r4, r3
10005ef6:	db12      	blt.n	10005f1e <__gethex+0x3b8>
10005ef8:	686b      	ldr	r3, [r5, #4]
10005efa:	9805      	ldr	r0, [sp, #20]
10005efc:	1c59      	adds	r1, r3, #1
10005efe:	f000 f91a 	bl	10006136 <_Balloc>
10005f02:	1c29      	adds	r1, r5, #0
10005f04:	692b      	ldr	r3, [r5, #16]
10005f06:	9004      	str	r0, [sp, #16]
10005f08:	1c9a      	adds	r2, r3, #2
10005f0a:	310c      	adds	r1, #12
10005f0c:	0092      	lsls	r2, r2, #2
10005f0e:	300c      	adds	r0, #12
10005f10:	f7fd f9e0 	bl	100032d4 <memcpy>
10005f14:	1c29      	adds	r1, r5, #0
10005f16:	9805      	ldr	r0, [sp, #20]
10005f18:	f000 f945 	bl	100061a6 <_Bfree>
10005f1c:	9d04      	ldr	r5, [sp, #16]
10005f1e:	692b      	ldr	r3, [r5, #16]
10005f20:	1c5a      	adds	r2, r3, #1
10005f22:	612a      	str	r2, [r5, #16]
10005f24:	2201      	movs	r2, #1
10005f26:	3304      	adds	r3, #4
10005f28:	009b      	lsls	r3, r3, #2
10005f2a:	18eb      	adds	r3, r5, r3
10005f2c:	605a      	str	r2, [r3, #4]
10005f2e:	1c2b      	adds	r3, r5, #0
10005f30:	3314      	adds	r3, #20
10005f32:	2e02      	cmp	r6, #2
10005f34:	d111      	bne.n	10005f5a <__gethex+0x3f4>
10005f36:	9a02      	ldr	r2, [sp, #8]
10005f38:	9901      	ldr	r1, [sp, #4]
10005f3a:	6812      	ldr	r2, [r2, #0]
10005f3c:	3a01      	subs	r2, #1
10005f3e:	4291      	cmp	r1, r2
10005f40:	d12a      	bne.n	10005f98 <__gethex+0x432>
10005f42:	114a      	asrs	r2, r1, #5
10005f44:	211f      	movs	r1, #31
10005f46:	9801      	ldr	r0, [sp, #4]
10005f48:	0092      	lsls	r2, r2, #2
10005f4a:	4001      	ands	r1, r0
10005f4c:	2001      	movs	r0, #1
10005f4e:	1c04      	adds	r4, r0, #0
10005f50:	408c      	lsls	r4, r1
10005f52:	58d3      	ldr	r3, [r2, r3]
10005f54:	4223      	tst	r3, r4
10005f56:	d01f      	beq.n	10005f98 <__gethex+0x432>
10005f58:	e00c      	b.n	10005f74 <__gethex+0x40e>
10005f5a:	692a      	ldr	r2, [r5, #16]
10005f5c:	42a2      	cmp	r2, r4
10005f5e:	dd0b      	ble.n	10005f78 <__gethex+0x412>
10005f60:	1c28      	adds	r0, r5, #0
10005f62:	2101      	movs	r1, #1
10005f64:	f7ff fdb6 	bl	10005ad4 <rshift>
10005f68:	9b02      	ldr	r3, [sp, #8]
10005f6a:	3701      	adds	r7, #1
10005f6c:	689b      	ldr	r3, [r3, #8]
10005f6e:	429f      	cmp	r7, r3
10005f70:	dd00      	ble.n	10005f74 <__gethex+0x40e>
10005f72:	e72b      	b.n	10005dcc <__gethex+0x266>
10005f74:	2601      	movs	r6, #1
10005f76:	e00f      	b.n	10005f98 <__gethex+0x432>
10005f78:	241f      	movs	r4, #31
10005f7a:	9a01      	ldr	r2, [sp, #4]
10005f7c:	2601      	movs	r6, #1
10005f7e:	4022      	ands	r2, r4
10005f80:	1e14      	subs	r4, r2, #0
10005f82:	d009      	beq.n	10005f98 <__gethex+0x432>
10005f84:	9a03      	ldr	r2, [sp, #12]
10005f86:	189b      	adds	r3, r3, r2
10005f88:	3b04      	subs	r3, #4
10005f8a:	6818      	ldr	r0, [r3, #0]
10005f8c:	f000 f9a0 	bl	100062d0 <__hi0bits>
10005f90:	2120      	movs	r1, #32
10005f92:	1b0c      	subs	r4, r1, r4
10005f94:	42a0      	cmp	r0, r4
10005f96:	dbe3      	blt.n	10005f60 <__gethex+0x3fa>
10005f98:	2320      	movs	r3, #32
10005f9a:	e000      	b.n	10005f9e <__gethex+0x438>
10005f9c:	2310      	movs	r3, #16
10005f9e:	431e      	orrs	r6, r3
10005fa0:	1c30      	adds	r0, r6, #0
10005fa2:	9b12      	ldr	r3, [sp, #72]	; 0x48
10005fa4:	601d      	str	r5, [r3, #0]
10005fa6:	9b0a      	ldr	r3, [sp, #40]	; 0x28
10005fa8:	601f      	str	r7, [r3, #0]
10005faa:	b00d      	add	sp, #52	; 0x34
10005fac:	bdf0      	pop	{r4, r5, r6, r7, pc}

10005fae <L_shift>:
10005fae:	2308      	movs	r3, #8
10005fb0:	b570      	push	{r4, r5, r6, lr}
10005fb2:	2520      	movs	r5, #32
10005fb4:	1a9a      	subs	r2, r3, r2
10005fb6:	0092      	lsls	r2, r2, #2
10005fb8:	1aad      	subs	r5, r5, r2
10005fba:	6843      	ldr	r3, [r0, #4]
10005fbc:	6806      	ldr	r6, [r0, #0]
10005fbe:	1c1c      	adds	r4, r3, #0
10005fc0:	40ac      	lsls	r4, r5
10005fc2:	40d3      	lsrs	r3, r2
10005fc4:	4334      	orrs	r4, r6
10005fc6:	6004      	str	r4, [r0, #0]
10005fc8:	6043      	str	r3, [r0, #4]
10005fca:	3004      	adds	r0, #4
10005fcc:	4288      	cmp	r0, r1
10005fce:	d3f4      	bcc.n	10005fba <L_shift+0xc>
10005fd0:	bd70      	pop	{r4, r5, r6, pc}

10005fd2 <__hexnan>:
10005fd2:	b5f0      	push	{r4, r5, r6, r7, lr}
10005fd4:	b089      	sub	sp, #36	; 0x24
10005fd6:	9200      	str	r2, [sp, #0]
10005fd8:	680a      	ldr	r2, [r1, #0]
10005fda:	9900      	ldr	r1, [sp, #0]
10005fdc:	1153      	asrs	r3, r2, #5
10005fde:	009b      	lsls	r3, r3, #2
10005fe0:	18cb      	adds	r3, r1, r3
10005fe2:	9302      	str	r3, [sp, #8]
10005fe4:	231f      	movs	r3, #31
10005fe6:	401a      	ands	r2, r3
10005fe8:	9007      	str	r0, [sp, #28]
10005fea:	9205      	str	r2, [sp, #20]
10005fec:	d002      	beq.n	10005ff4 <__hexnan+0x22>
10005fee:	9b02      	ldr	r3, [sp, #8]
10005ff0:	3304      	adds	r3, #4
10005ff2:	9302      	str	r3, [sp, #8]
10005ff4:	9b02      	ldr	r3, [sp, #8]
10005ff6:	2500      	movs	r5, #0
10005ff8:	1f1e      	subs	r6, r3, #4
10005ffa:	1c37      	adds	r7, r6, #0
10005ffc:	1c34      	adds	r4, r6, #0
10005ffe:	9b07      	ldr	r3, [sp, #28]
10006000:	6035      	str	r5, [r6, #0]
10006002:	681b      	ldr	r3, [r3, #0]
10006004:	9506      	str	r5, [sp, #24]
10006006:	9303      	str	r3, [sp, #12]
10006008:	9501      	str	r5, [sp, #4]
1000600a:	9b03      	ldr	r3, [sp, #12]
1000600c:	3301      	adds	r3, #1
1000600e:	9303      	str	r3, [sp, #12]
10006010:	781b      	ldrb	r3, [r3, #0]
10006012:	9304      	str	r3, [sp, #16]
10006014:	2b00      	cmp	r3, #0
10006016:	d03b      	beq.n	10006090 <__hexnan+0xbe>
10006018:	9804      	ldr	r0, [sp, #16]
1000601a:	f7ff fd8f 	bl	10005b3c <__hexdig_fun>
1000601e:	2800      	cmp	r0, #0
10006020:	d122      	bne.n	10006068 <__hexnan+0x96>
10006022:	9b04      	ldr	r3, [sp, #16]
10006024:	2b20      	cmp	r3, #32
10006026:	d817      	bhi.n	10006058 <__hexnan+0x86>
10006028:	9b06      	ldr	r3, [sp, #24]
1000602a:	9a01      	ldr	r2, [sp, #4]
1000602c:	4293      	cmp	r3, r2
1000602e:	daec      	bge.n	1000600a <__hexnan+0x38>
10006030:	42bc      	cmp	r4, r7
10006032:	d206      	bcs.n	10006042 <__hexnan+0x70>
10006034:	2d07      	cmp	r5, #7
10006036:	dc04      	bgt.n	10006042 <__hexnan+0x70>
10006038:	1c20      	adds	r0, r4, #0
1000603a:	1c39      	adds	r1, r7, #0
1000603c:	1c2a      	adds	r2, r5, #0
1000603e:	f7ff ffb6 	bl	10005fae <L_shift>
10006042:	9b00      	ldr	r3, [sp, #0]
10006044:	2508      	movs	r5, #8
10006046:	429c      	cmp	r4, r3
10006048:	d9df      	bls.n	1000600a <__hexnan+0x38>
1000604a:	2500      	movs	r5, #0
1000604c:	9b01      	ldr	r3, [sp, #4]
1000604e:	1f27      	subs	r7, r4, #4
10006050:	603d      	str	r5, [r7, #0]
10006052:	9306      	str	r3, [sp, #24]
10006054:	1c3c      	adds	r4, r7, #0
10006056:	e7d8      	b.n	1000600a <__hexnan+0x38>
10006058:	9b04      	ldr	r3, [sp, #16]
1000605a:	2b29      	cmp	r3, #41	; 0x29
1000605c:	d14c      	bne.n	100060f8 <__hexnan+0x126>
1000605e:	9b03      	ldr	r3, [sp, #12]
10006060:	9a07      	ldr	r2, [sp, #28]
10006062:	3301      	adds	r3, #1
10006064:	6013      	str	r3, [r2, #0]
10006066:	e013      	b.n	10006090 <__hexnan+0xbe>
10006068:	9b01      	ldr	r3, [sp, #4]
1000606a:	3501      	adds	r5, #1
1000606c:	3301      	adds	r3, #1
1000606e:	9301      	str	r3, [sp, #4]
10006070:	2d08      	cmp	r5, #8
10006072:	dd06      	ble.n	10006082 <__hexnan+0xb0>
10006074:	9b00      	ldr	r3, [sp, #0]
10006076:	429c      	cmp	r4, r3
10006078:	d9c7      	bls.n	1000600a <__hexnan+0x38>
1000607a:	2300      	movs	r3, #0
1000607c:	2501      	movs	r5, #1
1000607e:	3c04      	subs	r4, #4
10006080:	6023      	str	r3, [r4, #0]
10006082:	6823      	ldr	r3, [r4, #0]
10006084:	011a      	lsls	r2, r3, #4
10006086:	230f      	movs	r3, #15
10006088:	4018      	ands	r0, r3
1000608a:	4310      	orrs	r0, r2
1000608c:	6020      	str	r0, [r4, #0]
1000608e:	e7bc      	b.n	1000600a <__hexnan+0x38>
10006090:	9b01      	ldr	r3, [sp, #4]
10006092:	2b00      	cmp	r3, #0
10006094:	d030      	beq.n	100060f8 <__hexnan+0x126>
10006096:	42bc      	cmp	r4, r7
10006098:	d206      	bcs.n	100060a8 <__hexnan+0xd6>
1000609a:	2d07      	cmp	r5, #7
1000609c:	dc04      	bgt.n	100060a8 <__hexnan+0xd6>
1000609e:	1c20      	adds	r0, r4, #0
100060a0:	1c39      	adds	r1, r7, #0
100060a2:	1c2a      	adds	r2, r5, #0
100060a4:	f7ff ff83 	bl	10005fae <L_shift>
100060a8:	9b00      	ldr	r3, [sp, #0]
100060aa:	429c      	cmp	r4, r3
100060ac:	d90a      	bls.n	100060c4 <__hexnan+0xf2>
100060ae:	3304      	adds	r3, #4
100060b0:	cc02      	ldmia	r4!, {r1}
100060b2:	1f1a      	subs	r2, r3, #4
100060b4:	6011      	str	r1, [r2, #0]
100060b6:	42a6      	cmp	r6, r4
100060b8:	d2f9      	bcs.n	100060ae <__hexnan+0xdc>
100060ba:	2200      	movs	r2, #0
100060bc:	c304      	stmia	r3!, {r2}
100060be:	429e      	cmp	r6, r3
100060c0:	d2fb      	bcs.n	100060ba <__hexnan+0xe8>
100060c2:	e00e      	b.n	100060e2 <__hexnan+0x110>
100060c4:	9b05      	ldr	r3, [sp, #20]
100060c6:	2b00      	cmp	r3, #0
100060c8:	d00b      	beq.n	100060e2 <__hexnan+0x110>
100060ca:	2220      	movs	r2, #32
100060cc:	9905      	ldr	r1, [sp, #20]
100060ce:	9b02      	ldr	r3, [sp, #8]
100060d0:	1a52      	subs	r2, r2, r1
100060d2:	2101      	movs	r1, #1
100060d4:	4249      	negs	r1, r1
100060d6:	40d1      	lsrs	r1, r2
100060d8:	1c0a      	adds	r2, r1, #0
100060da:	3b04      	subs	r3, #4
100060dc:	6819      	ldr	r1, [r3, #0]
100060de:	400a      	ands	r2, r1
100060e0:	601a      	str	r2, [r3, #0]
100060e2:	6833      	ldr	r3, [r6, #0]
100060e4:	2b00      	cmp	r3, #0
100060e6:	d109      	bne.n	100060fc <__hexnan+0x12a>
100060e8:	9b00      	ldr	r3, [sp, #0]
100060ea:	429e      	cmp	r6, r3
100060ec:	d102      	bne.n	100060f4 <__hexnan+0x122>
100060ee:	2301      	movs	r3, #1
100060f0:	6033      	str	r3, [r6, #0]
100060f2:	e003      	b.n	100060fc <__hexnan+0x12a>
100060f4:	3e04      	subs	r6, #4
100060f6:	e7f4      	b.n	100060e2 <__hexnan+0x110>
100060f8:	2004      	movs	r0, #4
100060fa:	e000      	b.n	100060fe <__hexnan+0x12c>
100060fc:	2005      	movs	r0, #5
100060fe:	b009      	add	sp, #36	; 0x24
10006100:	bdf0      	pop	{r4, r5, r6, r7, pc}
	...

10006104 <_localeconv_r>:
10006104:	4800      	ldr	r0, [pc, #0]	; (10006108 <_localeconv_r+0x4>)
10006106:	4770      	bx	lr
10006108:	20000b14 	.word	0x20000b14

1000610c <malloc>:
1000610c:	b508      	push	{r3, lr}
1000610e:	4b03      	ldr	r3, [pc, #12]	; (1000611c <malloc+0x10>)
10006110:	1c01      	adds	r1, r0, #0
10006112:	6818      	ldr	r0, [r3, #0]
10006114:	f000 fc66 	bl	100069e4 <_malloc_r>
10006118:	bd08      	pop	{r3, pc}
1000611a:	46c0      	nop			; (mov r8, r8)
1000611c:	20000b0c 	.word	0x20000b0c

10006120 <memchr>:
10006120:	b2c9      	uxtb	r1, r1
10006122:	1882      	adds	r2, r0, r2
10006124:	4290      	cmp	r0, r2
10006126:	d004      	beq.n	10006132 <memchr+0x12>
10006128:	7803      	ldrb	r3, [r0, #0]
1000612a:	428b      	cmp	r3, r1
1000612c:	d002      	beq.n	10006134 <memchr+0x14>
1000612e:	3001      	adds	r0, #1
10006130:	e7f8      	b.n	10006124 <memchr+0x4>
10006132:	2000      	movs	r0, #0
10006134:	4770      	bx	lr

10006136 <_Balloc>:
10006136:	b570      	push	{r4, r5, r6, lr}
10006138:	6a46      	ldr	r6, [r0, #36]	; 0x24
1000613a:	1c04      	adds	r4, r0, #0
1000613c:	1c0d      	adds	r5, r1, #0
1000613e:	2e00      	cmp	r6, #0
10006140:	d107      	bne.n	10006152 <_Balloc+0x1c>
10006142:	2010      	movs	r0, #16
10006144:	f7ff ffe2 	bl	1000610c <malloc>
10006148:	6260      	str	r0, [r4, #36]	; 0x24
1000614a:	6046      	str	r6, [r0, #4]
1000614c:	6086      	str	r6, [r0, #8]
1000614e:	6006      	str	r6, [r0, #0]
10006150:	60c6      	str	r6, [r0, #12]
10006152:	6a66      	ldr	r6, [r4, #36]	; 0x24
10006154:	68f3      	ldr	r3, [r6, #12]
10006156:	2b00      	cmp	r3, #0
10006158:	d009      	beq.n	1000616e <_Balloc+0x38>
1000615a:	6a62      	ldr	r2, [r4, #36]	; 0x24
1000615c:	00ab      	lsls	r3, r5, #2
1000615e:	68d2      	ldr	r2, [r2, #12]
10006160:	18d3      	adds	r3, r2, r3
10006162:	6818      	ldr	r0, [r3, #0]
10006164:	2800      	cmp	r0, #0
10006166:	d00e      	beq.n	10006186 <_Balloc+0x50>
10006168:	6802      	ldr	r2, [r0, #0]
1000616a:	601a      	str	r2, [r3, #0]
1000616c:	e017      	b.n	1000619e <_Balloc+0x68>
1000616e:	1c20      	adds	r0, r4, #0
10006170:	2104      	movs	r1, #4
10006172:	2221      	movs	r2, #33	; 0x21
10006174:	f000 fbe1 	bl	1000693a <_calloc_r>
10006178:	6a63      	ldr	r3, [r4, #36]	; 0x24
1000617a:	60f0      	str	r0, [r6, #12]
1000617c:	68db      	ldr	r3, [r3, #12]
1000617e:	2b00      	cmp	r3, #0
10006180:	d1eb      	bne.n	1000615a <_Balloc+0x24>
10006182:	2000      	movs	r0, #0
10006184:	e00e      	b.n	100061a4 <_Balloc+0x6e>
10006186:	2101      	movs	r1, #1
10006188:	1c0e      	adds	r6, r1, #0
1000618a:	40ae      	lsls	r6, r5
1000618c:	1d72      	adds	r2, r6, #5
1000618e:	0092      	lsls	r2, r2, #2
10006190:	1c20      	adds	r0, r4, #0
10006192:	f000 fbd2 	bl	1000693a <_calloc_r>
10006196:	2800      	cmp	r0, #0
10006198:	d0f3      	beq.n	10006182 <_Balloc+0x4c>
1000619a:	6045      	str	r5, [r0, #4]
1000619c:	6086      	str	r6, [r0, #8]
1000619e:	2300      	movs	r3, #0
100061a0:	6103      	str	r3, [r0, #16]
100061a2:	60c3      	str	r3, [r0, #12]
100061a4:	bd70      	pop	{r4, r5, r6, pc}

100061a6 <_Bfree>:
100061a6:	b570      	push	{r4, r5, r6, lr}
100061a8:	6a45      	ldr	r5, [r0, #36]	; 0x24
100061aa:	1c06      	adds	r6, r0, #0
100061ac:	1c0c      	adds	r4, r1, #0
100061ae:	2d00      	cmp	r5, #0
100061b0:	d107      	bne.n	100061c2 <_Bfree+0x1c>
100061b2:	2010      	movs	r0, #16
100061b4:	f7ff ffaa 	bl	1000610c <malloc>
100061b8:	6270      	str	r0, [r6, #36]	; 0x24
100061ba:	6045      	str	r5, [r0, #4]
100061bc:	6085      	str	r5, [r0, #8]
100061be:	6005      	str	r5, [r0, #0]
100061c0:	60c5      	str	r5, [r0, #12]
100061c2:	2c00      	cmp	r4, #0
100061c4:	d007      	beq.n	100061d6 <_Bfree+0x30>
100061c6:	6a72      	ldr	r2, [r6, #36]	; 0x24
100061c8:	6863      	ldr	r3, [r4, #4]
100061ca:	68d2      	ldr	r2, [r2, #12]
100061cc:	009b      	lsls	r3, r3, #2
100061ce:	18d3      	adds	r3, r2, r3
100061d0:	681a      	ldr	r2, [r3, #0]
100061d2:	6022      	str	r2, [r4, #0]
100061d4:	601c      	str	r4, [r3, #0]
100061d6:	bd70      	pop	{r4, r5, r6, pc}

100061d8 <__multadd>:
100061d8:	b5f7      	push	{r0, r1, r2, r4, r5, r6, r7, lr}
100061da:	1c1e      	adds	r6, r3, #0
100061dc:	2314      	movs	r3, #20
100061de:	469c      	mov	ip, r3
100061e0:	1c07      	adds	r7, r0, #0
100061e2:	1c0c      	adds	r4, r1, #0
100061e4:	2000      	movs	r0, #0
100061e6:	690d      	ldr	r5, [r1, #16]
100061e8:	448c      	add	ip, r1
100061ea:	4663      	mov	r3, ip
100061ec:	8819      	ldrh	r1, [r3, #0]
100061ee:	681b      	ldr	r3, [r3, #0]
100061f0:	4351      	muls	r1, r2
100061f2:	0c1b      	lsrs	r3, r3, #16
100061f4:	4353      	muls	r3, r2
100061f6:	1989      	adds	r1, r1, r6
100061f8:	0c0e      	lsrs	r6, r1, #16
100061fa:	18f3      	adds	r3, r6, r3
100061fc:	b289      	uxth	r1, r1
100061fe:	0c1e      	lsrs	r6, r3, #16
10006200:	041b      	lsls	r3, r3, #16
10006202:	185b      	adds	r3, r3, r1
10006204:	4661      	mov	r1, ip
10006206:	3001      	adds	r0, #1
10006208:	c108      	stmia	r1!, {r3}
1000620a:	468c      	mov	ip, r1
1000620c:	42a8      	cmp	r0, r5
1000620e:	dbec      	blt.n	100061ea <__multadd+0x12>
10006210:	2e00      	cmp	r6, #0
10006212:	d01b      	beq.n	1000624c <__multadd+0x74>
10006214:	68a3      	ldr	r3, [r4, #8]
10006216:	429d      	cmp	r5, r3
10006218:	db12      	blt.n	10006240 <__multadd+0x68>
1000621a:	6863      	ldr	r3, [r4, #4]
1000621c:	1c38      	adds	r0, r7, #0
1000621e:	1c59      	adds	r1, r3, #1
10006220:	f7ff ff89 	bl	10006136 <_Balloc>
10006224:	1c21      	adds	r1, r4, #0
10006226:	6923      	ldr	r3, [r4, #16]
10006228:	9001      	str	r0, [sp, #4]
1000622a:	1c9a      	adds	r2, r3, #2
1000622c:	310c      	adds	r1, #12
1000622e:	0092      	lsls	r2, r2, #2
10006230:	300c      	adds	r0, #12
10006232:	f7fd f84f 	bl	100032d4 <memcpy>
10006236:	1c21      	adds	r1, r4, #0
10006238:	1c38      	adds	r0, r7, #0
1000623a:	f7ff ffb4 	bl	100061a6 <_Bfree>
1000623e:	9c01      	ldr	r4, [sp, #4]
10006240:	1d2b      	adds	r3, r5, #4
10006242:	009b      	lsls	r3, r3, #2
10006244:	18e3      	adds	r3, r4, r3
10006246:	3501      	adds	r5, #1
10006248:	605e      	str	r6, [r3, #4]
1000624a:	6125      	str	r5, [r4, #16]
1000624c:	1c20      	adds	r0, r4, #0
1000624e:	bdfe      	pop	{r1, r2, r3, r4, r5, r6, r7, pc}

10006250 <__s2b>:
10006250:	b5f7      	push	{r0, r1, r2, r4, r5, r6, r7, lr}
10006252:	1c06      	adds	r6, r0, #0
10006254:	1c18      	adds	r0, r3, #0
10006256:	1c0c      	adds	r4, r1, #0
10006258:	3008      	adds	r0, #8
1000625a:	2109      	movs	r1, #9
1000625c:	9301      	str	r3, [sp, #4]
1000625e:	1c15      	adds	r5, r2, #0
10006260:	f7fb f992 	bl	10001588 <__aeabi_idiv>
10006264:	2301      	movs	r3, #1
10006266:	2100      	movs	r1, #0
10006268:	4298      	cmp	r0, r3
1000626a:	dd02      	ble.n	10006272 <__s2b+0x22>
1000626c:	005b      	lsls	r3, r3, #1
1000626e:	3101      	adds	r1, #1
10006270:	e7fa      	b.n	10006268 <__s2b+0x18>
10006272:	1c30      	adds	r0, r6, #0
10006274:	f7ff ff5f 	bl	10006136 <_Balloc>
10006278:	9b08      	ldr	r3, [sp, #32]
1000627a:	1c01      	adds	r1, r0, #0
1000627c:	6143      	str	r3, [r0, #20]
1000627e:	2301      	movs	r3, #1
10006280:	6103      	str	r3, [r0, #16]
10006282:	2d09      	cmp	r5, #9
10006284:	dd12      	ble.n	100062ac <__s2b+0x5c>
10006286:	1c23      	adds	r3, r4, #0
10006288:	3309      	adds	r3, #9
1000628a:	1c1f      	adds	r7, r3, #0
1000628c:	9300      	str	r3, [sp, #0]
1000628e:	1964      	adds	r4, r4, r5
10006290:	783b      	ldrb	r3, [r7, #0]
10006292:	1c30      	adds	r0, r6, #0
10006294:	3b30      	subs	r3, #48	; 0x30
10006296:	220a      	movs	r2, #10
10006298:	f7ff ff9e 	bl	100061d8 <__multadd>
1000629c:	3701      	adds	r7, #1
1000629e:	1c01      	adds	r1, r0, #0
100062a0:	42a7      	cmp	r7, r4
100062a2:	d1f5      	bne.n	10006290 <__s2b+0x40>
100062a4:	9b00      	ldr	r3, [sp, #0]
100062a6:	195c      	adds	r4, r3, r5
100062a8:	3c08      	subs	r4, #8
100062aa:	e001      	b.n	100062b0 <__s2b+0x60>
100062ac:	2509      	movs	r5, #9
100062ae:	340a      	adds	r4, #10
100062b0:	1c2f      	adds	r7, r5, #0
100062b2:	9b01      	ldr	r3, [sp, #4]
100062b4:	429f      	cmp	r7, r3
100062b6:	da09      	bge.n	100062cc <__s2b+0x7c>
100062b8:	1b63      	subs	r3, r4, r5
100062ba:	5ddb      	ldrb	r3, [r3, r7]
100062bc:	1c30      	adds	r0, r6, #0
100062be:	3b30      	subs	r3, #48	; 0x30
100062c0:	220a      	movs	r2, #10
100062c2:	f7ff ff89 	bl	100061d8 <__multadd>
100062c6:	3701      	adds	r7, #1
100062c8:	1c01      	adds	r1, r0, #0
100062ca:	e7f2      	b.n	100062b2 <__s2b+0x62>
100062cc:	1c08      	adds	r0, r1, #0
100062ce:	bdfe      	pop	{r1, r2, r3, r4, r5, r6, r7, pc}

100062d0 <__hi0bits>:
100062d0:	2200      	movs	r2, #0
100062d2:	1c03      	adds	r3, r0, #0
100062d4:	0c01      	lsrs	r1, r0, #16
100062d6:	4291      	cmp	r1, r2
100062d8:	d101      	bne.n	100062de <__hi0bits+0xe>
100062da:	0403      	lsls	r3, r0, #16
100062dc:	3210      	adds	r2, #16
100062de:	0e19      	lsrs	r1, r3, #24
100062e0:	d101      	bne.n	100062e6 <__hi0bits+0x16>
100062e2:	3208      	adds	r2, #8
100062e4:	021b      	lsls	r3, r3, #8
100062e6:	0f19      	lsrs	r1, r3, #28
100062e8:	d101      	bne.n	100062ee <__hi0bits+0x1e>
100062ea:	3204      	adds	r2, #4
100062ec:	011b      	lsls	r3, r3, #4
100062ee:	0f99      	lsrs	r1, r3, #30
100062f0:	d101      	bne.n	100062f6 <__hi0bits+0x26>
100062f2:	3202      	adds	r2, #2
100062f4:	009b      	lsls	r3, r3, #2
100062f6:	1c10      	adds	r0, r2, #0
100062f8:	2b00      	cmp	r3, #0
100062fa:	db03      	blt.n	10006304 <__hi0bits+0x34>
100062fc:	2020      	movs	r0, #32
100062fe:	005b      	lsls	r3, r3, #1
10006300:	d500      	bpl.n	10006304 <__hi0bits+0x34>
10006302:	1c50      	adds	r0, r2, #1
10006304:	4770      	bx	lr

10006306 <__lo0bits>:
10006306:	2207      	movs	r2, #7
10006308:	6803      	ldr	r3, [r0, #0]
1000630a:	b510      	push	{r4, lr}
1000630c:	1c01      	adds	r1, r0, #0
1000630e:	401a      	ands	r2, r3
10006310:	d00c      	beq.n	1000632c <__lo0bits+0x26>
10006312:	2401      	movs	r4, #1
10006314:	2000      	movs	r0, #0
10006316:	4223      	tst	r3, r4
10006318:	d123      	bne.n	10006362 <__lo0bits+0x5c>
1000631a:	2202      	movs	r2, #2
1000631c:	4213      	tst	r3, r2
1000631e:	d003      	beq.n	10006328 <__lo0bits+0x22>
10006320:	40e3      	lsrs	r3, r4
10006322:	1c20      	adds	r0, r4, #0
10006324:	600b      	str	r3, [r1, #0]
10006326:	e01c      	b.n	10006362 <__lo0bits+0x5c>
10006328:	089b      	lsrs	r3, r3, #2
1000632a:	e018      	b.n	1000635e <__lo0bits+0x58>
1000632c:	b298      	uxth	r0, r3
1000632e:	2800      	cmp	r0, #0
10006330:	d101      	bne.n	10006336 <__lo0bits+0x30>
10006332:	2210      	movs	r2, #16
10006334:	0c1b      	lsrs	r3, r3, #16
10006336:	b2d8      	uxtb	r0, r3
10006338:	2800      	cmp	r0, #0
1000633a:	d101      	bne.n	10006340 <__lo0bits+0x3a>
1000633c:	3208      	adds	r2, #8
1000633e:	0a1b      	lsrs	r3, r3, #8
10006340:	0718      	lsls	r0, r3, #28
10006342:	d101      	bne.n	10006348 <__lo0bits+0x42>
10006344:	3204      	adds	r2, #4
10006346:	091b      	lsrs	r3, r3, #4
10006348:	0798      	lsls	r0, r3, #30
1000634a:	d101      	bne.n	10006350 <__lo0bits+0x4a>
1000634c:	3202      	adds	r2, #2
1000634e:	089b      	lsrs	r3, r3, #2
10006350:	07d8      	lsls	r0, r3, #31
10006352:	d404      	bmi.n	1000635e <__lo0bits+0x58>
10006354:	085b      	lsrs	r3, r3, #1
10006356:	2020      	movs	r0, #32
10006358:	2b00      	cmp	r3, #0
1000635a:	d002      	beq.n	10006362 <__lo0bits+0x5c>
1000635c:	3201      	adds	r2, #1
1000635e:	1c10      	adds	r0, r2, #0
10006360:	600b      	str	r3, [r1, #0]
10006362:	bd10      	pop	{r4, pc}

10006364 <__i2b>:
10006364:	b510      	push	{r4, lr}
10006366:	1c0c      	adds	r4, r1, #0
10006368:	2101      	movs	r1, #1
1000636a:	f7ff fee4 	bl	10006136 <_Balloc>
1000636e:	2301      	movs	r3, #1
10006370:	6144      	str	r4, [r0, #20]
10006372:	6103      	str	r3, [r0, #16]
10006374:	bd10      	pop	{r4, pc}

10006376 <__multiply>:
10006376:	b5f0      	push	{r4, r5, r6, r7, lr}
10006378:	690b      	ldr	r3, [r1, #16]
1000637a:	1c14      	adds	r4, r2, #0
1000637c:	6912      	ldr	r2, [r2, #16]
1000637e:	b089      	sub	sp, #36	; 0x24
10006380:	1c0d      	adds	r5, r1, #0
10006382:	4293      	cmp	r3, r2
10006384:	da01      	bge.n	1000638a <__multiply+0x14>
10006386:	1c25      	adds	r5, r4, #0
10006388:	1c0c      	adds	r4, r1, #0
1000638a:	692f      	ldr	r7, [r5, #16]
1000638c:	6926      	ldr	r6, [r4, #16]
1000638e:	68aa      	ldr	r2, [r5, #8]
10006390:	19bb      	adds	r3, r7, r6
10006392:	6869      	ldr	r1, [r5, #4]
10006394:	9300      	str	r3, [sp, #0]
10006396:	4293      	cmp	r3, r2
10006398:	dd00      	ble.n	1000639c <__multiply+0x26>
1000639a:	3101      	adds	r1, #1
1000639c:	f7ff fecb 	bl	10006136 <_Balloc>
100063a0:	1c01      	adds	r1, r0, #0
100063a2:	9b00      	ldr	r3, [sp, #0]
100063a4:	3114      	adds	r1, #20
100063a6:	4684      	mov	ip, r0
100063a8:	0098      	lsls	r0, r3, #2
100063aa:	1c0b      	adds	r3, r1, #0
100063ac:	1808      	adds	r0, r1, r0
100063ae:	4283      	cmp	r3, r0
100063b0:	d202      	bcs.n	100063b8 <__multiply+0x42>
100063b2:	2200      	movs	r2, #0
100063b4:	c304      	stmia	r3!, {r2}
100063b6:	e7fa      	b.n	100063ae <__multiply+0x38>
100063b8:	3514      	adds	r5, #20
100063ba:	00bf      	lsls	r7, r7, #2
100063bc:	19eb      	adds	r3, r5, r7
100063be:	3414      	adds	r4, #20
100063c0:	00b6      	lsls	r6, r6, #2
100063c2:	9304      	str	r3, [sp, #16]
100063c4:	19a3      	adds	r3, r4, r6
100063c6:	9502      	str	r5, [sp, #8]
100063c8:	9306      	str	r3, [sp, #24]
100063ca:	9b06      	ldr	r3, [sp, #24]
100063cc:	429c      	cmp	r4, r3
100063ce:	d256      	bcs.n	1000647e <__multiply+0x108>
100063d0:	8823      	ldrh	r3, [r4, #0]
100063d2:	9303      	str	r3, [sp, #12]
100063d4:	2b00      	cmp	r3, #0
100063d6:	d022      	beq.n	1000641e <__multiply+0xa8>
100063d8:	1c0e      	adds	r6, r1, #0
100063da:	2700      	movs	r7, #0
100063dc:	9b02      	ldr	r3, [sp, #8]
100063de:	9301      	str	r3, [sp, #4]
100063e0:	9b01      	ldr	r3, [sp, #4]
100063e2:	9d03      	ldr	r5, [sp, #12]
100063e4:	cb04      	ldmia	r3!, {r2}
100063e6:	9605      	str	r6, [sp, #20]
100063e8:	9301      	str	r3, [sp, #4]
100063ea:	8833      	ldrh	r3, [r6, #0]
100063ec:	9307      	str	r3, [sp, #28]
100063ee:	b293      	uxth	r3, r2
100063f0:	436b      	muls	r3, r5
100063f2:	9d07      	ldr	r5, [sp, #28]
100063f4:	0c12      	lsrs	r2, r2, #16
100063f6:	18eb      	adds	r3, r5, r3
100063f8:	6835      	ldr	r5, [r6, #0]
100063fa:	19db      	adds	r3, r3, r7
100063fc:	0c2f      	lsrs	r7, r5, #16
100063fe:	9d03      	ldr	r5, [sp, #12]
10006400:	436a      	muls	r2, r5
10006402:	18ba      	adds	r2, r7, r2
10006404:	0c1f      	lsrs	r7, r3, #16
10006406:	19d2      	adds	r2, r2, r7
10006408:	0c17      	lsrs	r7, r2, #16
1000640a:	b29b      	uxth	r3, r3
1000640c:	0412      	lsls	r2, r2, #16
1000640e:	4313      	orrs	r3, r2
10006410:	c608      	stmia	r6!, {r3}
10006412:	9a01      	ldr	r2, [sp, #4]
10006414:	9b04      	ldr	r3, [sp, #16]
10006416:	429a      	cmp	r2, r3
10006418:	d3e2      	bcc.n	100063e0 <__multiply+0x6a>
1000641a:	9b05      	ldr	r3, [sp, #20]
1000641c:	605f      	str	r7, [r3, #4]
1000641e:	6823      	ldr	r3, [r4, #0]
10006420:	0c1b      	lsrs	r3, r3, #16
10006422:	9301      	str	r3, [sp, #4]
10006424:	d021      	beq.n	1000646a <__multiply+0xf4>
10006426:	2200      	movs	r2, #0
10006428:	1c0d      	adds	r5, r1, #0
1000642a:	680b      	ldr	r3, [r1, #0]
1000642c:	9f02      	ldr	r7, [sp, #8]
1000642e:	9203      	str	r2, [sp, #12]
10006430:	883e      	ldrh	r6, [r7, #0]
10006432:	9a01      	ldr	r2, [sp, #4]
10006434:	b29b      	uxth	r3, r3
10006436:	4356      	muls	r6, r2
10006438:	682a      	ldr	r2, [r5, #0]
1000643a:	9505      	str	r5, [sp, #20]
1000643c:	0c12      	lsrs	r2, r2, #16
1000643e:	18b2      	adds	r2, r6, r2
10006440:	9e03      	ldr	r6, [sp, #12]
10006442:	1992      	adds	r2, r2, r6
10006444:	0416      	lsls	r6, r2, #16
10006446:	4333      	orrs	r3, r6
10006448:	602b      	str	r3, [r5, #0]
1000644a:	cf08      	ldmia	r7!, {r3}
1000644c:	9e01      	ldr	r6, [sp, #4]
1000644e:	0c1b      	lsrs	r3, r3, #16
10006450:	4373      	muls	r3, r6
10006452:	88ae      	ldrh	r6, [r5, #4]
10006454:	0c12      	lsrs	r2, r2, #16
10006456:	199b      	adds	r3, r3, r6
10006458:	189b      	adds	r3, r3, r2
1000645a:	0c1a      	lsrs	r2, r3, #16
1000645c:	9203      	str	r2, [sp, #12]
1000645e:	9a04      	ldr	r2, [sp, #16]
10006460:	3504      	adds	r5, #4
10006462:	42ba      	cmp	r2, r7
10006464:	d8e4      	bhi.n	10006430 <__multiply+0xba>
10006466:	9a05      	ldr	r2, [sp, #20]
10006468:	6053      	str	r3, [r2, #4]
1000646a:	3404      	adds	r4, #4
1000646c:	3104      	adds	r1, #4
1000646e:	e7ac      	b.n	100063ca <__multiply+0x54>
10006470:	3804      	subs	r0, #4
10006472:	6803      	ldr	r3, [r0, #0]
10006474:	2b00      	cmp	r3, #0
10006476:	d105      	bne.n	10006484 <__multiply+0x10e>
10006478:	9b00      	ldr	r3, [sp, #0]
1000647a:	3b01      	subs	r3, #1
1000647c:	9300      	str	r3, [sp, #0]
1000647e:	9b00      	ldr	r3, [sp, #0]
10006480:	2b00      	cmp	r3, #0
10006482:	dcf5      	bgt.n	10006470 <__multiply+0xfa>
10006484:	4663      	mov	r3, ip
10006486:	4660      	mov	r0, ip
10006488:	9a00      	ldr	r2, [sp, #0]
1000648a:	611a      	str	r2, [r3, #16]
1000648c:	b009      	add	sp, #36	; 0x24
1000648e:	bdf0      	pop	{r4, r5, r6, r7, pc}

10006490 <__pow5mult>:
10006490:	2303      	movs	r3, #3
10006492:	b5f7      	push	{r0, r1, r2, r4, r5, r6, r7, lr}
10006494:	4013      	ands	r3, r2
10006496:	1c05      	adds	r5, r0, #0
10006498:	1c0e      	adds	r6, r1, #0
1000649a:	1c14      	adds	r4, r2, #0
1000649c:	2b00      	cmp	r3, #0
1000649e:	d007      	beq.n	100064b0 <__pow5mult+0x20>
100064a0:	4a22      	ldr	r2, [pc, #136]	; (1000652c <__pow5mult+0x9c>)
100064a2:	3b01      	subs	r3, #1
100064a4:	009b      	lsls	r3, r3, #2
100064a6:	589a      	ldr	r2, [r3, r2]
100064a8:	2300      	movs	r3, #0
100064aa:	f7ff fe95 	bl	100061d8 <__multadd>
100064ae:	1c06      	adds	r6, r0, #0
100064b0:	10a3      	asrs	r3, r4, #2
100064b2:	9301      	str	r3, [sp, #4]
100064b4:	d037      	beq.n	10006526 <__pow5mult+0x96>
100064b6:	6a6c      	ldr	r4, [r5, #36]	; 0x24
100064b8:	2c00      	cmp	r4, #0
100064ba:	d107      	bne.n	100064cc <__pow5mult+0x3c>
100064bc:	2010      	movs	r0, #16
100064be:	f7ff fe25 	bl	1000610c <malloc>
100064c2:	6268      	str	r0, [r5, #36]	; 0x24
100064c4:	6044      	str	r4, [r0, #4]
100064c6:	6084      	str	r4, [r0, #8]
100064c8:	6004      	str	r4, [r0, #0]
100064ca:	60c4      	str	r4, [r0, #12]
100064cc:	6a6f      	ldr	r7, [r5, #36]	; 0x24
100064ce:	68bc      	ldr	r4, [r7, #8]
100064d0:	2c00      	cmp	r4, #0
100064d2:	d110      	bne.n	100064f6 <__pow5mult+0x66>
100064d4:	1c28      	adds	r0, r5, #0
100064d6:	4916      	ldr	r1, [pc, #88]	; (10006530 <__pow5mult+0xa0>)
100064d8:	f7ff ff44 	bl	10006364 <__i2b>
100064dc:	2300      	movs	r3, #0
100064de:	60b8      	str	r0, [r7, #8]
100064e0:	1c04      	adds	r4, r0, #0
100064e2:	6003      	str	r3, [r0, #0]
100064e4:	e007      	b.n	100064f6 <__pow5mult+0x66>
100064e6:	9b01      	ldr	r3, [sp, #4]
100064e8:	105b      	asrs	r3, r3, #1
100064ea:	9301      	str	r3, [sp, #4]
100064ec:	d01b      	beq.n	10006526 <__pow5mult+0x96>
100064ee:	6820      	ldr	r0, [r4, #0]
100064f0:	2800      	cmp	r0, #0
100064f2:	d00f      	beq.n	10006514 <__pow5mult+0x84>
100064f4:	1c04      	adds	r4, r0, #0
100064f6:	9b01      	ldr	r3, [sp, #4]
100064f8:	07db      	lsls	r3, r3, #31
100064fa:	d5f4      	bpl.n	100064e6 <__pow5mult+0x56>
100064fc:	1c31      	adds	r1, r6, #0
100064fe:	1c22      	adds	r2, r4, #0
10006500:	1c28      	adds	r0, r5, #0
10006502:	f7ff ff38 	bl	10006376 <__multiply>
10006506:	1c07      	adds	r7, r0, #0
10006508:	1c31      	adds	r1, r6, #0
1000650a:	1c28      	adds	r0, r5, #0
1000650c:	f7ff fe4b 	bl	100061a6 <_Bfree>
10006510:	1c3e      	adds	r6, r7, #0
10006512:	e7e8      	b.n	100064e6 <__pow5mult+0x56>
10006514:	1c28      	adds	r0, r5, #0
10006516:	1c21      	adds	r1, r4, #0
10006518:	1c22      	adds	r2, r4, #0
1000651a:	f7ff ff2c 	bl	10006376 <__multiply>
1000651e:	2300      	movs	r3, #0
10006520:	6020      	str	r0, [r4, #0]
10006522:	6003      	str	r3, [r0, #0]
10006524:	e7e6      	b.n	100064f4 <__pow5mult+0x64>
10006526:	1c30      	adds	r0, r6, #0
10006528:	bdfe      	pop	{r1, r2, r3, r4, r5, r6, r7, pc}
1000652a:	46c0      	nop			; (mov r8, r8)
1000652c:	10009938 	.word	0x10009938
10006530:	00000271 	.word	0x00000271

10006534 <__lshift>:
10006534:	b5f0      	push	{r4, r5, r6, r7, lr}
10006536:	1c0c      	adds	r4, r1, #0
10006538:	1c17      	adds	r7, r2, #0
1000653a:	6923      	ldr	r3, [r4, #16]
1000653c:	1155      	asrs	r5, r2, #5
1000653e:	b085      	sub	sp, #20
10006540:	18eb      	adds	r3, r5, r3
10006542:	9301      	str	r3, [sp, #4]
10006544:	3301      	adds	r3, #1
10006546:	9300      	str	r3, [sp, #0]
10006548:	6849      	ldr	r1, [r1, #4]
1000654a:	68a3      	ldr	r3, [r4, #8]
1000654c:	9002      	str	r0, [sp, #8]
1000654e:	9a00      	ldr	r2, [sp, #0]
10006550:	429a      	cmp	r2, r3
10006552:	dd02      	ble.n	1000655a <__lshift+0x26>
10006554:	3101      	adds	r1, #1
10006556:	005b      	lsls	r3, r3, #1
10006558:	e7f9      	b.n	1000654e <__lshift+0x1a>
1000655a:	9802      	ldr	r0, [sp, #8]
1000655c:	f7ff fdeb 	bl	10006136 <_Balloc>
10006560:	1c02      	adds	r2, r0, #0
10006562:	1c06      	adds	r6, r0, #0
10006564:	2300      	movs	r3, #0
10006566:	3214      	adds	r2, #20
10006568:	42ab      	cmp	r3, r5
1000656a:	da04      	bge.n	10006576 <__lshift+0x42>
1000656c:	2000      	movs	r0, #0
1000656e:	0099      	lsls	r1, r3, #2
10006570:	5050      	str	r0, [r2, r1]
10006572:	3301      	adds	r3, #1
10006574:	e7f8      	b.n	10006568 <__lshift+0x34>
10006576:	43eb      	mvns	r3, r5
10006578:	17db      	asrs	r3, r3, #31
1000657a:	401d      	ands	r5, r3
1000657c:	1c23      	adds	r3, r4, #0
1000657e:	00ad      	lsls	r5, r5, #2
10006580:	1955      	adds	r5, r2, r5
10006582:	6922      	ldr	r2, [r4, #16]
10006584:	3314      	adds	r3, #20
10006586:	0092      	lsls	r2, r2, #2
10006588:	189a      	adds	r2, r3, r2
1000658a:	4694      	mov	ip, r2
1000658c:	221f      	movs	r2, #31
1000658e:	4017      	ands	r7, r2
10006590:	d014      	beq.n	100065bc <__lshift+0x88>
10006592:	3201      	adds	r2, #1
10006594:	1bd2      	subs	r2, r2, r7
10006596:	9203      	str	r2, [sp, #12]
10006598:	2200      	movs	r2, #0
1000659a:	6819      	ldr	r1, [r3, #0]
1000659c:	1c28      	adds	r0, r5, #0
1000659e:	40b9      	lsls	r1, r7
100065a0:	430a      	orrs	r2, r1
100065a2:	c504      	stmia	r5!, {r2}
100065a4:	cb04      	ldmia	r3!, {r2}
100065a6:	9903      	ldr	r1, [sp, #12]
100065a8:	40ca      	lsrs	r2, r1
100065aa:	459c      	cmp	ip, r3
100065ac:	d8f5      	bhi.n	1000659a <__lshift+0x66>
100065ae:	6042      	str	r2, [r0, #4]
100065b0:	2a00      	cmp	r2, #0
100065b2:	d007      	beq.n	100065c4 <__lshift+0x90>
100065b4:	9b01      	ldr	r3, [sp, #4]
100065b6:	3302      	adds	r3, #2
100065b8:	9300      	str	r3, [sp, #0]
100065ba:	e003      	b.n	100065c4 <__lshift+0x90>
100065bc:	cb04      	ldmia	r3!, {r2}
100065be:	c504      	stmia	r5!, {r2}
100065c0:	459c      	cmp	ip, r3
100065c2:	d8fb      	bhi.n	100065bc <__lshift+0x88>
100065c4:	9b00      	ldr	r3, [sp, #0]
100065c6:	9802      	ldr	r0, [sp, #8]
100065c8:	3b01      	subs	r3, #1
100065ca:	6133      	str	r3, [r6, #16]
100065cc:	1c21      	adds	r1, r4, #0
100065ce:	f7ff fdea 	bl	100061a6 <_Bfree>
100065d2:	1c30      	adds	r0, r6, #0
100065d4:	b005      	add	sp, #20
100065d6:	bdf0      	pop	{r4, r5, r6, r7, pc}

100065d8 <__mcmp>:
100065d8:	6903      	ldr	r3, [r0, #16]
100065da:	690a      	ldr	r2, [r1, #16]
100065dc:	b510      	push	{r4, lr}
100065de:	1a9b      	subs	r3, r3, r2
100065e0:	1c04      	adds	r4, r0, #0
100065e2:	1e18      	subs	r0, r3, #0
100065e4:	d112      	bne.n	1000660c <__mcmp+0x34>
100065e6:	0093      	lsls	r3, r2, #2
100065e8:	3414      	adds	r4, #20
100065ea:	3114      	adds	r1, #20
100065ec:	18e2      	adds	r2, r4, r3
100065ee:	18c9      	adds	r1, r1, r3
100065f0:	3a04      	subs	r2, #4
100065f2:	3904      	subs	r1, #4
100065f4:	6813      	ldr	r3, [r2, #0]
100065f6:	6808      	ldr	r0, [r1, #0]
100065f8:	4283      	cmp	r3, r0
100065fa:	d004      	beq.n	10006606 <__mcmp+0x2e>
100065fc:	4283      	cmp	r3, r0
100065fe:	419b      	sbcs	r3, r3
10006600:	2001      	movs	r0, #1
10006602:	4318      	orrs	r0, r3
10006604:	e002      	b.n	1000660c <__mcmp+0x34>
10006606:	42a2      	cmp	r2, r4
10006608:	d8f2      	bhi.n	100065f0 <__mcmp+0x18>
1000660a:	2000      	movs	r0, #0
1000660c:	bd10      	pop	{r4, pc}

1000660e <__mdiff>:
1000660e:	b5f0      	push	{r4, r5, r6, r7, lr}
10006610:	1c07      	adds	r7, r0, #0
10006612:	b085      	sub	sp, #20
10006614:	1c08      	adds	r0, r1, #0
10006616:	1c0c      	adds	r4, r1, #0
10006618:	1c11      	adds	r1, r2, #0
1000661a:	1c15      	adds	r5, r2, #0
1000661c:	f7ff ffdc 	bl	100065d8 <__mcmp>
10006620:	1e06      	subs	r6, r0, #0
10006622:	d107      	bne.n	10006634 <__mdiff+0x26>
10006624:	1c38      	adds	r0, r7, #0
10006626:	1c31      	adds	r1, r6, #0
10006628:	f7ff fd85 	bl	10006136 <_Balloc>
1000662c:	2301      	movs	r3, #1
1000662e:	6146      	str	r6, [r0, #20]
10006630:	6103      	str	r3, [r0, #16]
10006632:	e055      	b.n	100066e0 <__mdiff+0xd2>
10006634:	2300      	movs	r3, #0
10006636:	9301      	str	r3, [sp, #4]
10006638:	4298      	cmp	r0, r3
1000663a:	da04      	bge.n	10006646 <__mdiff+0x38>
1000663c:	1c23      	adds	r3, r4, #0
1000663e:	1c2c      	adds	r4, r5, #0
10006640:	1c1d      	adds	r5, r3, #0
10006642:	2301      	movs	r3, #1
10006644:	9301      	str	r3, [sp, #4]
10006646:	1c38      	adds	r0, r7, #0
10006648:	6861      	ldr	r1, [r4, #4]
1000664a:	f7ff fd74 	bl	10006136 <_Balloc>
1000664e:	9b01      	ldr	r3, [sp, #4]
10006650:	6926      	ldr	r6, [r4, #16]
10006652:	1c2f      	adds	r7, r5, #0
10006654:	60c3      	str	r3, [r0, #12]
10006656:	3414      	adds	r4, #20
10006658:	00b3      	lsls	r3, r6, #2
1000665a:	18e3      	adds	r3, r4, r3
1000665c:	1c02      	adds	r2, r0, #0
1000665e:	9302      	str	r3, [sp, #8]
10006660:	692b      	ldr	r3, [r5, #16]
10006662:	2500      	movs	r5, #0
10006664:	3714      	adds	r7, #20
10006666:	009b      	lsls	r3, r3, #2
10006668:	18fb      	adds	r3, r7, r3
1000666a:	9303      	str	r3, [sp, #12]
1000666c:	3214      	adds	r2, #20
1000666e:	cc08      	ldmia	r4!, {r3}
10006670:	4669      	mov	r1, sp
10006672:	469c      	mov	ip, r3
10006674:	cf08      	ldmia	r7!, {r3}
10006676:	3204      	adds	r2, #4
10006678:	9300      	str	r3, [sp, #0]
1000667a:	4663      	mov	r3, ip
1000667c:	808b      	strh	r3, [r1, #4]
1000667e:	888b      	ldrh	r3, [r1, #4]
10006680:	195d      	adds	r5, r3, r5
10006682:	9b00      	ldr	r3, [sp, #0]
10006684:	b29b      	uxth	r3, r3
10006686:	1aeb      	subs	r3, r5, r3
10006688:	4665      	mov	r5, ip
1000668a:	9301      	str	r3, [sp, #4]
1000668c:	9b00      	ldr	r3, [sp, #0]
1000668e:	0c2d      	lsrs	r5, r5, #16
10006690:	0c19      	lsrs	r1, r3, #16
10006692:	9b01      	ldr	r3, [sp, #4]
10006694:	1a69      	subs	r1, r5, r1
10006696:	141d      	asrs	r5, r3, #16
10006698:	1f13      	subs	r3, r2, #4
1000669a:	469c      	mov	ip, r3
1000669c:	466b      	mov	r3, sp
1000669e:	1949      	adds	r1, r1, r5
100066a0:	889b      	ldrh	r3, [r3, #4]
100066a2:	140d      	asrs	r5, r1, #16
100066a4:	0409      	lsls	r1, r1, #16
100066a6:	430b      	orrs	r3, r1
100066a8:	4661      	mov	r1, ip
100066aa:	600b      	str	r3, [r1, #0]
100066ac:	9b03      	ldr	r3, [sp, #12]
100066ae:	429f      	cmp	r7, r3
100066b0:	d3dd      	bcc.n	1000666e <__mdiff+0x60>
100066b2:	9902      	ldr	r1, [sp, #8]
100066b4:	1c13      	adds	r3, r2, #0
100066b6:	428c      	cmp	r4, r1
100066b8:	d20b      	bcs.n	100066d2 <__mdiff+0xc4>
100066ba:	cc08      	ldmia	r4!, {r3}
100066bc:	b299      	uxth	r1, r3
100066be:	1949      	adds	r1, r1, r5
100066c0:	140d      	asrs	r5, r1, #16
100066c2:	0c1b      	lsrs	r3, r3, #16
100066c4:	18eb      	adds	r3, r5, r3
100066c6:	141d      	asrs	r5, r3, #16
100066c8:	b289      	uxth	r1, r1
100066ca:	041b      	lsls	r3, r3, #16
100066cc:	430b      	orrs	r3, r1
100066ce:	c208      	stmia	r2!, {r3}
100066d0:	e7ef      	b.n	100066b2 <__mdiff+0xa4>
100066d2:	3b04      	subs	r3, #4
100066d4:	681a      	ldr	r2, [r3, #0]
100066d6:	2a00      	cmp	r2, #0
100066d8:	d101      	bne.n	100066de <__mdiff+0xd0>
100066da:	3e01      	subs	r6, #1
100066dc:	e7f9      	b.n	100066d2 <__mdiff+0xc4>
100066de:	6106      	str	r6, [r0, #16]
100066e0:	b005      	add	sp, #20
100066e2:	bdf0      	pop	{r4, r5, r6, r7, pc}

100066e4 <__ulp>:
100066e4:	4b0f      	ldr	r3, [pc, #60]	; (10006724 <__ulp+0x40>)
100066e6:	b510      	push	{r4, lr}
100066e8:	4019      	ands	r1, r3
100066ea:	4b0f      	ldr	r3, [pc, #60]	; (10006728 <__ulp+0x44>)
100066ec:	18c9      	adds	r1, r1, r3
100066ee:	2900      	cmp	r1, #0
100066f0:	dd02      	ble.n	100066f8 <__ulp+0x14>
100066f2:	2200      	movs	r2, #0
100066f4:	1c0b      	adds	r3, r1, #0
100066f6:	e011      	b.n	1000671c <__ulp+0x38>
100066f8:	4249      	negs	r1, r1
100066fa:	1509      	asrs	r1, r1, #20
100066fc:	2200      	movs	r2, #0
100066fe:	2300      	movs	r3, #0
10006700:	2913      	cmp	r1, #19
10006702:	dc04      	bgt.n	1000670e <__ulp+0x2a>
10006704:	2080      	movs	r0, #128	; 0x80
10006706:	0300      	lsls	r0, r0, #12
10006708:	4108      	asrs	r0, r1
1000670a:	1c03      	adds	r3, r0, #0
1000670c:	e006      	b.n	1000671c <__ulp+0x38>
1000670e:	2001      	movs	r0, #1
10006710:	2932      	cmp	r1, #50	; 0x32
10006712:	dc02      	bgt.n	1000671a <__ulp+0x36>
10006714:	2433      	movs	r4, #51	; 0x33
10006716:	1a61      	subs	r1, r4, r1
10006718:	4088      	lsls	r0, r1
1000671a:	1c02      	adds	r2, r0, #0
1000671c:	1c10      	adds	r0, r2, #0
1000671e:	1c19      	adds	r1, r3, #0
10006720:	bd10      	pop	{r4, pc}
10006722:	46c0      	nop			; (mov r8, r8)
10006724:	7ff00000 	.word	0x7ff00000
10006728:	fcc00000 	.word	0xfcc00000

1000672c <__b2d>:
1000672c:	b5f7      	push	{r0, r1, r2, r4, r5, r6, r7, lr}
1000672e:	1c06      	adds	r6, r0, #0
10006730:	6903      	ldr	r3, [r0, #16]
10006732:	3614      	adds	r6, #20
10006734:	009b      	lsls	r3, r3, #2
10006736:	18f3      	adds	r3, r6, r3
10006738:	1f1d      	subs	r5, r3, #4
1000673a:	682c      	ldr	r4, [r5, #0]
1000673c:	1c0f      	adds	r7, r1, #0
1000673e:	1c20      	adds	r0, r4, #0
10006740:	9301      	str	r3, [sp, #4]
10006742:	f7ff fdc5 	bl	100062d0 <__hi0bits>
10006746:	2320      	movs	r3, #32
10006748:	1a1b      	subs	r3, r3, r0
1000674a:	603b      	str	r3, [r7, #0]
1000674c:	491f      	ldr	r1, [pc, #124]	; (100067cc <__b2d+0xa0>)
1000674e:	280a      	cmp	r0, #10
10006750:	dc13      	bgt.n	1000677a <__b2d+0x4e>
10006752:	230b      	movs	r3, #11
10006754:	1c27      	adds	r7, r4, #0
10006756:	1a1b      	subs	r3, r3, r0
10006758:	40df      	lsrs	r7, r3
1000675a:	4339      	orrs	r1, r7
1000675c:	469c      	mov	ip, r3
1000675e:	1c0b      	adds	r3, r1, #0
10006760:	2100      	movs	r1, #0
10006762:	42b5      	cmp	r5, r6
10006764:	d902      	bls.n	1000676c <__b2d+0x40>
10006766:	9901      	ldr	r1, [sp, #4]
10006768:	3908      	subs	r1, #8
1000676a:	6809      	ldr	r1, [r1, #0]
1000676c:	4665      	mov	r5, ip
1000676e:	3015      	adds	r0, #21
10006770:	40e9      	lsrs	r1, r5
10006772:	4084      	lsls	r4, r0
10006774:	4321      	orrs	r1, r4
10006776:	1c0a      	adds	r2, r1, #0
10006778:	e024      	b.n	100067c4 <__b2d+0x98>
1000677a:	2700      	movs	r7, #0
1000677c:	42b5      	cmp	r5, r6
1000677e:	d902      	bls.n	10006786 <__b2d+0x5a>
10006780:	9d01      	ldr	r5, [sp, #4]
10006782:	3d08      	subs	r5, #8
10006784:	682f      	ldr	r7, [r5, #0]
10006786:	230b      	movs	r3, #11
10006788:	425b      	negs	r3, r3
1000678a:	469c      	mov	ip, r3
1000678c:	4484      	add	ip, r0
1000678e:	4663      	mov	r3, ip
10006790:	2b00      	cmp	r3, #0
10006792:	d014      	beq.n	100067be <__b2d+0x92>
10006794:	232b      	movs	r3, #43	; 0x2b
10006796:	1a18      	subs	r0, r3, r0
10006798:	4663      	mov	r3, ip
1000679a:	409c      	lsls	r4, r3
1000679c:	4321      	orrs	r1, r4
1000679e:	1c3c      	adds	r4, r7, #0
100067a0:	40c4      	lsrs	r4, r0
100067a2:	4321      	orrs	r1, r4
100067a4:	1c0b      	adds	r3, r1, #0
100067a6:	2400      	movs	r4, #0
100067a8:	42b5      	cmp	r5, r6
100067aa:	d901      	bls.n	100067b0 <__b2d+0x84>
100067ac:	3d04      	subs	r5, #4
100067ae:	682c      	ldr	r4, [r5, #0]
100067b0:	40c4      	lsrs	r4, r0
100067b2:	4661      	mov	r1, ip
100067b4:	1c20      	adds	r0, r4, #0
100067b6:	408f      	lsls	r7, r1
100067b8:	4338      	orrs	r0, r7
100067ba:	1c02      	adds	r2, r0, #0
100067bc:	e002      	b.n	100067c4 <__b2d+0x98>
100067be:	4321      	orrs	r1, r4
100067c0:	1c0b      	adds	r3, r1, #0
100067c2:	1c3a      	adds	r2, r7, #0
100067c4:	1c10      	adds	r0, r2, #0
100067c6:	1c19      	adds	r1, r3, #0
100067c8:	b003      	add	sp, #12
100067ca:	bdf0      	pop	{r4, r5, r6, r7, pc}
100067cc:	3ff00000 	.word	0x3ff00000

100067d0 <__d2b>:
100067d0:	b5f7      	push	{r0, r1, r2, r4, r5, r6, r7, lr}
100067d2:	1c1d      	adds	r5, r3, #0
100067d4:	2101      	movs	r1, #1
100067d6:	9f08      	ldr	r7, [sp, #32]
100067d8:	1c14      	adds	r4, r2, #0
100067da:	f7ff fcac 	bl	10006136 <_Balloc>
100067de:	032b      	lsls	r3, r5, #12
100067e0:	006d      	lsls	r5, r5, #1
100067e2:	1c06      	adds	r6, r0, #0
100067e4:	0b1b      	lsrs	r3, r3, #12
100067e6:	0d6d      	lsrs	r5, r5, #21
100067e8:	d002      	beq.n	100067f0 <__d2b+0x20>
100067ea:	2280      	movs	r2, #128	; 0x80
100067ec:	0352      	lsls	r2, r2, #13
100067ee:	4313      	orrs	r3, r2
100067f0:	9301      	str	r3, [sp, #4]
100067f2:	2c00      	cmp	r4, #0
100067f4:	d018      	beq.n	10006828 <__d2b+0x58>
100067f6:	4668      	mov	r0, sp
100067f8:	9400      	str	r4, [sp, #0]
100067fa:	f7ff fd84 	bl	10006306 <__lo0bits>
100067fe:	9c00      	ldr	r4, [sp, #0]
10006800:	2800      	cmp	r0, #0
10006802:	d009      	beq.n	10006818 <__d2b+0x48>
10006804:	2320      	movs	r3, #32
10006806:	9a01      	ldr	r2, [sp, #4]
10006808:	1a19      	subs	r1, r3, r0
1000680a:	1c13      	adds	r3, r2, #0
1000680c:	408b      	lsls	r3, r1
1000680e:	40c2      	lsrs	r2, r0
10006810:	4323      	orrs	r3, r4
10006812:	6173      	str	r3, [r6, #20]
10006814:	9201      	str	r2, [sp, #4]
10006816:	e000      	b.n	1000681a <__d2b+0x4a>
10006818:	6174      	str	r4, [r6, #20]
1000681a:	9c01      	ldr	r4, [sp, #4]
1000681c:	61b4      	str	r4, [r6, #24]
1000681e:	1e63      	subs	r3, r4, #1
10006820:	419c      	sbcs	r4, r3
10006822:	3401      	adds	r4, #1
10006824:	6134      	str	r4, [r6, #16]
10006826:	e007      	b.n	10006838 <__d2b+0x68>
10006828:	a801      	add	r0, sp, #4
1000682a:	f7ff fd6c 	bl	10006306 <__lo0bits>
1000682e:	2401      	movs	r4, #1
10006830:	9b01      	ldr	r3, [sp, #4]
10006832:	6134      	str	r4, [r6, #16]
10006834:	6173      	str	r3, [r6, #20]
10006836:	3020      	adds	r0, #32
10006838:	2d00      	cmp	r5, #0
1000683a:	d006      	beq.n	1000684a <__d2b+0x7a>
1000683c:	4b0b      	ldr	r3, [pc, #44]	; (1000686c <__d2b+0x9c>)
1000683e:	18ed      	adds	r5, r5, r3
10006840:	2335      	movs	r3, #53	; 0x35
10006842:	182d      	adds	r5, r5, r0
10006844:	603d      	str	r5, [r7, #0]
10006846:	1a18      	subs	r0, r3, r0
10006848:	e00b      	b.n	10006862 <__d2b+0x92>
1000684a:	4b09      	ldr	r3, [pc, #36]	; (10006870 <__d2b+0xa0>)
1000684c:	18c0      	adds	r0, r0, r3
1000684e:	4b09      	ldr	r3, [pc, #36]	; (10006874 <__d2b+0xa4>)
10006850:	6038      	str	r0, [r7, #0]
10006852:	18e3      	adds	r3, r4, r3
10006854:	009b      	lsls	r3, r3, #2
10006856:	18f3      	adds	r3, r6, r3
10006858:	6958      	ldr	r0, [r3, #20]
1000685a:	f7ff fd39 	bl	100062d0 <__hi0bits>
1000685e:	0164      	lsls	r4, r4, #5
10006860:	1a20      	subs	r0, r4, r0
10006862:	9b09      	ldr	r3, [sp, #36]	; 0x24
10006864:	6018      	str	r0, [r3, #0]
10006866:	1c30      	adds	r0, r6, #0
10006868:	bdfe      	pop	{r1, r2, r3, r4, r5, r6, r7, pc}
1000686a:	46c0      	nop			; (mov r8, r8)
1000686c:	fffffbcd 	.word	0xfffffbcd
10006870:	fffffbce 	.word	0xfffffbce
10006874:	3fffffff 	.word	0x3fffffff

10006878 <__ratio>:
10006878:	b5f0      	push	{r4, r5, r6, r7, lr}
1000687a:	b087      	sub	sp, #28
1000687c:	1c0e      	adds	r6, r1, #0
1000687e:	a904      	add	r1, sp, #16
10006880:	1c07      	adds	r7, r0, #0
10006882:	f7ff ff53 	bl	1000672c <__b2d>
10006886:	1c04      	adds	r4, r0, #0
10006888:	1c0d      	adds	r5, r1, #0
1000688a:	1c30      	adds	r0, r6, #0
1000688c:	a905      	add	r1, sp, #20
1000688e:	9400      	str	r4, [sp, #0]
10006890:	9501      	str	r5, [sp, #4]
10006892:	f7ff ff4b 	bl	1000672c <__b2d>
10006896:	9b04      	ldr	r3, [sp, #16]
10006898:	9a05      	ldr	r2, [sp, #20]
1000689a:	693f      	ldr	r7, [r7, #16]
1000689c:	1a9a      	subs	r2, r3, r2
1000689e:	6933      	ldr	r3, [r6, #16]
100068a0:	9002      	str	r0, [sp, #8]
100068a2:	9103      	str	r1, [sp, #12]
100068a4:	1afb      	subs	r3, r7, r3
100068a6:	015b      	lsls	r3, r3, #5
100068a8:	18d3      	adds	r3, r2, r3
100068aa:	2b00      	cmp	r3, #0
100068ac:	dd03      	ble.n	100068b6 <__ratio+0x3e>
100068ae:	051b      	lsls	r3, r3, #20
100068b0:	195b      	adds	r3, r3, r5
100068b2:	9301      	str	r3, [sp, #4]
100068b4:	e002      	b.n	100068bc <__ratio+0x44>
100068b6:	051b      	lsls	r3, r3, #20
100068b8:	1acb      	subs	r3, r1, r3
100068ba:	9303      	str	r3, [sp, #12]
100068bc:	9800      	ldr	r0, [sp, #0]
100068be:	9901      	ldr	r1, [sp, #4]
100068c0:	9a02      	ldr	r2, [sp, #8]
100068c2:	9b03      	ldr	r3, [sp, #12]
100068c4:	f000 fe2c 	bl	10007520 <__aeabi_ddiv>
100068c8:	b007      	add	sp, #28
100068ca:	bdf0      	pop	{r4, r5, r6, r7, pc}

100068cc <__copybits>:
100068cc:	1c13      	adds	r3, r2, #0
100068ce:	3901      	subs	r1, #1
100068d0:	b510      	push	{r4, lr}
100068d2:	1149      	asrs	r1, r1, #5
100068d4:	6912      	ldr	r2, [r2, #16]
100068d6:	3101      	adds	r1, #1
100068d8:	0089      	lsls	r1, r1, #2
100068da:	3314      	adds	r3, #20
100068dc:	0092      	lsls	r2, r2, #2
100068de:	1841      	adds	r1, r0, r1
100068e0:	189a      	adds	r2, r3, r2
100068e2:	4293      	cmp	r3, r2
100068e4:	d202      	bcs.n	100068ec <__copybits+0x20>
100068e6:	cb10      	ldmia	r3!, {r4}
100068e8:	c010      	stmia	r0!, {r4}
100068ea:	e7fa      	b.n	100068e2 <__copybits+0x16>
100068ec:	4288      	cmp	r0, r1
100068ee:	d202      	bcs.n	100068f6 <__copybits+0x2a>
100068f0:	2300      	movs	r3, #0
100068f2:	c008      	stmia	r0!, {r3}
100068f4:	e7fa      	b.n	100068ec <__copybits+0x20>
100068f6:	bd10      	pop	{r4, pc}

100068f8 <__any_on>:
100068f8:	b530      	push	{r4, r5, lr}
100068fa:	1c04      	adds	r4, r0, #0
100068fc:	6902      	ldr	r2, [r0, #16]
100068fe:	3414      	adds	r4, #20
10006900:	114b      	asrs	r3, r1, #5
10006902:	4293      	cmp	r3, r2
10006904:	dc0c      	bgt.n	10006920 <__any_on+0x28>
10006906:	da0c      	bge.n	10006922 <__any_on+0x2a>
10006908:	221f      	movs	r2, #31
1000690a:	4011      	ands	r1, r2
1000690c:	d009      	beq.n	10006922 <__any_on+0x2a>
1000690e:	009a      	lsls	r2, r3, #2
10006910:	5915      	ldr	r5, [r2, r4]
10006912:	2001      	movs	r0, #1
10006914:	1c2a      	adds	r2, r5, #0
10006916:	40ca      	lsrs	r2, r1
10006918:	408a      	lsls	r2, r1
1000691a:	42aa      	cmp	r2, r5
1000691c:	d10c      	bne.n	10006938 <__any_on+0x40>
1000691e:	e000      	b.n	10006922 <__any_on+0x2a>
10006920:	1c13      	adds	r3, r2, #0
10006922:	009b      	lsls	r3, r3, #2
10006924:	18e3      	adds	r3, r4, r3
10006926:	42a3      	cmp	r3, r4
10006928:	d905      	bls.n	10006936 <__any_on+0x3e>
1000692a:	3b04      	subs	r3, #4
1000692c:	681a      	ldr	r2, [r3, #0]
1000692e:	2a00      	cmp	r2, #0
10006930:	d0f9      	beq.n	10006926 <__any_on+0x2e>
10006932:	2001      	movs	r0, #1
10006934:	e000      	b.n	10006938 <__any_on+0x40>
10006936:	2000      	movs	r0, #0
10006938:	bd30      	pop	{r4, r5, pc}

1000693a <_calloc_r>:
1000693a:	434a      	muls	r2, r1
1000693c:	b538      	push	{r3, r4, r5, lr}
1000693e:	1c11      	adds	r1, r2, #0
10006940:	1c14      	adds	r4, r2, #0
10006942:	f000 f84f 	bl	100069e4 <_malloc_r>
10006946:	1e05      	subs	r5, r0, #0
10006948:	d003      	beq.n	10006952 <_calloc_r+0x18>
1000694a:	2100      	movs	r1, #0
1000694c:	1c22      	adds	r2, r4, #0
1000694e:	f7fc fcca 	bl	100032e6 <memset>
10006952:	1c28      	adds	r0, r5, #0
10006954:	bd38      	pop	{r3, r4, r5, pc}
	...

10006958 <_free_r>:
10006958:	b530      	push	{r4, r5, lr}
1000695a:	2900      	cmp	r1, #0
1000695c:	d03e      	beq.n	100069dc <_free_r+0x84>
1000695e:	3904      	subs	r1, #4
10006960:	680b      	ldr	r3, [r1, #0]
10006962:	2b00      	cmp	r3, #0
10006964:	da00      	bge.n	10006968 <_free_r+0x10>
10006966:	18c9      	adds	r1, r1, r3
10006968:	4a1d      	ldr	r2, [pc, #116]	; (100069e0 <_free_r+0x88>)
1000696a:	6813      	ldr	r3, [r2, #0]
1000696c:	1c14      	adds	r4, r2, #0
1000696e:	2b00      	cmp	r3, #0
10006970:	d102      	bne.n	10006978 <_free_r+0x20>
10006972:	604b      	str	r3, [r1, #4]
10006974:	6011      	str	r1, [r2, #0]
10006976:	e031      	b.n	100069dc <_free_r+0x84>
10006978:	4299      	cmp	r1, r3
1000697a:	d20d      	bcs.n	10006998 <_free_r+0x40>
1000697c:	6808      	ldr	r0, [r1, #0]
1000697e:	180a      	adds	r2, r1, r0
10006980:	429a      	cmp	r2, r3
10006982:	d103      	bne.n	1000698c <_free_r+0x34>
10006984:	6813      	ldr	r3, [r2, #0]
10006986:	18c3      	adds	r3, r0, r3
10006988:	600b      	str	r3, [r1, #0]
1000698a:	6853      	ldr	r3, [r2, #4]
1000698c:	604b      	str	r3, [r1, #4]
1000698e:	6021      	str	r1, [r4, #0]
10006990:	e024      	b.n	100069dc <_free_r+0x84>
10006992:	428a      	cmp	r2, r1
10006994:	d803      	bhi.n	1000699e <_free_r+0x46>
10006996:	1c13      	adds	r3, r2, #0
10006998:	685a      	ldr	r2, [r3, #4]
1000699a:	2a00      	cmp	r2, #0
1000699c:	d1f9      	bne.n	10006992 <_free_r+0x3a>
1000699e:	681d      	ldr	r5, [r3, #0]
100069a0:	195c      	adds	r4, r3, r5
100069a2:	428c      	cmp	r4, r1
100069a4:	d10b      	bne.n	100069be <_free_r+0x66>
100069a6:	6809      	ldr	r1, [r1, #0]
100069a8:	1869      	adds	r1, r5, r1
100069aa:	1858      	adds	r0, r3, r1
100069ac:	6019      	str	r1, [r3, #0]
100069ae:	4290      	cmp	r0, r2
100069b0:	d114      	bne.n	100069dc <_free_r+0x84>
100069b2:	6810      	ldr	r0, [r2, #0]
100069b4:	6852      	ldr	r2, [r2, #4]
100069b6:	1809      	adds	r1, r1, r0
100069b8:	6019      	str	r1, [r3, #0]
100069ba:	605a      	str	r2, [r3, #4]
100069bc:	e00e      	b.n	100069dc <_free_r+0x84>
100069be:	428c      	cmp	r4, r1
100069c0:	d902      	bls.n	100069c8 <_free_r+0x70>
100069c2:	230c      	movs	r3, #12
100069c4:	6003      	str	r3, [r0, #0]
100069c6:	e009      	b.n	100069dc <_free_r+0x84>
100069c8:	6808      	ldr	r0, [r1, #0]
100069ca:	180c      	adds	r4, r1, r0
100069cc:	4294      	cmp	r4, r2
100069ce:	d103      	bne.n	100069d8 <_free_r+0x80>
100069d0:	6814      	ldr	r4, [r2, #0]
100069d2:	6852      	ldr	r2, [r2, #4]
100069d4:	1900      	adds	r0, r0, r4
100069d6:	6008      	str	r0, [r1, #0]
100069d8:	604a      	str	r2, [r1, #4]
100069da:	6059      	str	r1, [r3, #4]
100069dc:	bd30      	pop	{r4, r5, pc}
100069de:	46c0      	nop			; (mov r8, r8)
100069e0:	20001930 	.word	0x20001930

100069e4 <_malloc_r>:
100069e4:	2303      	movs	r3, #3
100069e6:	b570      	push	{r4, r5, r6, lr}
100069e8:	1ccc      	adds	r4, r1, #3
100069ea:	439c      	bics	r4, r3
100069ec:	3408      	adds	r4, #8
100069ee:	1c05      	adds	r5, r0, #0
100069f0:	2c0c      	cmp	r4, #12
100069f2:	d201      	bcs.n	100069f8 <_malloc_r+0x14>
100069f4:	240c      	movs	r4, #12
100069f6:	e005      	b.n	10006a04 <_malloc_r+0x20>
100069f8:	2c00      	cmp	r4, #0
100069fa:	da03      	bge.n	10006a04 <_malloc_r+0x20>
100069fc:	230c      	movs	r3, #12
100069fe:	2000      	movs	r0, #0
10006a00:	602b      	str	r3, [r5, #0]
10006a02:	e042      	b.n	10006a8a <_malloc_r+0xa6>
10006a04:	428c      	cmp	r4, r1
10006a06:	d3f9      	bcc.n	100069fc <_malloc_r+0x18>
10006a08:	4a20      	ldr	r2, [pc, #128]	; (10006a8c <_malloc_r+0xa8>)
10006a0a:	6813      	ldr	r3, [r2, #0]
10006a0c:	1c10      	adds	r0, r2, #0
10006a0e:	1c19      	adds	r1, r3, #0
10006a10:	2900      	cmp	r1, #0
10006a12:	d013      	beq.n	10006a3c <_malloc_r+0x58>
10006a14:	680a      	ldr	r2, [r1, #0]
10006a16:	1b12      	subs	r2, r2, r4
10006a18:	d40d      	bmi.n	10006a36 <_malloc_r+0x52>
10006a1a:	2a0b      	cmp	r2, #11
10006a1c:	d902      	bls.n	10006a24 <_malloc_r+0x40>
10006a1e:	600a      	str	r2, [r1, #0]
10006a20:	188b      	adds	r3, r1, r2
10006a22:	e01f      	b.n	10006a64 <_malloc_r+0x80>
10006a24:	428b      	cmp	r3, r1
10006a26:	d102      	bne.n	10006a2e <_malloc_r+0x4a>
10006a28:	685a      	ldr	r2, [r3, #4]
10006a2a:	6002      	str	r2, [r0, #0]
10006a2c:	e01b      	b.n	10006a66 <_malloc_r+0x82>
10006a2e:	684a      	ldr	r2, [r1, #4]
10006a30:	605a      	str	r2, [r3, #4]
10006a32:	1c0b      	adds	r3, r1, #0
10006a34:	e017      	b.n	10006a66 <_malloc_r+0x82>
10006a36:	1c0b      	adds	r3, r1, #0
10006a38:	6849      	ldr	r1, [r1, #4]
10006a3a:	e7e9      	b.n	10006a10 <_malloc_r+0x2c>
10006a3c:	4e14      	ldr	r6, [pc, #80]	; (10006a90 <_malloc_r+0xac>)
10006a3e:	6833      	ldr	r3, [r6, #0]
10006a40:	2b00      	cmp	r3, #0
10006a42:	d103      	bne.n	10006a4c <_malloc_r+0x68>
10006a44:	1c28      	adds	r0, r5, #0
10006a46:	f000 f97b 	bl	10006d40 <_sbrk_r>
10006a4a:	6030      	str	r0, [r6, #0]
10006a4c:	1c28      	adds	r0, r5, #0
10006a4e:	1c21      	adds	r1, r4, #0
10006a50:	f000 f976 	bl	10006d40 <_sbrk_r>
10006a54:	1c03      	adds	r3, r0, #0
10006a56:	1c42      	adds	r2, r0, #1
10006a58:	d0d0      	beq.n	100069fc <_malloc_r+0x18>
10006a5a:	2203      	movs	r2, #3
10006a5c:	1cc6      	adds	r6, r0, #3
10006a5e:	4396      	bics	r6, r2
10006a60:	4286      	cmp	r6, r0
10006a62:	d10a      	bne.n	10006a7a <_malloc_r+0x96>
10006a64:	601c      	str	r4, [r3, #0]
10006a66:	1c18      	adds	r0, r3, #0
10006a68:	2107      	movs	r1, #7
10006a6a:	300b      	adds	r0, #11
10006a6c:	1d1a      	adds	r2, r3, #4
10006a6e:	4388      	bics	r0, r1
10006a70:	1a82      	subs	r2, r0, r2
10006a72:	d00a      	beq.n	10006a8a <_malloc_r+0xa6>
10006a74:	4251      	negs	r1, r2
10006a76:	5099      	str	r1, [r3, r2]
10006a78:	e007      	b.n	10006a8a <_malloc_r+0xa6>
10006a7a:	1a31      	subs	r1, r6, r0
10006a7c:	1c28      	adds	r0, r5, #0
10006a7e:	f000 f95f 	bl	10006d40 <_sbrk_r>
10006a82:	1c43      	adds	r3, r0, #1
10006a84:	d0ba      	beq.n	100069fc <_malloc_r+0x18>
10006a86:	1c33      	adds	r3, r6, #0
10006a88:	e7ec      	b.n	10006a64 <_malloc_r+0x80>
10006a8a:	bd70      	pop	{r4, r5, r6, pc}
10006a8c:	20001930 	.word	0x20001930
10006a90:	2000192c 	.word	0x2000192c

10006a94 <__ssputs_r>:
10006a94:	b5f0      	push	{r4, r5, r6, r7, lr}
10006a96:	688e      	ldr	r6, [r1, #8]
10006a98:	b085      	sub	sp, #20
10006a9a:	1c07      	adds	r7, r0, #0
10006a9c:	1c0c      	adds	r4, r1, #0
10006a9e:	9203      	str	r2, [sp, #12]
10006aa0:	9301      	str	r3, [sp, #4]
10006aa2:	42b3      	cmp	r3, r6
10006aa4:	d345      	bcc.n	10006b32 <__ssputs_r+0x9e>
10006aa6:	2390      	movs	r3, #144	; 0x90
10006aa8:	898a      	ldrh	r2, [r1, #12]
10006aaa:	00db      	lsls	r3, r3, #3
10006aac:	421a      	tst	r2, r3
10006aae:	d03d      	beq.n	10006b2c <__ssputs_r+0x98>
10006ab0:	2503      	movs	r5, #3
10006ab2:	6909      	ldr	r1, [r1, #16]
10006ab4:	6823      	ldr	r3, [r4, #0]
10006ab6:	9801      	ldr	r0, [sp, #4]
10006ab8:	1a5b      	subs	r3, r3, r1
10006aba:	9302      	str	r3, [sp, #8]
10006abc:	6963      	ldr	r3, [r4, #20]
10006abe:	435d      	muls	r5, r3
10006ac0:	0feb      	lsrs	r3, r5, #31
10006ac2:	195d      	adds	r5, r3, r5
10006ac4:	9b02      	ldr	r3, [sp, #8]
10006ac6:	106d      	asrs	r5, r5, #1
10006ac8:	3301      	adds	r3, #1
10006aca:	181b      	adds	r3, r3, r0
10006acc:	429d      	cmp	r5, r3
10006ace:	d200      	bcs.n	10006ad2 <__ssputs_r+0x3e>
10006ad0:	1c1d      	adds	r5, r3, #0
10006ad2:	1c38      	adds	r0, r7, #0
10006ad4:	0553      	lsls	r3, r2, #21
10006ad6:	d50f      	bpl.n	10006af8 <__ssputs_r+0x64>
10006ad8:	1c29      	adds	r1, r5, #0
10006ada:	f7ff ff83 	bl	100069e4 <_malloc_r>
10006ade:	1e06      	subs	r6, r0, #0
10006ae0:	d013      	beq.n	10006b0a <__ssputs_r+0x76>
10006ae2:	9a02      	ldr	r2, [sp, #8]
10006ae4:	6921      	ldr	r1, [r4, #16]
10006ae6:	f7fc fbf5 	bl	100032d4 <memcpy>
10006aea:	89a2      	ldrh	r2, [r4, #12]
10006aec:	4b18      	ldr	r3, [pc, #96]	; (10006b50 <__ssputs_r+0xbc>)
10006aee:	4013      	ands	r3, r2
10006af0:	2280      	movs	r2, #128	; 0x80
10006af2:	4313      	orrs	r3, r2
10006af4:	81a3      	strh	r3, [r4, #12]
10006af6:	e011      	b.n	10006b1c <__ssputs_r+0x88>
10006af8:	1c2a      	adds	r2, r5, #0
10006afa:	f000 f95b 	bl	10006db4 <_realloc_r>
10006afe:	1e06      	subs	r6, r0, #0
10006b00:	d10c      	bne.n	10006b1c <__ssputs_r+0x88>
10006b02:	1c38      	adds	r0, r7, #0
10006b04:	6921      	ldr	r1, [r4, #16]
10006b06:	f7ff ff27 	bl	10006958 <_free_r>
10006b0a:	230c      	movs	r3, #12
10006b0c:	2240      	movs	r2, #64	; 0x40
10006b0e:	2001      	movs	r0, #1
10006b10:	603b      	str	r3, [r7, #0]
10006b12:	89a3      	ldrh	r3, [r4, #12]
10006b14:	4240      	negs	r0, r0
10006b16:	4313      	orrs	r3, r2
10006b18:	81a3      	strh	r3, [r4, #12]
10006b1a:	e017      	b.n	10006b4c <__ssputs_r+0xb8>
10006b1c:	9b02      	ldr	r3, [sp, #8]
10006b1e:	6126      	str	r6, [r4, #16]
10006b20:	18f6      	adds	r6, r6, r3
10006b22:	6026      	str	r6, [r4, #0]
10006b24:	6165      	str	r5, [r4, #20]
10006b26:	9e01      	ldr	r6, [sp, #4]
10006b28:	1aed      	subs	r5, r5, r3
10006b2a:	60a5      	str	r5, [r4, #8]
10006b2c:	9b01      	ldr	r3, [sp, #4]
10006b2e:	42b3      	cmp	r3, r6
10006b30:	d200      	bcs.n	10006b34 <__ssputs_r+0xa0>
10006b32:	9e01      	ldr	r6, [sp, #4]
10006b34:	1c32      	adds	r2, r6, #0
10006b36:	6820      	ldr	r0, [r4, #0]
10006b38:	9903      	ldr	r1, [sp, #12]
10006b3a:	f000 f927 	bl	10006d8c <memmove>
10006b3e:	2000      	movs	r0, #0
10006b40:	68a3      	ldr	r3, [r4, #8]
10006b42:	1b9b      	subs	r3, r3, r6
10006b44:	60a3      	str	r3, [r4, #8]
10006b46:	6823      	ldr	r3, [r4, #0]
10006b48:	199e      	adds	r6, r3, r6
10006b4a:	6026      	str	r6, [r4, #0]
10006b4c:	b005      	add	sp, #20
10006b4e:	bdf0      	pop	{r4, r5, r6, r7, pc}
10006b50:	fffffb7f 	.word	0xfffffb7f

10006b54 <_svfiprintf_r>:
10006b54:	b5f0      	push	{r4, r5, r6, r7, lr}
10006b56:	b09f      	sub	sp, #124	; 0x7c
10006b58:	9002      	str	r0, [sp, #8]
10006b5a:	9305      	str	r3, [sp, #20]
10006b5c:	898b      	ldrh	r3, [r1, #12]
10006b5e:	1c0e      	adds	r6, r1, #0
10006b60:	1c17      	adds	r7, r2, #0
10006b62:	061b      	lsls	r3, r3, #24
10006b64:	d510      	bpl.n	10006b88 <_svfiprintf_r+0x34>
10006b66:	690b      	ldr	r3, [r1, #16]
10006b68:	2b00      	cmp	r3, #0
10006b6a:	d10d      	bne.n	10006b88 <_svfiprintf_r+0x34>
10006b6c:	2140      	movs	r1, #64	; 0x40
10006b6e:	f7ff ff39 	bl	100069e4 <_malloc_r>
10006b72:	6030      	str	r0, [r6, #0]
10006b74:	6130      	str	r0, [r6, #16]
10006b76:	2800      	cmp	r0, #0
10006b78:	d104      	bne.n	10006b84 <_svfiprintf_r+0x30>
10006b7a:	230c      	movs	r3, #12
10006b7c:	9a02      	ldr	r2, [sp, #8]
10006b7e:	3801      	subs	r0, #1
10006b80:	6013      	str	r3, [r2, #0]
10006b82:	e0d0      	b.n	10006d26 <_svfiprintf_r+0x1d2>
10006b84:	2340      	movs	r3, #64	; 0x40
10006b86:	6173      	str	r3, [r6, #20]
10006b88:	2300      	movs	r3, #0
10006b8a:	ad06      	add	r5, sp, #24
10006b8c:	616b      	str	r3, [r5, #20]
10006b8e:	3320      	adds	r3, #32
10006b90:	766b      	strb	r3, [r5, #25]
10006b92:	3310      	adds	r3, #16
10006b94:	76ab      	strb	r3, [r5, #26]
10006b96:	1c3c      	adds	r4, r7, #0
10006b98:	7823      	ldrb	r3, [r4, #0]
10006b9a:	2b00      	cmp	r3, #0
10006b9c:	d103      	bne.n	10006ba6 <_svfiprintf_r+0x52>
10006b9e:	1be3      	subs	r3, r4, r7
10006ba0:	9304      	str	r3, [sp, #16]
10006ba2:	d012      	beq.n	10006bca <_svfiprintf_r+0x76>
10006ba4:	e003      	b.n	10006bae <_svfiprintf_r+0x5a>
10006ba6:	2b25      	cmp	r3, #37	; 0x25
10006ba8:	d0f9      	beq.n	10006b9e <_svfiprintf_r+0x4a>
10006baa:	3401      	adds	r4, #1
10006bac:	e7f4      	b.n	10006b98 <_svfiprintf_r+0x44>
10006bae:	9b04      	ldr	r3, [sp, #16]
10006bb0:	9802      	ldr	r0, [sp, #8]
10006bb2:	1c31      	adds	r1, r6, #0
10006bb4:	1c3a      	adds	r2, r7, #0
10006bb6:	f7ff ff6d 	bl	10006a94 <__ssputs_r>
10006bba:	1c43      	adds	r3, r0, #1
10006bbc:	d100      	bne.n	10006bc0 <_svfiprintf_r+0x6c>
10006bbe:	e0ac      	b.n	10006d1a <_svfiprintf_r+0x1c6>
10006bc0:	696a      	ldr	r2, [r5, #20]
10006bc2:	9b04      	ldr	r3, [sp, #16]
10006bc4:	4694      	mov	ip, r2
10006bc6:	4463      	add	r3, ip
10006bc8:	616b      	str	r3, [r5, #20]
10006bca:	7823      	ldrb	r3, [r4, #0]
10006bcc:	2b00      	cmp	r3, #0
10006bce:	d100      	bne.n	10006bd2 <_svfiprintf_r+0x7e>
10006bd0:	e0a3      	b.n	10006d1a <_svfiprintf_r+0x1c6>
10006bd2:	2201      	movs	r2, #1
10006bd4:	2300      	movs	r3, #0
10006bd6:	4252      	negs	r2, r2
10006bd8:	606a      	str	r2, [r5, #4]
10006bda:	a902      	add	r1, sp, #8
10006bdc:	3254      	adds	r2, #84	; 0x54
10006bde:	1852      	adds	r2, r2, r1
10006be0:	3401      	adds	r4, #1
10006be2:	602b      	str	r3, [r5, #0]
10006be4:	60eb      	str	r3, [r5, #12]
10006be6:	60ab      	str	r3, [r5, #8]
10006be8:	7013      	strb	r3, [r2, #0]
10006bea:	65ab      	str	r3, [r5, #88]	; 0x58
10006bec:	4f4f      	ldr	r7, [pc, #316]	; (10006d2c <_svfiprintf_r+0x1d8>)
10006bee:	7821      	ldrb	r1, [r4, #0]
10006bf0:	1c38      	adds	r0, r7, #0
10006bf2:	2205      	movs	r2, #5
10006bf4:	f7ff fa94 	bl	10006120 <memchr>
10006bf8:	2800      	cmp	r0, #0
10006bfa:	d008      	beq.n	10006c0e <_svfiprintf_r+0xba>
10006bfc:	1bc0      	subs	r0, r0, r7
10006bfe:	2701      	movs	r7, #1
10006c00:	4087      	lsls	r7, r0
10006c02:	1c38      	adds	r0, r7, #0
10006c04:	682b      	ldr	r3, [r5, #0]
10006c06:	3401      	adds	r4, #1
10006c08:	4318      	orrs	r0, r3
10006c0a:	6028      	str	r0, [r5, #0]
10006c0c:	e7ee      	b.n	10006bec <_svfiprintf_r+0x98>
10006c0e:	682b      	ldr	r3, [r5, #0]
10006c10:	06da      	lsls	r2, r3, #27
10006c12:	d504      	bpl.n	10006c1e <_svfiprintf_r+0xca>
10006c14:	2253      	movs	r2, #83	; 0x53
10006c16:	2120      	movs	r1, #32
10006c18:	a802      	add	r0, sp, #8
10006c1a:	1812      	adds	r2, r2, r0
10006c1c:	7011      	strb	r1, [r2, #0]
10006c1e:	071a      	lsls	r2, r3, #28
10006c20:	d504      	bpl.n	10006c2c <_svfiprintf_r+0xd8>
10006c22:	2253      	movs	r2, #83	; 0x53
10006c24:	212b      	movs	r1, #43	; 0x2b
10006c26:	a802      	add	r0, sp, #8
10006c28:	1812      	adds	r2, r2, r0
10006c2a:	7011      	strb	r1, [r2, #0]
10006c2c:	7822      	ldrb	r2, [r4, #0]
10006c2e:	2a2a      	cmp	r2, #42	; 0x2a
10006c30:	d001      	beq.n	10006c36 <_svfiprintf_r+0xe2>
10006c32:	9b09      	ldr	r3, [sp, #36]	; 0x24
10006c34:	e00e      	b.n	10006c54 <_svfiprintf_r+0x100>
10006c36:	9a05      	ldr	r2, [sp, #20]
10006c38:	1d11      	adds	r1, r2, #4
10006c3a:	6812      	ldr	r2, [r2, #0]
10006c3c:	9105      	str	r1, [sp, #20]
10006c3e:	2a00      	cmp	r2, #0
10006c40:	db01      	blt.n	10006c46 <_svfiprintf_r+0xf2>
10006c42:	9209      	str	r2, [sp, #36]	; 0x24
10006c44:	e004      	b.n	10006c50 <_svfiprintf_r+0xfc>
10006c46:	4252      	negs	r2, r2
10006c48:	60ea      	str	r2, [r5, #12]
10006c4a:	2202      	movs	r2, #2
10006c4c:	4313      	orrs	r3, r2
10006c4e:	602b      	str	r3, [r5, #0]
10006c50:	3401      	adds	r4, #1
10006c52:	e009      	b.n	10006c68 <_svfiprintf_r+0x114>
10006c54:	7822      	ldrb	r2, [r4, #0]
10006c56:	3a30      	subs	r2, #48	; 0x30
10006c58:	2a09      	cmp	r2, #9
10006c5a:	d804      	bhi.n	10006c66 <_svfiprintf_r+0x112>
10006c5c:	210a      	movs	r1, #10
10006c5e:	434b      	muls	r3, r1
10006c60:	3401      	adds	r4, #1
10006c62:	189b      	adds	r3, r3, r2
10006c64:	e7f6      	b.n	10006c54 <_svfiprintf_r+0x100>
10006c66:	9309      	str	r3, [sp, #36]	; 0x24
10006c68:	7823      	ldrb	r3, [r4, #0]
10006c6a:	2b2e      	cmp	r3, #46	; 0x2e
10006c6c:	d118      	bne.n	10006ca0 <_svfiprintf_r+0x14c>
10006c6e:	7863      	ldrb	r3, [r4, #1]
10006c70:	2b2a      	cmp	r3, #42	; 0x2a
10006c72:	d109      	bne.n	10006c88 <_svfiprintf_r+0x134>
10006c74:	9b05      	ldr	r3, [sp, #20]
10006c76:	3402      	adds	r4, #2
10006c78:	1d1a      	adds	r2, r3, #4
10006c7a:	681b      	ldr	r3, [r3, #0]
10006c7c:	9205      	str	r2, [sp, #20]
10006c7e:	2b00      	cmp	r3, #0
10006c80:	da0d      	bge.n	10006c9e <_svfiprintf_r+0x14a>
10006c82:	2301      	movs	r3, #1
10006c84:	425b      	negs	r3, r3
10006c86:	e00a      	b.n	10006c9e <_svfiprintf_r+0x14a>
10006c88:	2300      	movs	r3, #0
10006c8a:	3401      	adds	r4, #1
10006c8c:	7822      	ldrb	r2, [r4, #0]
10006c8e:	3a30      	subs	r2, #48	; 0x30
10006c90:	2a09      	cmp	r2, #9
10006c92:	d804      	bhi.n	10006c9e <_svfiprintf_r+0x14a>
10006c94:	210a      	movs	r1, #10
10006c96:	434b      	muls	r3, r1
10006c98:	3401      	adds	r4, #1
10006c9a:	189b      	adds	r3, r3, r2
10006c9c:	e7f6      	b.n	10006c8c <_svfiprintf_r+0x138>
10006c9e:	9307      	str	r3, [sp, #28]
10006ca0:	4f23      	ldr	r7, [pc, #140]	; (10006d30 <_svfiprintf_r+0x1dc>)
10006ca2:	7821      	ldrb	r1, [r4, #0]
10006ca4:	1c38      	adds	r0, r7, #0
10006ca6:	2203      	movs	r2, #3
10006ca8:	f7ff fa3a 	bl	10006120 <memchr>
10006cac:	2800      	cmp	r0, #0
10006cae:	d007      	beq.n	10006cc0 <_svfiprintf_r+0x16c>
10006cb0:	1bc0      	subs	r0, r0, r7
10006cb2:	2740      	movs	r7, #64	; 0x40
10006cb4:	4087      	lsls	r7, r0
10006cb6:	1c38      	adds	r0, r7, #0
10006cb8:	682b      	ldr	r3, [r5, #0]
10006cba:	3401      	adds	r4, #1
10006cbc:	4318      	orrs	r0, r3
10006cbe:	6028      	str	r0, [r5, #0]
10006cc0:	7821      	ldrb	r1, [r4, #0]
10006cc2:	481c      	ldr	r0, [pc, #112]	; (10006d34 <_svfiprintf_r+0x1e0>)
10006cc4:	2206      	movs	r2, #6
10006cc6:	1c67      	adds	r7, r4, #1
10006cc8:	7629      	strb	r1, [r5, #24]
10006cca:	f7ff fa29 	bl	10006120 <memchr>
10006cce:	2800      	cmp	r0, #0
10006cd0:	d012      	beq.n	10006cf8 <_svfiprintf_r+0x1a4>
10006cd2:	4b19      	ldr	r3, [pc, #100]	; (10006d38 <_svfiprintf_r+0x1e4>)
10006cd4:	2b00      	cmp	r3, #0
10006cd6:	d106      	bne.n	10006ce6 <_svfiprintf_r+0x192>
10006cd8:	2207      	movs	r2, #7
10006cda:	9b05      	ldr	r3, [sp, #20]
10006cdc:	3307      	adds	r3, #7
10006cde:	4393      	bics	r3, r2
10006ce0:	3308      	adds	r3, #8
10006ce2:	9305      	str	r3, [sp, #20]
10006ce4:	e014      	b.n	10006d10 <_svfiprintf_r+0x1bc>
10006ce6:	ab05      	add	r3, sp, #20
10006ce8:	9300      	str	r3, [sp, #0]
10006cea:	9802      	ldr	r0, [sp, #8]
10006cec:	1c29      	adds	r1, r5, #0
10006cee:	1c32      	adds	r2, r6, #0
10006cf0:	4b12      	ldr	r3, [pc, #72]	; (10006d3c <_svfiprintf_r+0x1e8>)
10006cf2:	f7fc fb95 	bl	10003420 <_printf_float>
10006cf6:	e007      	b.n	10006d08 <_svfiprintf_r+0x1b4>
10006cf8:	ab05      	add	r3, sp, #20
10006cfa:	9300      	str	r3, [sp, #0]
10006cfc:	9802      	ldr	r0, [sp, #8]
10006cfe:	1c29      	adds	r1, r5, #0
10006d00:	1c32      	adds	r2, r6, #0
10006d02:	4b0e      	ldr	r3, [pc, #56]	; (10006d3c <_svfiprintf_r+0x1e8>)
10006d04:	f7fc fe32 	bl	1000396c <_printf_i>
10006d08:	9003      	str	r0, [sp, #12]
10006d0a:	9b03      	ldr	r3, [sp, #12]
10006d0c:	3301      	adds	r3, #1
10006d0e:	d004      	beq.n	10006d1a <_svfiprintf_r+0x1c6>
10006d10:	696b      	ldr	r3, [r5, #20]
10006d12:	9a03      	ldr	r2, [sp, #12]
10006d14:	189b      	adds	r3, r3, r2
10006d16:	616b      	str	r3, [r5, #20]
10006d18:	e73d      	b.n	10006b96 <_svfiprintf_r+0x42>
10006d1a:	89b3      	ldrh	r3, [r6, #12]
10006d1c:	980b      	ldr	r0, [sp, #44]	; 0x2c
10006d1e:	065b      	lsls	r3, r3, #25
10006d20:	d501      	bpl.n	10006d26 <_svfiprintf_r+0x1d2>
10006d22:	2001      	movs	r0, #1
10006d24:	4240      	negs	r0, r0
10006d26:	b01f      	add	sp, #124	; 0x7c
10006d28:	bdf0      	pop	{r4, r5, r6, r7, pc}
10006d2a:	46c0      	nop			; (mov r8, r8)
10006d2c:	10009944 	.word	0x10009944
10006d30:	1000994a 	.word	0x1000994a
10006d34:	1000994e 	.word	0x1000994e
10006d38:	10003421 	.word	0x10003421
10006d3c:	10006a95 	.word	0x10006a95

10006d40 <_sbrk_r>:
10006d40:	b538      	push	{r3, r4, r5, lr}
10006d42:	2300      	movs	r3, #0
10006d44:	4c06      	ldr	r4, [pc, #24]	; (10006d60 <_sbrk_r+0x20>)
10006d46:	1c05      	adds	r5, r0, #0
10006d48:	1c08      	adds	r0, r1, #0
10006d4a:	6023      	str	r3, [r4, #0]
10006d4c:	f7fa ff3c 	bl	10001bc8 <_sbrk>
10006d50:	1c43      	adds	r3, r0, #1
10006d52:	d103      	bne.n	10006d5c <_sbrk_r+0x1c>
10006d54:	6823      	ldr	r3, [r4, #0]
10006d56:	2b00      	cmp	r3, #0
10006d58:	d000      	beq.n	10006d5c <_sbrk_r+0x1c>
10006d5a:	602b      	str	r3, [r5, #0]
10006d5c:	bd38      	pop	{r3, r4, r5, pc}
10006d5e:	46c0      	nop			; (mov r8, r8)
10006d60:	20001a1c 	.word	0x20001a1c

10006d64 <strncmp>:
10006d64:	2300      	movs	r3, #0
10006d66:	b530      	push	{r4, r5, lr}
10006d68:	429a      	cmp	r2, r3
10006d6a:	d00d      	beq.n	10006d88 <strncmp+0x24>
10006d6c:	3a01      	subs	r2, #1
10006d6e:	5cc4      	ldrb	r4, [r0, r3]
10006d70:	5ccd      	ldrb	r5, [r1, r3]
10006d72:	42ac      	cmp	r4, r5
10006d74:	d102      	bne.n	10006d7c <strncmp+0x18>
10006d76:	4293      	cmp	r3, r2
10006d78:	d102      	bne.n	10006d80 <strncmp+0x1c>
10006d7a:	1c25      	adds	r5, r4, #0
10006d7c:	1b63      	subs	r3, r4, r5
10006d7e:	e003      	b.n	10006d88 <strncmp+0x24>
10006d80:	3301      	adds	r3, #1
10006d82:	2c00      	cmp	r4, #0
10006d84:	d1f3      	bne.n	10006d6e <strncmp+0xa>
10006d86:	e7f8      	b.n	10006d7a <strncmp+0x16>
10006d88:	1c18      	adds	r0, r3, #0
10006d8a:	bd30      	pop	{r4, r5, pc}

10006d8c <memmove>:
10006d8c:	b510      	push	{r4, lr}
10006d8e:	4281      	cmp	r1, r0
10006d90:	d208      	bcs.n	10006da4 <memmove+0x18>
10006d92:	188b      	adds	r3, r1, r2
10006d94:	4298      	cmp	r0, r3
10006d96:	d205      	bcs.n	10006da4 <memmove+0x18>
10006d98:	1a9b      	subs	r3, r3, r2
10006d9a:	3a01      	subs	r2, #1
10006d9c:	d309      	bcc.n	10006db2 <memmove+0x26>
10006d9e:	5c99      	ldrb	r1, [r3, r2]
10006da0:	5481      	strb	r1, [r0, r2]
10006da2:	e7fa      	b.n	10006d9a <memmove+0xe>
10006da4:	2300      	movs	r3, #0
10006da6:	4293      	cmp	r3, r2
10006da8:	d003      	beq.n	10006db2 <memmove+0x26>
10006daa:	5ccc      	ldrb	r4, [r1, r3]
10006dac:	54c4      	strb	r4, [r0, r3]
10006dae:	3301      	adds	r3, #1
10006db0:	e7f9      	b.n	10006da6 <memmove+0x1a>
10006db2:	bd10      	pop	{r4, pc}

10006db4 <_realloc_r>:
10006db4:	b5f8      	push	{r3, r4, r5, r6, r7, lr}
10006db6:	1c06      	adds	r6, r0, #0
10006db8:	1c0c      	adds	r4, r1, #0
10006dba:	1c15      	adds	r5, r2, #0
10006dbc:	2900      	cmp	r1, #0
10006dbe:	d104      	bne.n	10006dca <_realloc_r+0x16>
10006dc0:	1c11      	adds	r1, r2, #0
10006dc2:	f7ff fe0f 	bl	100069e4 <_malloc_r>
10006dc6:	1c04      	adds	r4, r0, #0
10006dc8:	e018      	b.n	10006dfc <_realloc_r+0x48>
10006dca:	2a00      	cmp	r2, #0
10006dcc:	d103      	bne.n	10006dd6 <_realloc_r+0x22>
10006dce:	f7ff fdc3 	bl	10006958 <_free_r>
10006dd2:	1c2c      	adds	r4, r5, #0
10006dd4:	e012      	b.n	10006dfc <_realloc_r+0x48>
10006dd6:	f000 f813 	bl	10006e00 <_malloc_usable_size_r>
10006dda:	42a8      	cmp	r0, r5
10006ddc:	d20e      	bcs.n	10006dfc <_realloc_r+0x48>
10006dde:	1c30      	adds	r0, r6, #0
10006de0:	1c29      	adds	r1, r5, #0
10006de2:	f7ff fdff 	bl	100069e4 <_malloc_r>
10006de6:	1e07      	subs	r7, r0, #0
10006de8:	d007      	beq.n	10006dfa <_realloc_r+0x46>
10006dea:	1c21      	adds	r1, r4, #0
10006dec:	1c2a      	adds	r2, r5, #0
10006dee:	f7fc fa71 	bl	100032d4 <memcpy>
10006df2:	1c30      	adds	r0, r6, #0
10006df4:	1c21      	adds	r1, r4, #0
10006df6:	f7ff fdaf 	bl	10006958 <_free_r>
10006dfa:	1c3c      	adds	r4, r7, #0
10006dfc:	1c20      	adds	r0, r4, #0
10006dfe:	bdf8      	pop	{r3, r4, r5, r6, r7, pc}

10006e00 <_malloc_usable_size_r>:
10006e00:	1f0b      	subs	r3, r1, #4
10006e02:	681a      	ldr	r2, [r3, #0]
10006e04:	1f10      	subs	r0, r2, #4
10006e06:	2a00      	cmp	r2, #0
10006e08:	da04      	bge.n	10006e14 <_malloc_usable_size_r+0x14>
10006e0a:	1889      	adds	r1, r1, r2
10006e0c:	3904      	subs	r1, #4
10006e0e:	680b      	ldr	r3, [r1, #0]
10006e10:	18d0      	adds	r0, r2, r3
10006e12:	3804      	subs	r0, #4
10006e14:	4770      	bx	lr
	...

10006e18 <__aeabi_cdrcmple>:
10006e18:	4684      	mov	ip, r0
10006e1a:	1c10      	adds	r0, r2, #0
10006e1c:	4662      	mov	r2, ip
10006e1e:	468c      	mov	ip, r1
10006e20:	1c19      	adds	r1, r3, #0
10006e22:	4663      	mov	r3, ip
10006e24:	e000      	b.n	10006e28 <__aeabi_cdcmpeq>
10006e26:	46c0      	nop			; (mov r8, r8)

10006e28 <__aeabi_cdcmpeq>:
10006e28:	b51f      	push	{r0, r1, r2, r3, r4, lr}
10006e2a:	f000 ff51 	bl	10007cd0 <__ledf2>
10006e2e:	2800      	cmp	r0, #0
10006e30:	d401      	bmi.n	10006e36 <__aeabi_cdcmpeq+0xe>
10006e32:	2100      	movs	r1, #0
10006e34:	42c8      	cmn	r0, r1
10006e36:	bd1f      	pop	{r0, r1, r2, r3, r4, pc}

10006e38 <__aeabi_dcmpeq>:
10006e38:	b510      	push	{r4, lr}
10006e3a:	f000 fe95 	bl	10007b68 <__eqdf2>
10006e3e:	4240      	negs	r0, r0
10006e40:	3001      	adds	r0, #1
10006e42:	bd10      	pop	{r4, pc}

10006e44 <__aeabi_dcmplt>:
10006e44:	b510      	push	{r4, lr}
10006e46:	f000 ff43 	bl	10007cd0 <__ledf2>
10006e4a:	2800      	cmp	r0, #0
10006e4c:	db01      	blt.n	10006e52 <__aeabi_dcmplt+0xe>
10006e4e:	2000      	movs	r0, #0
10006e50:	bd10      	pop	{r4, pc}
10006e52:	2001      	movs	r0, #1
10006e54:	bd10      	pop	{r4, pc}
10006e56:	46c0      	nop			; (mov r8, r8)

10006e58 <__aeabi_dcmple>:
10006e58:	b510      	push	{r4, lr}
10006e5a:	f000 ff39 	bl	10007cd0 <__ledf2>
10006e5e:	2800      	cmp	r0, #0
10006e60:	dd01      	ble.n	10006e66 <__aeabi_dcmple+0xe>
10006e62:	2000      	movs	r0, #0
10006e64:	bd10      	pop	{r4, pc}
10006e66:	2001      	movs	r0, #1
10006e68:	bd10      	pop	{r4, pc}
10006e6a:	46c0      	nop			; (mov r8, r8)

10006e6c <__aeabi_dcmpgt>:
10006e6c:	b510      	push	{r4, lr}
10006e6e:	f000 febf 	bl	10007bf0 <__gedf2>
10006e72:	2800      	cmp	r0, #0
10006e74:	dc01      	bgt.n	10006e7a <__aeabi_dcmpgt+0xe>
10006e76:	2000      	movs	r0, #0
10006e78:	bd10      	pop	{r4, pc}
10006e7a:	2001      	movs	r0, #1
10006e7c:	bd10      	pop	{r4, pc}
10006e7e:	46c0      	nop			; (mov r8, r8)

10006e80 <__aeabi_dcmpge>:
10006e80:	b510      	push	{r4, lr}
10006e82:	f000 feb5 	bl	10007bf0 <__gedf2>
10006e86:	2800      	cmp	r0, #0
10006e88:	da01      	bge.n	10006e8e <__aeabi_dcmpge+0xe>
10006e8a:	2000      	movs	r0, #0
10006e8c:	bd10      	pop	{r4, pc}
10006e8e:	2001      	movs	r0, #1
10006e90:	bd10      	pop	{r4, pc}
10006e92:	46c0      	nop			; (mov r8, r8)

10006e94 <__aeabi_d2uiz>:
10006e94:	b538      	push	{r3, r4, r5, lr}
10006e96:	2200      	movs	r2, #0
10006e98:	4b0c      	ldr	r3, [pc, #48]	; (10006ecc <__aeabi_d2uiz+0x38>)
10006e9a:	1c04      	adds	r4, r0, #0
10006e9c:	1c0d      	adds	r5, r1, #0
10006e9e:	f7ff ffef 	bl	10006e80 <__aeabi_dcmpge>
10006ea2:	2800      	cmp	r0, #0
10006ea4:	d104      	bne.n	10006eb0 <__aeabi_d2uiz+0x1c>
10006ea6:	1c20      	adds	r0, r4, #0
10006ea8:	1c29      	adds	r1, r5, #0
10006eaa:	f001 fd8b 	bl	100089c4 <__aeabi_d2iz>
10006eae:	bd38      	pop	{r3, r4, r5, pc}
10006eb0:	4b06      	ldr	r3, [pc, #24]	; (10006ecc <__aeabi_d2uiz+0x38>)
10006eb2:	2200      	movs	r2, #0
10006eb4:	1c20      	adds	r0, r4, #0
10006eb6:	1c29      	adds	r1, r5, #0
10006eb8:	f001 fa0a 	bl	100082d0 <__aeabi_dsub>
10006ebc:	f001 fd82 	bl	100089c4 <__aeabi_d2iz>
10006ec0:	2380      	movs	r3, #128	; 0x80
10006ec2:	061b      	lsls	r3, r3, #24
10006ec4:	469c      	mov	ip, r3
10006ec6:	4460      	add	r0, ip
10006ec8:	e7f1      	b.n	10006eae <__aeabi_d2uiz+0x1a>
10006eca:	46c0      	nop			; (mov r8, r8)
10006ecc:	41e00000 	.word	0x41e00000

10006ed0 <__aeabi_dadd>:
10006ed0:	b5f0      	push	{r4, r5, r6, r7, lr}
10006ed2:	4645      	mov	r5, r8
10006ed4:	4657      	mov	r7, sl
10006ed6:	464e      	mov	r6, r9
10006ed8:	4694      	mov	ip, r2
10006eda:	004c      	lsls	r4, r1, #1
10006edc:	030a      	lsls	r2, r1, #12
10006ede:	0fc9      	lsrs	r1, r1, #31
10006ee0:	b4e0      	push	{r5, r6, r7}
10006ee2:	4688      	mov	r8, r1
10006ee4:	1c0e      	adds	r6, r1, #0
10006ee6:	0319      	lsls	r1, r3, #12
10006ee8:	0f47      	lsrs	r7, r0, #29
10006eea:	00c5      	lsls	r5, r0, #3
10006eec:	0a48      	lsrs	r0, r1, #9
10006eee:	4661      	mov	r1, ip
10006ef0:	0f49      	lsrs	r1, r1, #29
10006ef2:	4301      	orrs	r1, r0
10006ef4:	4660      	mov	r0, ip
10006ef6:	0a52      	lsrs	r2, r2, #9
10006ef8:	4317      	orrs	r7, r2
10006efa:	00c0      	lsls	r0, r0, #3
10006efc:	005a      	lsls	r2, r3, #1
10006efe:	0d64      	lsrs	r4, r4, #21
10006f00:	0d52      	lsrs	r2, r2, #21
10006f02:	0fdb      	lsrs	r3, r3, #31
10006f04:	4684      	mov	ip, r0
10006f06:	4598      	cmp	r8, r3
10006f08:	d100      	bne.n	10006f0c <__aeabi_dadd+0x3c>
10006f0a:	e0a7      	b.n	1000705c <__aeabi_dadd+0x18c>
10006f0c:	1aa0      	subs	r0, r4, r2
10006f0e:	2800      	cmp	r0, #0
10006f10:	dc00      	bgt.n	10006f14 <__aeabi_dadd+0x44>
10006f12:	e101      	b.n	10007118 <__aeabi_dadd+0x248>
10006f14:	2a00      	cmp	r2, #0
10006f16:	d13d      	bne.n	10006f94 <__aeabi_dadd+0xc4>
10006f18:	4663      	mov	r3, ip
10006f1a:	430b      	orrs	r3, r1
10006f1c:	d000      	beq.n	10006f20 <__aeabi_dadd+0x50>
10006f1e:	e0d4      	b.n	100070ca <__aeabi_dadd+0x1fa>
10006f20:	076b      	lsls	r3, r5, #29
10006f22:	d100      	bne.n	10006f26 <__aeabi_dadd+0x56>
10006f24:	e088      	b.n	10007038 <__aeabi_dadd+0x168>
10006f26:	230f      	movs	r3, #15
10006f28:	402b      	ands	r3, r5
10006f2a:	2b04      	cmp	r3, #4
10006f2c:	d100      	bne.n	10006f30 <__aeabi_dadd+0x60>
10006f2e:	e083      	b.n	10007038 <__aeabi_dadd+0x168>
10006f30:	1d2a      	adds	r2, r5, #4
10006f32:	42aa      	cmp	r2, r5
10006f34:	41ad      	sbcs	r5, r5
10006f36:	2380      	movs	r3, #128	; 0x80
10006f38:	426d      	negs	r5, r5
10006f3a:	197f      	adds	r7, r7, r5
10006f3c:	041b      	lsls	r3, r3, #16
10006f3e:	403b      	ands	r3, r7
10006f40:	4646      	mov	r6, r8
10006f42:	1c15      	adds	r5, r2, #0
10006f44:	2b00      	cmp	r3, #0
10006f46:	d100      	bne.n	10006f4a <__aeabi_dadd+0x7a>
10006f48:	e07c      	b.n	10007044 <__aeabi_dadd+0x174>
10006f4a:	4bcc      	ldr	r3, [pc, #816]	; (1000727c <__aeabi_dadd+0x3ac>)
10006f4c:	3401      	adds	r4, #1
10006f4e:	429c      	cmp	r4, r3
10006f50:	d100      	bne.n	10006f54 <__aeabi_dadd+0x84>
10006f52:	e0fd      	b.n	10007150 <__aeabi_dadd+0x280>
10006f54:	1c3a      	adds	r2, r7, #0
10006f56:	4bca      	ldr	r3, [pc, #808]	; (10007280 <__aeabi_dadd+0x3b0>)
10006f58:	08ed      	lsrs	r5, r5, #3
10006f5a:	401a      	ands	r2, r3
10006f5c:	0750      	lsls	r0, r2, #29
10006f5e:	0564      	lsls	r4, r4, #21
10006f60:	0252      	lsls	r2, r2, #9
10006f62:	4305      	orrs	r5, r0
10006f64:	0b12      	lsrs	r2, r2, #12
10006f66:	0d64      	lsrs	r4, r4, #21
10006f68:	2100      	movs	r1, #0
10006f6a:	0312      	lsls	r2, r2, #12
10006f6c:	0d0b      	lsrs	r3, r1, #20
10006f6e:	051b      	lsls	r3, r3, #20
10006f70:	0564      	lsls	r4, r4, #21
10006f72:	0b12      	lsrs	r2, r2, #12
10006f74:	431a      	orrs	r2, r3
10006f76:	0863      	lsrs	r3, r4, #1
10006f78:	4cc2      	ldr	r4, [pc, #776]	; (10007284 <__aeabi_dadd+0x3b4>)
10006f7a:	07f6      	lsls	r6, r6, #31
10006f7c:	4014      	ands	r4, r2
10006f7e:	431c      	orrs	r4, r3
10006f80:	0064      	lsls	r4, r4, #1
10006f82:	0864      	lsrs	r4, r4, #1
10006f84:	4334      	orrs	r4, r6
10006f86:	1c28      	adds	r0, r5, #0
10006f88:	1c21      	adds	r1, r4, #0
10006f8a:	bc1c      	pop	{r2, r3, r4}
10006f8c:	4690      	mov	r8, r2
10006f8e:	4699      	mov	r9, r3
10006f90:	46a2      	mov	sl, r4
10006f92:	bdf0      	pop	{r4, r5, r6, r7, pc}
10006f94:	4bb9      	ldr	r3, [pc, #740]	; (1000727c <__aeabi_dadd+0x3ac>)
10006f96:	429c      	cmp	r4, r3
10006f98:	d0c2      	beq.n	10006f20 <__aeabi_dadd+0x50>
10006f9a:	2380      	movs	r3, #128	; 0x80
10006f9c:	041b      	lsls	r3, r3, #16
10006f9e:	4319      	orrs	r1, r3
10006fa0:	2838      	cmp	r0, #56	; 0x38
10006fa2:	dd00      	ble.n	10006fa6 <__aeabi_dadd+0xd6>
10006fa4:	e0ec      	b.n	10007180 <__aeabi_dadd+0x2b0>
10006fa6:	281f      	cmp	r0, #31
10006fa8:	dd00      	ble.n	10006fac <__aeabi_dadd+0xdc>
10006faa:	e121      	b.n	100071f0 <__aeabi_dadd+0x320>
10006fac:	2220      	movs	r2, #32
10006fae:	1c0e      	adds	r6, r1, #0
10006fb0:	4663      	mov	r3, ip
10006fb2:	1a12      	subs	r2, r2, r0
10006fb4:	4096      	lsls	r6, r2
10006fb6:	40c3      	lsrs	r3, r0
10006fb8:	4333      	orrs	r3, r6
10006fba:	4666      	mov	r6, ip
10006fbc:	4096      	lsls	r6, r2
10006fbe:	1c32      	adds	r2, r6, #0
10006fc0:	1e56      	subs	r6, r2, #1
10006fc2:	41b2      	sbcs	r2, r6
10006fc4:	4313      	orrs	r3, r2
10006fc6:	1c0a      	adds	r2, r1, #0
10006fc8:	40c2      	lsrs	r2, r0
10006fca:	1aeb      	subs	r3, r5, r3
10006fcc:	429d      	cmp	r5, r3
10006fce:	41b6      	sbcs	r6, r6
10006fd0:	1c1d      	adds	r5, r3, #0
10006fd2:	1aba      	subs	r2, r7, r2
10006fd4:	4276      	negs	r6, r6
10006fd6:	1b97      	subs	r7, r2, r6
10006fd8:	023b      	lsls	r3, r7, #8
10006fda:	d400      	bmi.n	10006fde <__aeabi_dadd+0x10e>
10006fdc:	e097      	b.n	1000710e <__aeabi_dadd+0x23e>
10006fde:	027a      	lsls	r2, r7, #9
10006fe0:	0a56      	lsrs	r6, r2, #9
10006fe2:	2e00      	cmp	r6, #0
10006fe4:	d100      	bne.n	10006fe8 <__aeabi_dadd+0x118>
10006fe6:	e0b6      	b.n	10007156 <__aeabi_dadd+0x286>
10006fe8:	1c30      	adds	r0, r6, #0
10006fea:	f7fc f929 	bl	10003240 <__clzsi2>
10006fee:	1c03      	adds	r3, r0, #0
10006ff0:	3b08      	subs	r3, #8
10006ff2:	2b1f      	cmp	r3, #31
10006ff4:	dd00      	ble.n	10006ff8 <__aeabi_dadd+0x128>
10006ff6:	e0b7      	b.n	10007168 <__aeabi_dadd+0x298>
10006ff8:	409e      	lsls	r6, r3
10006ffa:	1c37      	adds	r7, r6, #0
10006ffc:	2628      	movs	r6, #40	; 0x28
10006ffe:	1c2a      	adds	r2, r5, #0
10007000:	1a36      	subs	r6, r6, r0
10007002:	40f2      	lsrs	r2, r6
10007004:	1c16      	adds	r6, r2, #0
10007006:	409d      	lsls	r5, r3
10007008:	433e      	orrs	r6, r7
1000700a:	429c      	cmp	r4, r3
1000700c:	dd00      	ble.n	10007010 <__aeabi_dadd+0x140>
1000700e:	e0b2      	b.n	10007176 <__aeabi_dadd+0x2a6>
10007010:	1b1c      	subs	r4, r3, r4
10007012:	1c62      	adds	r2, r4, #1
10007014:	2a1f      	cmp	r2, #31
10007016:	dd00      	ble.n	1000701a <__aeabi_dadd+0x14a>
10007018:	e0d8      	b.n	100071cc <__aeabi_dadd+0x2fc>
1000701a:	231f      	movs	r3, #31
1000701c:	1c29      	adds	r1, r5, #0
1000701e:	1b1c      	subs	r4, r3, r4
10007020:	1c33      	adds	r3, r6, #0
10007022:	40a5      	lsls	r5, r4
10007024:	40a3      	lsls	r3, r4
10007026:	40d1      	lsrs	r1, r2
10007028:	1e6c      	subs	r4, r5, #1
1000702a:	41a5      	sbcs	r5, r4
1000702c:	40d6      	lsrs	r6, r2
1000702e:	4319      	orrs	r1, r3
10007030:	430d      	orrs	r5, r1
10007032:	1c37      	adds	r7, r6, #0
10007034:	2400      	movs	r4, #0
10007036:	e773      	b.n	10006f20 <__aeabi_dadd+0x50>
10007038:	2380      	movs	r3, #128	; 0x80
1000703a:	041b      	lsls	r3, r3, #16
1000703c:	403b      	ands	r3, r7
1000703e:	4646      	mov	r6, r8
10007040:	d000      	beq.n	10007044 <__aeabi_dadd+0x174>
10007042:	e782      	b.n	10006f4a <__aeabi_dadd+0x7a>
10007044:	4b8d      	ldr	r3, [pc, #564]	; (1000727c <__aeabi_dadd+0x3ac>)
10007046:	08ed      	lsrs	r5, r5, #3
10007048:	0778      	lsls	r0, r7, #29
1000704a:	4305      	orrs	r5, r0
1000704c:	08fa      	lsrs	r2, r7, #3
1000704e:	429c      	cmp	r4, r3
10007050:	d032      	beq.n	100070b8 <__aeabi_dadd+0x1e8>
10007052:	0312      	lsls	r2, r2, #12
10007054:	0564      	lsls	r4, r4, #21
10007056:	0b12      	lsrs	r2, r2, #12
10007058:	0d64      	lsrs	r4, r4, #21
1000705a:	e785      	b.n	10006f68 <__aeabi_dadd+0x98>
1000705c:	1aa3      	subs	r3, r4, r2
1000705e:	2b00      	cmp	r3, #0
10007060:	dc00      	bgt.n	10007064 <__aeabi_dadd+0x194>
10007062:	e094      	b.n	1000718e <__aeabi_dadd+0x2be>
10007064:	2a00      	cmp	r2, #0
10007066:	d03c      	beq.n	100070e2 <__aeabi_dadd+0x212>
10007068:	4a84      	ldr	r2, [pc, #528]	; (1000727c <__aeabi_dadd+0x3ac>)
1000706a:	4294      	cmp	r4, r2
1000706c:	d100      	bne.n	10007070 <__aeabi_dadd+0x1a0>
1000706e:	e757      	b.n	10006f20 <__aeabi_dadd+0x50>
10007070:	2280      	movs	r2, #128	; 0x80
10007072:	0412      	lsls	r2, r2, #16
10007074:	4311      	orrs	r1, r2
10007076:	2b38      	cmp	r3, #56	; 0x38
10007078:	dc00      	bgt.n	1000707c <__aeabi_dadd+0x1ac>
1000707a:	e105      	b.n	10007288 <__aeabi_dadd+0x3b8>
1000707c:	4663      	mov	r3, ip
1000707e:	4319      	orrs	r1, r3
10007080:	1e48      	subs	r0, r1, #1
10007082:	4181      	sbcs	r1, r0
10007084:	2200      	movs	r2, #0
10007086:	b2c8      	uxtb	r0, r1
10007088:	1940      	adds	r0, r0, r5
1000708a:	42a8      	cmp	r0, r5
1000708c:	419b      	sbcs	r3, r3
1000708e:	1c05      	adds	r5, r0, #0
10007090:	19d2      	adds	r2, r2, r7
10007092:	425b      	negs	r3, r3
10007094:	18d7      	adds	r7, r2, r3
10007096:	023b      	lsls	r3, r7, #8
10007098:	d539      	bpl.n	1000710e <__aeabi_dadd+0x23e>
1000709a:	4b78      	ldr	r3, [pc, #480]	; (1000727c <__aeabi_dadd+0x3ac>)
1000709c:	3401      	adds	r4, #1
1000709e:	429c      	cmp	r4, r3
100070a0:	d100      	bne.n	100070a4 <__aeabi_dadd+0x1d4>
100070a2:	e14c      	b.n	1000733e <__aeabi_dadd+0x46e>
100070a4:	2001      	movs	r0, #1
100070a6:	4a76      	ldr	r2, [pc, #472]	; (10007280 <__aeabi_dadd+0x3b0>)
100070a8:	086b      	lsrs	r3, r5, #1
100070aa:	403a      	ands	r2, r7
100070ac:	4028      	ands	r0, r5
100070ae:	4318      	orrs	r0, r3
100070b0:	07d5      	lsls	r5, r2, #31
100070b2:	4305      	orrs	r5, r0
100070b4:	0857      	lsrs	r7, r2, #1
100070b6:	e733      	b.n	10006f20 <__aeabi_dadd+0x50>
100070b8:	1c2b      	adds	r3, r5, #0
100070ba:	4313      	orrs	r3, r2
100070bc:	d048      	beq.n	10007150 <__aeabi_dadd+0x280>
100070be:	2380      	movs	r3, #128	; 0x80
100070c0:	031b      	lsls	r3, r3, #12
100070c2:	431a      	orrs	r2, r3
100070c4:	0312      	lsls	r2, r2, #12
100070c6:	0b12      	lsrs	r2, r2, #12
100070c8:	e74e      	b.n	10006f68 <__aeabi_dadd+0x98>
100070ca:	3801      	subs	r0, #1
100070cc:	2800      	cmp	r0, #0
100070ce:	d178      	bne.n	100071c2 <__aeabi_dadd+0x2f2>
100070d0:	4663      	mov	r3, ip
100070d2:	1aee      	subs	r6, r5, r3
100070d4:	42b5      	cmp	r5, r6
100070d6:	419b      	sbcs	r3, r3
100070d8:	1a7a      	subs	r2, r7, r1
100070da:	425b      	negs	r3, r3
100070dc:	1ad7      	subs	r7, r2, r3
100070de:	1c35      	adds	r5, r6, #0
100070e0:	e77a      	b.n	10006fd8 <__aeabi_dadd+0x108>
100070e2:	1c02      	adds	r2, r0, #0
100070e4:	430a      	orrs	r2, r1
100070e6:	d100      	bne.n	100070ea <__aeabi_dadd+0x21a>
100070e8:	e71a      	b.n	10006f20 <__aeabi_dadd+0x50>
100070ea:	3b01      	subs	r3, #1
100070ec:	2b00      	cmp	r3, #0
100070ee:	d000      	beq.n	100070f2 <__aeabi_dadd+0x222>
100070f0:	e0f2      	b.n	100072d8 <__aeabi_dadd+0x408>
100070f2:	1940      	adds	r0, r0, r5
100070f4:	42a8      	cmp	r0, r5
100070f6:	419b      	sbcs	r3, r3
100070f8:	19ca      	adds	r2, r1, r7
100070fa:	425b      	negs	r3, r3
100070fc:	18d7      	adds	r7, r2, r3
100070fe:	1c05      	adds	r5, r0, #0
10007100:	e7c9      	b.n	10007096 <__aeabi_dadd+0x1c6>
10007102:	1c13      	adds	r3, r2, #0
10007104:	4333      	orrs	r3, r6
10007106:	d100      	bne.n	1000710a <__aeabi_dadd+0x23a>
10007108:	e118      	b.n	1000733c <__aeabi_dadd+0x46c>
1000710a:	1c17      	adds	r7, r2, #0
1000710c:	1c35      	adds	r5, r6, #0
1000710e:	4646      	mov	r6, r8
10007110:	076b      	lsls	r3, r5, #29
10007112:	d000      	beq.n	10007116 <__aeabi_dadd+0x246>
10007114:	e707      	b.n	10006f26 <__aeabi_dadd+0x56>
10007116:	e795      	b.n	10007044 <__aeabi_dadd+0x174>
10007118:	2800      	cmp	r0, #0
1000711a:	d17a      	bne.n	10007212 <__aeabi_dadd+0x342>
1000711c:	1c62      	adds	r2, r4, #1
1000711e:	0552      	lsls	r2, r2, #21
10007120:	0d52      	lsrs	r2, r2, #21
10007122:	2a01      	cmp	r2, #1
10007124:	dc00      	bgt.n	10007128 <__aeabi_dadd+0x258>
10007126:	e0fb      	b.n	10007320 <__aeabi_dadd+0x450>
10007128:	4662      	mov	r2, ip
1000712a:	1aaa      	subs	r2, r5, r2
1000712c:	4295      	cmp	r5, r2
1000712e:	41b6      	sbcs	r6, r6
10007130:	4691      	mov	r9, r2
10007132:	1a78      	subs	r0, r7, r1
10007134:	4272      	negs	r2, r6
10007136:	1a86      	subs	r6, r0, r2
10007138:	0232      	lsls	r2, r6, #8
1000713a:	d400      	bmi.n	1000713e <__aeabi_dadd+0x26e>
1000713c:	e093      	b.n	10007266 <__aeabi_dadd+0x396>
1000713e:	4662      	mov	r2, ip
10007140:	1b55      	subs	r5, r2, r5
10007142:	45ac      	cmp	ip, r5
10007144:	4180      	sbcs	r0, r0
10007146:	1bcf      	subs	r7, r1, r7
10007148:	4240      	negs	r0, r0
1000714a:	1a3e      	subs	r6, r7, r0
1000714c:	4698      	mov	r8, r3
1000714e:	e748      	b.n	10006fe2 <__aeabi_dadd+0x112>
10007150:	2200      	movs	r2, #0
10007152:	2500      	movs	r5, #0
10007154:	e708      	b.n	10006f68 <__aeabi_dadd+0x98>
10007156:	1c28      	adds	r0, r5, #0
10007158:	f7fc f872 	bl	10003240 <__clzsi2>
1000715c:	3020      	adds	r0, #32
1000715e:	1c03      	adds	r3, r0, #0
10007160:	3b08      	subs	r3, #8
10007162:	2b1f      	cmp	r3, #31
10007164:	dc00      	bgt.n	10007168 <__aeabi_dadd+0x298>
10007166:	e747      	b.n	10006ff8 <__aeabi_dadd+0x128>
10007168:	3828      	subs	r0, #40	; 0x28
1000716a:	4085      	lsls	r5, r0
1000716c:	1c2e      	adds	r6, r5, #0
1000716e:	2500      	movs	r5, #0
10007170:	429c      	cmp	r4, r3
10007172:	dc00      	bgt.n	10007176 <__aeabi_dadd+0x2a6>
10007174:	e74c      	b.n	10007010 <__aeabi_dadd+0x140>
10007176:	4a42      	ldr	r2, [pc, #264]	; (10007280 <__aeabi_dadd+0x3b0>)
10007178:	1ae4      	subs	r4, r4, r3
1000717a:	4016      	ands	r6, r2
1000717c:	1c37      	adds	r7, r6, #0
1000717e:	e6cf      	b.n	10006f20 <__aeabi_dadd+0x50>
10007180:	4663      	mov	r3, ip
10007182:	4319      	orrs	r1, r3
10007184:	1e4b      	subs	r3, r1, #1
10007186:	4199      	sbcs	r1, r3
10007188:	2200      	movs	r2, #0
1000718a:	b2cb      	uxtb	r3, r1
1000718c:	e71d      	b.n	10006fca <__aeabi_dadd+0xfa>
1000718e:	2b00      	cmp	r3, #0
10007190:	d000      	beq.n	10007194 <__aeabi_dadd+0x2c4>
10007192:	e0f2      	b.n	1000737a <__aeabi_dadd+0x4aa>
10007194:	1c60      	adds	r0, r4, #1
10007196:	0543      	lsls	r3, r0, #21
10007198:	0d5b      	lsrs	r3, r3, #21
1000719a:	2b01      	cmp	r3, #1
1000719c:	dc00      	bgt.n	100071a0 <__aeabi_dadd+0x2d0>
1000719e:	e0a4      	b.n	100072ea <__aeabi_dadd+0x41a>
100071a0:	4b36      	ldr	r3, [pc, #216]	; (1000727c <__aeabi_dadd+0x3ac>)
100071a2:	4298      	cmp	r0, r3
100071a4:	d100      	bne.n	100071a8 <__aeabi_dadd+0x2d8>
100071a6:	e121      	b.n	100073ec <__aeabi_dadd+0x51c>
100071a8:	4663      	mov	r3, ip
100071aa:	195c      	adds	r4, r3, r5
100071ac:	42ac      	cmp	r4, r5
100071ae:	419b      	sbcs	r3, r3
100071b0:	19cf      	adds	r7, r1, r7
100071b2:	425b      	negs	r3, r3
100071b4:	18fa      	adds	r2, r7, r3
100071b6:	0864      	lsrs	r4, r4, #1
100071b8:	07d5      	lsls	r5, r2, #31
100071ba:	4325      	orrs	r5, r4
100071bc:	0857      	lsrs	r7, r2, #1
100071be:	1c04      	adds	r4, r0, #0
100071c0:	e6ae      	b.n	10006f20 <__aeabi_dadd+0x50>
100071c2:	4b2e      	ldr	r3, [pc, #184]	; (1000727c <__aeabi_dadd+0x3ac>)
100071c4:	429c      	cmp	r4, r3
100071c6:	d000      	beq.n	100071ca <__aeabi_dadd+0x2fa>
100071c8:	e6ea      	b.n	10006fa0 <__aeabi_dadd+0xd0>
100071ca:	e6a9      	b.n	10006f20 <__aeabi_dadd+0x50>
100071cc:	1c21      	adds	r1, r4, #0
100071ce:	1c33      	adds	r3, r6, #0
100071d0:	391f      	subs	r1, #31
100071d2:	40cb      	lsrs	r3, r1
100071d4:	1c19      	adds	r1, r3, #0
100071d6:	2a20      	cmp	r2, #32
100071d8:	d100      	bne.n	100071dc <__aeabi_dadd+0x30c>
100071da:	e082      	b.n	100072e2 <__aeabi_dadd+0x412>
100071dc:	233f      	movs	r3, #63	; 0x3f
100071de:	1b1c      	subs	r4, r3, r4
100071e0:	40a6      	lsls	r6, r4
100071e2:	4335      	orrs	r5, r6
100071e4:	1e6e      	subs	r6, r5, #1
100071e6:	41b5      	sbcs	r5, r6
100071e8:	2700      	movs	r7, #0
100071ea:	430d      	orrs	r5, r1
100071ec:	2400      	movs	r4, #0
100071ee:	e78e      	b.n	1000710e <__aeabi_dadd+0x23e>
100071f0:	1c03      	adds	r3, r0, #0
100071f2:	1c0e      	adds	r6, r1, #0
100071f4:	3b20      	subs	r3, #32
100071f6:	40de      	lsrs	r6, r3
100071f8:	2820      	cmp	r0, #32
100071fa:	d074      	beq.n	100072e6 <__aeabi_dadd+0x416>
100071fc:	2340      	movs	r3, #64	; 0x40
100071fe:	1a1b      	subs	r3, r3, r0
10007200:	4099      	lsls	r1, r3
10007202:	1c0b      	adds	r3, r1, #0
10007204:	4662      	mov	r2, ip
10007206:	4313      	orrs	r3, r2
10007208:	1e59      	subs	r1, r3, #1
1000720a:	418b      	sbcs	r3, r1
1000720c:	2200      	movs	r2, #0
1000720e:	4333      	orrs	r3, r6
10007210:	e6db      	b.n	10006fca <__aeabi_dadd+0xfa>
10007212:	2c00      	cmp	r4, #0
10007214:	d050      	beq.n	100072b8 <__aeabi_dadd+0x3e8>
10007216:	4c19      	ldr	r4, [pc, #100]	; (1000727c <__aeabi_dadd+0x3ac>)
10007218:	42a2      	cmp	r2, r4
1000721a:	d100      	bne.n	1000721e <__aeabi_dadd+0x34e>
1000721c:	e0a8      	b.n	10007370 <__aeabi_dadd+0x4a0>
1000721e:	2480      	movs	r4, #128	; 0x80
10007220:	0424      	lsls	r4, r4, #16
10007222:	4240      	negs	r0, r0
10007224:	4327      	orrs	r7, r4
10007226:	2838      	cmp	r0, #56	; 0x38
10007228:	dd00      	ble.n	1000722c <__aeabi_dadd+0x35c>
1000722a:	e0d9      	b.n	100073e0 <__aeabi_dadd+0x510>
1000722c:	281f      	cmp	r0, #31
1000722e:	dd00      	ble.n	10007232 <__aeabi_dadd+0x362>
10007230:	e139      	b.n	100074a6 <__aeabi_dadd+0x5d6>
10007232:	2420      	movs	r4, #32
10007234:	1c3e      	adds	r6, r7, #0
10007236:	1a24      	subs	r4, r4, r0
10007238:	40a6      	lsls	r6, r4
1000723a:	46b0      	mov	r8, r6
1000723c:	1c2e      	adds	r6, r5, #0
1000723e:	46a1      	mov	r9, r4
10007240:	40c6      	lsrs	r6, r0
10007242:	4644      	mov	r4, r8
10007244:	4326      	orrs	r6, r4
10007246:	464c      	mov	r4, r9
10007248:	40a5      	lsls	r5, r4
1000724a:	1e6c      	subs	r4, r5, #1
1000724c:	41a5      	sbcs	r5, r4
1000724e:	40c7      	lsrs	r7, r0
10007250:	4335      	orrs	r5, r6
10007252:	4660      	mov	r0, ip
10007254:	1b45      	subs	r5, r0, r5
10007256:	1bcf      	subs	r7, r1, r7
10007258:	45ac      	cmp	ip, r5
1000725a:	4189      	sbcs	r1, r1
1000725c:	4249      	negs	r1, r1
1000725e:	1a7f      	subs	r7, r7, r1
10007260:	1c14      	adds	r4, r2, #0
10007262:	4698      	mov	r8, r3
10007264:	e6b8      	b.n	10006fd8 <__aeabi_dadd+0x108>
10007266:	464b      	mov	r3, r9
10007268:	464d      	mov	r5, r9
1000726a:	4333      	orrs	r3, r6
1000726c:	d000      	beq.n	10007270 <__aeabi_dadd+0x3a0>
1000726e:	e6b8      	b.n	10006fe2 <__aeabi_dadd+0x112>
10007270:	2600      	movs	r6, #0
10007272:	2700      	movs	r7, #0
10007274:	2400      	movs	r4, #0
10007276:	2500      	movs	r5, #0
10007278:	e6e4      	b.n	10007044 <__aeabi_dadd+0x174>
1000727a:	46c0      	nop			; (mov r8, r8)
1000727c:	000007ff 	.word	0x000007ff
10007280:	ff7fffff 	.word	0xff7fffff
10007284:	800fffff 	.word	0x800fffff
10007288:	2b1f      	cmp	r3, #31
1000728a:	dc5b      	bgt.n	10007344 <__aeabi_dadd+0x474>
1000728c:	2220      	movs	r2, #32
1000728e:	1c08      	adds	r0, r1, #0
10007290:	1ad2      	subs	r2, r2, r3
10007292:	4090      	lsls	r0, r2
10007294:	4681      	mov	r9, r0
10007296:	4660      	mov	r0, ip
10007298:	4692      	mov	sl, r2
1000729a:	40d8      	lsrs	r0, r3
1000729c:	464a      	mov	r2, r9
1000729e:	4310      	orrs	r0, r2
100072a0:	4681      	mov	r9, r0
100072a2:	4652      	mov	r2, sl
100072a4:	4660      	mov	r0, ip
100072a6:	4090      	lsls	r0, r2
100072a8:	1c02      	adds	r2, r0, #0
100072aa:	1e50      	subs	r0, r2, #1
100072ac:	4182      	sbcs	r2, r0
100072ae:	4648      	mov	r0, r9
100072b0:	4310      	orrs	r0, r2
100072b2:	1c0a      	adds	r2, r1, #0
100072b4:	40da      	lsrs	r2, r3
100072b6:	e6e7      	b.n	10007088 <__aeabi_dadd+0x1b8>
100072b8:	1c3c      	adds	r4, r7, #0
100072ba:	432c      	orrs	r4, r5
100072bc:	d058      	beq.n	10007370 <__aeabi_dadd+0x4a0>
100072be:	43c0      	mvns	r0, r0
100072c0:	2800      	cmp	r0, #0
100072c2:	d151      	bne.n	10007368 <__aeabi_dadd+0x498>
100072c4:	4660      	mov	r0, ip
100072c6:	1b45      	subs	r5, r0, r5
100072c8:	45ac      	cmp	ip, r5
100072ca:	4180      	sbcs	r0, r0
100072cc:	1bcf      	subs	r7, r1, r7
100072ce:	4240      	negs	r0, r0
100072d0:	1a3f      	subs	r7, r7, r0
100072d2:	1c14      	adds	r4, r2, #0
100072d4:	4698      	mov	r8, r3
100072d6:	e67f      	b.n	10006fd8 <__aeabi_dadd+0x108>
100072d8:	4a8f      	ldr	r2, [pc, #572]	; (10007518 <__aeabi_dadd+0x648>)
100072da:	4294      	cmp	r4, r2
100072dc:	d000      	beq.n	100072e0 <__aeabi_dadd+0x410>
100072de:	e6ca      	b.n	10007076 <__aeabi_dadd+0x1a6>
100072e0:	e61e      	b.n	10006f20 <__aeabi_dadd+0x50>
100072e2:	2600      	movs	r6, #0
100072e4:	e77d      	b.n	100071e2 <__aeabi_dadd+0x312>
100072e6:	2300      	movs	r3, #0
100072e8:	e78c      	b.n	10007204 <__aeabi_dadd+0x334>
100072ea:	1c3b      	adds	r3, r7, #0
100072ec:	432b      	orrs	r3, r5
100072ee:	2c00      	cmp	r4, #0
100072f0:	d000      	beq.n	100072f4 <__aeabi_dadd+0x424>
100072f2:	e0bd      	b.n	10007470 <__aeabi_dadd+0x5a0>
100072f4:	2b00      	cmp	r3, #0
100072f6:	d100      	bne.n	100072fa <__aeabi_dadd+0x42a>
100072f8:	e0f5      	b.n	100074e6 <__aeabi_dadd+0x616>
100072fa:	4663      	mov	r3, ip
100072fc:	430b      	orrs	r3, r1
100072fe:	d100      	bne.n	10007302 <__aeabi_dadd+0x432>
10007300:	e60e      	b.n	10006f20 <__aeabi_dadd+0x50>
10007302:	4663      	mov	r3, ip
10007304:	195b      	adds	r3, r3, r5
10007306:	42ab      	cmp	r3, r5
10007308:	4180      	sbcs	r0, r0
1000730a:	19ca      	adds	r2, r1, r7
1000730c:	4240      	negs	r0, r0
1000730e:	1817      	adds	r7, r2, r0
10007310:	023a      	lsls	r2, r7, #8
10007312:	d400      	bmi.n	10007316 <__aeabi_dadd+0x446>
10007314:	e0fc      	b.n	10007510 <__aeabi_dadd+0x640>
10007316:	4a81      	ldr	r2, [pc, #516]	; (1000751c <__aeabi_dadd+0x64c>)
10007318:	1c1d      	adds	r5, r3, #0
1000731a:	4017      	ands	r7, r2
1000731c:	3401      	adds	r4, #1
1000731e:	e5ff      	b.n	10006f20 <__aeabi_dadd+0x50>
10007320:	1c3a      	adds	r2, r7, #0
10007322:	432a      	orrs	r2, r5
10007324:	2c00      	cmp	r4, #0
10007326:	d151      	bne.n	100073cc <__aeabi_dadd+0x4fc>
10007328:	2a00      	cmp	r2, #0
1000732a:	d000      	beq.n	1000732e <__aeabi_dadd+0x45e>
1000732c:	e085      	b.n	1000743a <__aeabi_dadd+0x56a>
1000732e:	4662      	mov	r2, ip
10007330:	430a      	orrs	r2, r1
10007332:	d003      	beq.n	1000733c <__aeabi_dadd+0x46c>
10007334:	1c0f      	adds	r7, r1, #0
10007336:	4665      	mov	r5, ip
10007338:	4698      	mov	r8, r3
1000733a:	e5f1      	b.n	10006f20 <__aeabi_dadd+0x50>
1000733c:	2600      	movs	r6, #0
1000733e:	2700      	movs	r7, #0
10007340:	2500      	movs	r5, #0
10007342:	e67f      	b.n	10007044 <__aeabi_dadd+0x174>
10007344:	1c18      	adds	r0, r3, #0
10007346:	1c0a      	adds	r2, r1, #0
10007348:	3820      	subs	r0, #32
1000734a:	40c2      	lsrs	r2, r0
1000734c:	2b20      	cmp	r3, #32
1000734e:	d100      	bne.n	10007352 <__aeabi_dadd+0x482>
10007350:	e0a7      	b.n	100074a2 <__aeabi_dadd+0x5d2>
10007352:	2040      	movs	r0, #64	; 0x40
10007354:	1ac0      	subs	r0, r0, r3
10007356:	4081      	lsls	r1, r0
10007358:	1c08      	adds	r0, r1, #0
1000735a:	4663      	mov	r3, ip
1000735c:	4318      	orrs	r0, r3
1000735e:	1e41      	subs	r1, r0, #1
10007360:	4188      	sbcs	r0, r1
10007362:	4310      	orrs	r0, r2
10007364:	2200      	movs	r2, #0
10007366:	e68f      	b.n	10007088 <__aeabi_dadd+0x1b8>
10007368:	4c6b      	ldr	r4, [pc, #428]	; (10007518 <__aeabi_dadd+0x648>)
1000736a:	42a2      	cmp	r2, r4
1000736c:	d000      	beq.n	10007370 <__aeabi_dadd+0x4a0>
1000736e:	e75a      	b.n	10007226 <__aeabi_dadd+0x356>
10007370:	1c0f      	adds	r7, r1, #0
10007372:	4665      	mov	r5, ip
10007374:	1c14      	adds	r4, r2, #0
10007376:	4698      	mov	r8, r3
10007378:	e5d2      	b.n	10006f20 <__aeabi_dadd+0x50>
1000737a:	2c00      	cmp	r4, #0
1000737c:	d13a      	bne.n	100073f4 <__aeabi_dadd+0x524>
1000737e:	1c38      	adds	r0, r7, #0
10007380:	4328      	orrs	r0, r5
10007382:	d071      	beq.n	10007468 <__aeabi_dadd+0x598>
10007384:	43db      	mvns	r3, r3
10007386:	2b00      	cmp	r3, #0
10007388:	d018      	beq.n	100073bc <__aeabi_dadd+0x4ec>
1000738a:	4863      	ldr	r0, [pc, #396]	; (10007518 <__aeabi_dadd+0x648>)
1000738c:	4282      	cmp	r2, r0
1000738e:	d06b      	beq.n	10007468 <__aeabi_dadd+0x598>
10007390:	2b38      	cmp	r3, #56	; 0x38
10007392:	dd00      	ble.n	10007396 <__aeabi_dadd+0x4c6>
10007394:	e09d      	b.n	100074d2 <__aeabi_dadd+0x602>
10007396:	2b1f      	cmp	r3, #31
10007398:	dd00      	ble.n	1000739c <__aeabi_dadd+0x4cc>
1000739a:	e0a7      	b.n	100074ec <__aeabi_dadd+0x61c>
1000739c:	2020      	movs	r0, #32
1000739e:	1c3c      	adds	r4, r7, #0
100073a0:	1ac0      	subs	r0, r0, r3
100073a2:	4084      	lsls	r4, r0
100073a4:	46a1      	mov	r9, r4
100073a6:	1c2c      	adds	r4, r5, #0
100073a8:	4682      	mov	sl, r0
100073aa:	40dc      	lsrs	r4, r3
100073ac:	4648      	mov	r0, r9
100073ae:	4304      	orrs	r4, r0
100073b0:	4650      	mov	r0, sl
100073b2:	4085      	lsls	r5, r0
100073b4:	1e68      	subs	r0, r5, #1
100073b6:	4185      	sbcs	r5, r0
100073b8:	40df      	lsrs	r7, r3
100073ba:	4325      	orrs	r5, r4
100073bc:	4465      	add	r5, ip
100073be:	4565      	cmp	r5, ip
100073c0:	419b      	sbcs	r3, r3
100073c2:	187f      	adds	r7, r7, r1
100073c4:	425b      	negs	r3, r3
100073c6:	18ff      	adds	r7, r7, r3
100073c8:	1c14      	adds	r4, r2, #0
100073ca:	e664      	b.n	10007096 <__aeabi_dadd+0x1c6>
100073cc:	2a00      	cmp	r2, #0
100073ce:	d119      	bne.n	10007404 <__aeabi_dadd+0x534>
100073d0:	4662      	mov	r2, ip
100073d2:	430a      	orrs	r2, r1
100073d4:	d077      	beq.n	100074c6 <__aeabi_dadd+0x5f6>
100073d6:	1c0f      	adds	r7, r1, #0
100073d8:	4665      	mov	r5, ip
100073da:	4698      	mov	r8, r3
100073dc:	4c4e      	ldr	r4, [pc, #312]	; (10007518 <__aeabi_dadd+0x648>)
100073de:	e59f      	b.n	10006f20 <__aeabi_dadd+0x50>
100073e0:	433d      	orrs	r5, r7
100073e2:	1e6f      	subs	r7, r5, #1
100073e4:	41bd      	sbcs	r5, r7
100073e6:	2700      	movs	r7, #0
100073e8:	b2ed      	uxtb	r5, r5
100073ea:	e732      	b.n	10007252 <__aeabi_dadd+0x382>
100073ec:	1c04      	adds	r4, r0, #0
100073ee:	2700      	movs	r7, #0
100073f0:	2500      	movs	r5, #0
100073f2:	e627      	b.n	10007044 <__aeabi_dadd+0x174>
100073f4:	4848      	ldr	r0, [pc, #288]	; (10007518 <__aeabi_dadd+0x648>)
100073f6:	4282      	cmp	r2, r0
100073f8:	d036      	beq.n	10007468 <__aeabi_dadd+0x598>
100073fa:	2080      	movs	r0, #128	; 0x80
100073fc:	0400      	lsls	r0, r0, #16
100073fe:	425b      	negs	r3, r3
10007400:	4307      	orrs	r7, r0
10007402:	e7c5      	b.n	10007390 <__aeabi_dadd+0x4c0>
10007404:	4662      	mov	r2, ip
10007406:	430a      	orrs	r2, r1
10007408:	d049      	beq.n	1000749e <__aeabi_dadd+0x5ce>
1000740a:	2480      	movs	r4, #128	; 0x80
1000740c:	08ed      	lsrs	r5, r5, #3
1000740e:	0778      	lsls	r0, r7, #29
10007410:	08fa      	lsrs	r2, r7, #3
10007412:	0324      	lsls	r4, r4, #12
10007414:	4328      	orrs	r0, r5
10007416:	4222      	tst	r2, r4
10007418:	d009      	beq.n	1000742e <__aeabi_dadd+0x55e>
1000741a:	08ce      	lsrs	r6, r1, #3
1000741c:	4226      	tst	r6, r4
1000741e:	d106      	bne.n	1000742e <__aeabi_dadd+0x55e>
10007420:	4662      	mov	r2, ip
10007422:	074f      	lsls	r7, r1, #29
10007424:	1c38      	adds	r0, r7, #0
10007426:	08d2      	lsrs	r2, r2, #3
10007428:	4310      	orrs	r0, r2
1000742a:	4698      	mov	r8, r3
1000742c:	1c32      	adds	r2, r6, #0
1000742e:	00d2      	lsls	r2, r2, #3
10007430:	0f47      	lsrs	r7, r0, #29
10007432:	4317      	orrs	r7, r2
10007434:	00c5      	lsls	r5, r0, #3
10007436:	4c38      	ldr	r4, [pc, #224]	; (10007518 <__aeabi_dadd+0x648>)
10007438:	e572      	b.n	10006f20 <__aeabi_dadd+0x50>
1000743a:	4662      	mov	r2, ip
1000743c:	430a      	orrs	r2, r1
1000743e:	d100      	bne.n	10007442 <__aeabi_dadd+0x572>
10007440:	e56e      	b.n	10006f20 <__aeabi_dadd+0x50>
10007442:	4662      	mov	r2, ip
10007444:	1aae      	subs	r6, r5, r2
10007446:	42b5      	cmp	r5, r6
10007448:	4192      	sbcs	r2, r2
1000744a:	1a78      	subs	r0, r7, r1
1000744c:	4252      	negs	r2, r2
1000744e:	1a82      	subs	r2, r0, r2
10007450:	0210      	lsls	r0, r2, #8
10007452:	d400      	bmi.n	10007456 <__aeabi_dadd+0x586>
10007454:	e655      	b.n	10007102 <__aeabi_dadd+0x232>
10007456:	4662      	mov	r2, ip
10007458:	1b55      	subs	r5, r2, r5
1000745a:	45ac      	cmp	ip, r5
1000745c:	4180      	sbcs	r0, r0
1000745e:	1bca      	subs	r2, r1, r7
10007460:	4240      	negs	r0, r0
10007462:	1a17      	subs	r7, r2, r0
10007464:	4698      	mov	r8, r3
10007466:	e55b      	b.n	10006f20 <__aeabi_dadd+0x50>
10007468:	1c0f      	adds	r7, r1, #0
1000746a:	4665      	mov	r5, ip
1000746c:	1c14      	adds	r4, r2, #0
1000746e:	e557      	b.n	10006f20 <__aeabi_dadd+0x50>
10007470:	2b00      	cmp	r3, #0
10007472:	d034      	beq.n	100074de <__aeabi_dadd+0x60e>
10007474:	4663      	mov	r3, ip
10007476:	430b      	orrs	r3, r1
10007478:	d011      	beq.n	1000749e <__aeabi_dadd+0x5ce>
1000747a:	2480      	movs	r4, #128	; 0x80
1000747c:	08ed      	lsrs	r5, r5, #3
1000747e:	0778      	lsls	r0, r7, #29
10007480:	08fa      	lsrs	r2, r7, #3
10007482:	0324      	lsls	r4, r4, #12
10007484:	4328      	orrs	r0, r5
10007486:	4222      	tst	r2, r4
10007488:	d0d1      	beq.n	1000742e <__aeabi_dadd+0x55e>
1000748a:	08cb      	lsrs	r3, r1, #3
1000748c:	4223      	tst	r3, r4
1000748e:	d1ce      	bne.n	1000742e <__aeabi_dadd+0x55e>
10007490:	4662      	mov	r2, ip
10007492:	074f      	lsls	r7, r1, #29
10007494:	1c38      	adds	r0, r7, #0
10007496:	08d2      	lsrs	r2, r2, #3
10007498:	4310      	orrs	r0, r2
1000749a:	1c1a      	adds	r2, r3, #0
1000749c:	e7c7      	b.n	1000742e <__aeabi_dadd+0x55e>
1000749e:	4c1e      	ldr	r4, [pc, #120]	; (10007518 <__aeabi_dadd+0x648>)
100074a0:	e53e      	b.n	10006f20 <__aeabi_dadd+0x50>
100074a2:	2000      	movs	r0, #0
100074a4:	e759      	b.n	1000735a <__aeabi_dadd+0x48a>
100074a6:	1c04      	adds	r4, r0, #0
100074a8:	1c3e      	adds	r6, r7, #0
100074aa:	3c20      	subs	r4, #32
100074ac:	40e6      	lsrs	r6, r4
100074ae:	1c34      	adds	r4, r6, #0
100074b0:	2820      	cmp	r0, #32
100074b2:	d02b      	beq.n	1000750c <__aeabi_dadd+0x63c>
100074b4:	2640      	movs	r6, #64	; 0x40
100074b6:	1a30      	subs	r0, r6, r0
100074b8:	4087      	lsls	r7, r0
100074ba:	433d      	orrs	r5, r7
100074bc:	1e6f      	subs	r7, r5, #1
100074be:	41bd      	sbcs	r5, r7
100074c0:	2700      	movs	r7, #0
100074c2:	4325      	orrs	r5, r4
100074c4:	e6c5      	b.n	10007252 <__aeabi_dadd+0x382>
100074c6:	2780      	movs	r7, #128	; 0x80
100074c8:	2600      	movs	r6, #0
100074ca:	03ff      	lsls	r7, r7, #15
100074cc:	4c12      	ldr	r4, [pc, #72]	; (10007518 <__aeabi_dadd+0x648>)
100074ce:	2500      	movs	r5, #0
100074d0:	e5b8      	b.n	10007044 <__aeabi_dadd+0x174>
100074d2:	433d      	orrs	r5, r7
100074d4:	1e6f      	subs	r7, r5, #1
100074d6:	41bd      	sbcs	r5, r7
100074d8:	2700      	movs	r7, #0
100074da:	b2ed      	uxtb	r5, r5
100074dc:	e76e      	b.n	100073bc <__aeabi_dadd+0x4ec>
100074de:	1c0f      	adds	r7, r1, #0
100074e0:	4665      	mov	r5, ip
100074e2:	4c0d      	ldr	r4, [pc, #52]	; (10007518 <__aeabi_dadd+0x648>)
100074e4:	e51c      	b.n	10006f20 <__aeabi_dadd+0x50>
100074e6:	1c0f      	adds	r7, r1, #0
100074e8:	4665      	mov	r5, ip
100074ea:	e519      	b.n	10006f20 <__aeabi_dadd+0x50>
100074ec:	1c1c      	adds	r4, r3, #0
100074ee:	1c38      	adds	r0, r7, #0
100074f0:	3c20      	subs	r4, #32
100074f2:	40e0      	lsrs	r0, r4
100074f4:	1c04      	adds	r4, r0, #0
100074f6:	2b20      	cmp	r3, #32
100074f8:	d00c      	beq.n	10007514 <__aeabi_dadd+0x644>
100074fa:	2040      	movs	r0, #64	; 0x40
100074fc:	1ac3      	subs	r3, r0, r3
100074fe:	409f      	lsls	r7, r3
10007500:	433d      	orrs	r5, r7
10007502:	1e6f      	subs	r7, r5, #1
10007504:	41bd      	sbcs	r5, r7
10007506:	2700      	movs	r7, #0
10007508:	4325      	orrs	r5, r4
1000750a:	e757      	b.n	100073bc <__aeabi_dadd+0x4ec>
1000750c:	2700      	movs	r7, #0
1000750e:	e7d4      	b.n	100074ba <__aeabi_dadd+0x5ea>
10007510:	1c1d      	adds	r5, r3, #0
10007512:	e5fc      	b.n	1000710e <__aeabi_dadd+0x23e>
10007514:	2700      	movs	r7, #0
10007516:	e7f3      	b.n	10007500 <__aeabi_dadd+0x630>
10007518:	000007ff 	.word	0x000007ff
1000751c:	ff7fffff 	.word	0xff7fffff

10007520 <__aeabi_ddiv>:
10007520:	b5f0      	push	{r4, r5, r6, r7, lr}
10007522:	465f      	mov	r7, fp
10007524:	4656      	mov	r6, sl
10007526:	464d      	mov	r5, r9
10007528:	4644      	mov	r4, r8
1000752a:	b4f0      	push	{r4, r5, r6, r7}
1000752c:	030f      	lsls	r7, r1, #12
1000752e:	b087      	sub	sp, #28
10007530:	4698      	mov	r8, r3
10007532:	004d      	lsls	r5, r1, #1
10007534:	0b3b      	lsrs	r3, r7, #12
10007536:	0fcc      	lsrs	r4, r1, #31
10007538:	1c06      	adds	r6, r0, #0
1000753a:	4692      	mov	sl, r2
1000753c:	4681      	mov	r9, r0
1000753e:	469b      	mov	fp, r3
10007540:	0d6d      	lsrs	r5, r5, #21
10007542:	9401      	str	r4, [sp, #4]
10007544:	d06b      	beq.n	1000761e <__aeabi_ddiv+0xfe>
10007546:	4b66      	ldr	r3, [pc, #408]	; (100076e0 <__aeabi_ddiv+0x1c0>)
10007548:	429d      	cmp	r5, r3
1000754a:	d035      	beq.n	100075b8 <__aeabi_ddiv+0x98>
1000754c:	2780      	movs	r7, #128	; 0x80
1000754e:	465b      	mov	r3, fp
10007550:	037f      	lsls	r7, r7, #13
10007552:	431f      	orrs	r7, r3
10007554:	00f3      	lsls	r3, r6, #3
10007556:	4699      	mov	r9, r3
10007558:	4b62      	ldr	r3, [pc, #392]	; (100076e4 <__aeabi_ddiv+0x1c4>)
1000755a:	00ff      	lsls	r7, r7, #3
1000755c:	0f40      	lsrs	r0, r0, #29
1000755e:	469c      	mov	ip, r3
10007560:	4307      	orrs	r7, r0
10007562:	2300      	movs	r3, #0
10007564:	46bb      	mov	fp, r7
10007566:	2600      	movs	r6, #0
10007568:	4465      	add	r5, ip
1000756a:	9300      	str	r3, [sp, #0]
1000756c:	4642      	mov	r2, r8
1000756e:	0317      	lsls	r7, r2, #12
10007570:	0050      	lsls	r0, r2, #1
10007572:	0fd2      	lsrs	r2, r2, #31
10007574:	4653      	mov	r3, sl
10007576:	0b3f      	lsrs	r7, r7, #12
10007578:	0d40      	lsrs	r0, r0, #21
1000757a:	4690      	mov	r8, r2
1000757c:	d100      	bne.n	10007580 <__aeabi_ddiv+0x60>
1000757e:	e072      	b.n	10007666 <__aeabi_ddiv+0x146>
10007580:	4a57      	ldr	r2, [pc, #348]	; (100076e0 <__aeabi_ddiv+0x1c0>)
10007582:	4290      	cmp	r0, r2
10007584:	d067      	beq.n	10007656 <__aeabi_ddiv+0x136>
10007586:	2380      	movs	r3, #128	; 0x80
10007588:	035b      	lsls	r3, r3, #13
1000758a:	431f      	orrs	r7, r3
1000758c:	4653      	mov	r3, sl
1000758e:	4a55      	ldr	r2, [pc, #340]	; (100076e4 <__aeabi_ddiv+0x1c4>)
10007590:	0f5b      	lsrs	r3, r3, #29
10007592:	00ff      	lsls	r7, r7, #3
10007594:	431f      	orrs	r7, r3
10007596:	4694      	mov	ip, r2
10007598:	4653      	mov	r3, sl
1000759a:	2100      	movs	r1, #0
1000759c:	00db      	lsls	r3, r3, #3
1000759e:	4460      	add	r0, ip
100075a0:	4642      	mov	r2, r8
100075a2:	4062      	eors	r2, r4
100075a4:	4692      	mov	sl, r2
100075a6:	1a2d      	subs	r5, r5, r0
100075a8:	430e      	orrs	r6, r1
100075aa:	2e0f      	cmp	r6, #15
100075ac:	d900      	bls.n	100075b0 <__aeabi_ddiv+0x90>
100075ae:	e0a1      	b.n	100076f4 <__aeabi_ddiv+0x1d4>
100075b0:	484d      	ldr	r0, [pc, #308]	; (100076e8 <__aeabi_ddiv+0x1c8>)
100075b2:	00b6      	lsls	r6, r6, #2
100075b4:	5980      	ldr	r0, [r0, r6]
100075b6:	4687      	mov	pc, r0
100075b8:	465b      	mov	r3, fp
100075ba:	431e      	orrs	r6, r3
100075bc:	d000      	beq.n	100075c0 <__aeabi_ddiv+0xa0>
100075be:	e076      	b.n	100076ae <__aeabi_ddiv+0x18e>
100075c0:	2300      	movs	r3, #0
100075c2:	469b      	mov	fp, r3
100075c4:	4699      	mov	r9, r3
100075c6:	3302      	adds	r3, #2
100075c8:	2608      	movs	r6, #8
100075ca:	9300      	str	r3, [sp, #0]
100075cc:	e7ce      	b.n	1000756c <__aeabi_ddiv+0x4c>
100075ce:	4699      	mov	r9, r3
100075d0:	4643      	mov	r3, r8
100075d2:	46bb      	mov	fp, r7
100075d4:	9301      	str	r3, [sp, #4]
100075d6:	9100      	str	r1, [sp, #0]
100075d8:	9b00      	ldr	r3, [sp, #0]
100075da:	2b02      	cmp	r3, #2
100075dc:	d16b      	bne.n	100076b6 <__aeabi_ddiv+0x196>
100075de:	9b01      	ldr	r3, [sp, #4]
100075e0:	469a      	mov	sl, r3
100075e2:	2100      	movs	r1, #0
100075e4:	4653      	mov	r3, sl
100075e6:	2201      	movs	r2, #1
100075e8:	2700      	movs	r7, #0
100075ea:	4689      	mov	r9, r1
100075ec:	401a      	ands	r2, r3
100075ee:	4b3c      	ldr	r3, [pc, #240]	; (100076e0 <__aeabi_ddiv+0x1c0>)
100075f0:	2100      	movs	r1, #0
100075f2:	033f      	lsls	r7, r7, #12
100075f4:	0d0c      	lsrs	r4, r1, #20
100075f6:	0524      	lsls	r4, r4, #20
100075f8:	0b3f      	lsrs	r7, r7, #12
100075fa:	4327      	orrs	r7, r4
100075fc:	4c3b      	ldr	r4, [pc, #236]	; (100076ec <__aeabi_ddiv+0x1cc>)
100075fe:	051b      	lsls	r3, r3, #20
10007600:	4027      	ands	r7, r4
10007602:	431f      	orrs	r7, r3
10007604:	007f      	lsls	r7, r7, #1
10007606:	07d2      	lsls	r2, r2, #31
10007608:	087f      	lsrs	r7, r7, #1
1000760a:	4317      	orrs	r7, r2
1000760c:	4648      	mov	r0, r9
1000760e:	1c39      	adds	r1, r7, #0
10007610:	b007      	add	sp, #28
10007612:	bc3c      	pop	{r2, r3, r4, r5}
10007614:	4690      	mov	r8, r2
10007616:	4699      	mov	r9, r3
10007618:	46a2      	mov	sl, r4
1000761a:	46ab      	mov	fp, r5
1000761c:	bdf0      	pop	{r4, r5, r6, r7, pc}
1000761e:	4303      	orrs	r3, r0
10007620:	d03e      	beq.n	100076a0 <__aeabi_ddiv+0x180>
10007622:	465b      	mov	r3, fp
10007624:	2b00      	cmp	r3, #0
10007626:	d100      	bne.n	1000762a <__aeabi_ddiv+0x10a>
10007628:	e19c      	b.n	10007964 <__aeabi_ddiv+0x444>
1000762a:	4658      	mov	r0, fp
1000762c:	f7fb fe08 	bl	10003240 <__clzsi2>
10007630:	2328      	movs	r3, #40	; 0x28
10007632:	1c31      	adds	r1, r6, #0
10007634:	1a1b      	subs	r3, r3, r0
10007636:	1c02      	adds	r2, r0, #0
10007638:	465f      	mov	r7, fp
1000763a:	40d9      	lsrs	r1, r3
1000763c:	3a08      	subs	r2, #8
1000763e:	4097      	lsls	r7, r2
10007640:	1c0b      	adds	r3, r1, #0
10007642:	4096      	lsls	r6, r2
10007644:	433b      	orrs	r3, r7
10007646:	469b      	mov	fp, r3
10007648:	46b1      	mov	r9, r6
1000764a:	2300      	movs	r3, #0
1000764c:	4d28      	ldr	r5, [pc, #160]	; (100076f0 <__aeabi_ddiv+0x1d0>)
1000764e:	2600      	movs	r6, #0
10007650:	1a2d      	subs	r5, r5, r0
10007652:	9300      	str	r3, [sp, #0]
10007654:	e78a      	b.n	1000756c <__aeabi_ddiv+0x4c>
10007656:	4652      	mov	r2, sl
10007658:	2103      	movs	r1, #3
1000765a:	433a      	orrs	r2, r7
1000765c:	d1a0      	bne.n	100075a0 <__aeabi_ddiv+0x80>
1000765e:	2700      	movs	r7, #0
10007660:	2300      	movs	r3, #0
10007662:	2102      	movs	r1, #2
10007664:	e79c      	b.n	100075a0 <__aeabi_ddiv+0x80>
10007666:	4652      	mov	r2, sl
10007668:	433a      	orrs	r2, r7
1000766a:	d015      	beq.n	10007698 <__aeabi_ddiv+0x178>
1000766c:	2f00      	cmp	r7, #0
1000766e:	d100      	bne.n	10007672 <__aeabi_ddiv+0x152>
10007670:	e185      	b.n	1000797e <__aeabi_ddiv+0x45e>
10007672:	1c38      	adds	r0, r7, #0
10007674:	f7fb fde4 	bl	10003240 <__clzsi2>
10007678:	1c02      	adds	r2, r0, #0
1000767a:	2128      	movs	r1, #40	; 0x28
1000767c:	4650      	mov	r0, sl
1000767e:	1a89      	subs	r1, r1, r2
10007680:	1c13      	adds	r3, r2, #0
10007682:	40c8      	lsrs	r0, r1
10007684:	4651      	mov	r1, sl
10007686:	3b08      	subs	r3, #8
10007688:	4099      	lsls	r1, r3
1000768a:	409f      	lsls	r7, r3
1000768c:	1c0b      	adds	r3, r1, #0
1000768e:	4307      	orrs	r7, r0
10007690:	4817      	ldr	r0, [pc, #92]	; (100076f0 <__aeabi_ddiv+0x1d0>)
10007692:	2100      	movs	r1, #0
10007694:	1a80      	subs	r0, r0, r2
10007696:	e783      	b.n	100075a0 <__aeabi_ddiv+0x80>
10007698:	2700      	movs	r7, #0
1000769a:	2300      	movs	r3, #0
1000769c:	2101      	movs	r1, #1
1000769e:	e77f      	b.n	100075a0 <__aeabi_ddiv+0x80>
100076a0:	2300      	movs	r3, #0
100076a2:	469b      	mov	fp, r3
100076a4:	4699      	mov	r9, r3
100076a6:	3301      	adds	r3, #1
100076a8:	2604      	movs	r6, #4
100076aa:	9300      	str	r3, [sp, #0]
100076ac:	e75e      	b.n	1000756c <__aeabi_ddiv+0x4c>
100076ae:	2303      	movs	r3, #3
100076b0:	260c      	movs	r6, #12
100076b2:	9300      	str	r3, [sp, #0]
100076b4:	e75a      	b.n	1000756c <__aeabi_ddiv+0x4c>
100076b6:	2b03      	cmp	r3, #3
100076b8:	d100      	bne.n	100076bc <__aeabi_ddiv+0x19c>
100076ba:	e23c      	b.n	10007b36 <__aeabi_ddiv+0x616>
100076bc:	2b01      	cmp	r3, #1
100076be:	d000      	beq.n	100076c2 <__aeabi_ddiv+0x1a2>
100076c0:	e1bf      	b.n	10007a42 <__aeabi_ddiv+0x522>
100076c2:	1c1a      	adds	r2, r3, #0
100076c4:	9b01      	ldr	r3, [sp, #4]
100076c6:	401a      	ands	r2, r3
100076c8:	2100      	movs	r1, #0
100076ca:	2300      	movs	r3, #0
100076cc:	2700      	movs	r7, #0
100076ce:	4689      	mov	r9, r1
100076d0:	e78e      	b.n	100075f0 <__aeabi_ddiv+0xd0>
100076d2:	2300      	movs	r3, #0
100076d4:	2780      	movs	r7, #128	; 0x80
100076d6:	4699      	mov	r9, r3
100076d8:	2200      	movs	r2, #0
100076da:	033f      	lsls	r7, r7, #12
100076dc:	4b00      	ldr	r3, [pc, #0]	; (100076e0 <__aeabi_ddiv+0x1c0>)
100076de:	e787      	b.n	100075f0 <__aeabi_ddiv+0xd0>
100076e0:	000007ff 	.word	0x000007ff
100076e4:	fffffc01 	.word	0xfffffc01
100076e8:	10009958 	.word	0x10009958
100076ec:	800fffff 	.word	0x800fffff
100076f0:	fffffc0d 	.word	0xfffffc0d
100076f4:	45bb      	cmp	fp, r7
100076f6:	d900      	bls.n	100076fa <__aeabi_ddiv+0x1da>
100076f8:	e151      	b.n	1000799e <__aeabi_ddiv+0x47e>
100076fa:	d100      	bne.n	100076fe <__aeabi_ddiv+0x1de>
100076fc:	e14c      	b.n	10007998 <__aeabi_ddiv+0x478>
100076fe:	464a      	mov	r2, r9
10007700:	9203      	str	r2, [sp, #12]
10007702:	2200      	movs	r2, #0
10007704:	465c      	mov	r4, fp
10007706:	4690      	mov	r8, r2
10007708:	3d01      	subs	r5, #1
1000770a:	0e18      	lsrs	r0, r3, #24
1000770c:	023f      	lsls	r7, r7, #8
1000770e:	4338      	orrs	r0, r7
10007710:	021b      	lsls	r3, r3, #8
10007712:	9301      	str	r3, [sp, #4]
10007714:	0c03      	lsrs	r3, r0, #16
10007716:	4699      	mov	r9, r3
10007718:	0403      	lsls	r3, r0, #16
1000771a:	0c1b      	lsrs	r3, r3, #16
1000771c:	4649      	mov	r1, r9
1000771e:	1c06      	adds	r6, r0, #0
10007720:	1c20      	adds	r0, r4, #0
10007722:	1c1f      	adds	r7, r3, #0
10007724:	9300      	str	r3, [sp, #0]
10007726:	f7f9 ff1f 	bl	10001568 <__aeabi_uidiv>
1000772a:	1c02      	adds	r2, r0, #0
1000772c:	437a      	muls	r2, r7
1000772e:	9002      	str	r0, [sp, #8]
10007730:	4649      	mov	r1, r9
10007732:	1c20      	adds	r0, r4, #0
10007734:	1c17      	adds	r7, r2, #0
10007736:	f7f9 ff37 	bl	100015a8 <__aeabi_uidivmod>
1000773a:	9b03      	ldr	r3, [sp, #12]
1000773c:	0409      	lsls	r1, r1, #16
1000773e:	0c1b      	lsrs	r3, r3, #16
10007740:	4319      	orrs	r1, r3
10007742:	428f      	cmp	r7, r1
10007744:	d90c      	bls.n	10007760 <__aeabi_ddiv+0x240>
10007746:	9b02      	ldr	r3, [sp, #8]
10007748:	1989      	adds	r1, r1, r6
1000774a:	3b01      	subs	r3, #1
1000774c:	428e      	cmp	r6, r1
1000774e:	d900      	bls.n	10007752 <__aeabi_ddiv+0x232>
10007750:	e152      	b.n	100079f8 <__aeabi_ddiv+0x4d8>
10007752:	428f      	cmp	r7, r1
10007754:	d800      	bhi.n	10007758 <__aeabi_ddiv+0x238>
10007756:	e14f      	b.n	100079f8 <__aeabi_ddiv+0x4d8>
10007758:	9b02      	ldr	r3, [sp, #8]
1000775a:	1989      	adds	r1, r1, r6
1000775c:	3b02      	subs	r3, #2
1000775e:	9302      	str	r3, [sp, #8]
10007760:	1bcc      	subs	r4, r1, r7
10007762:	1c20      	adds	r0, r4, #0
10007764:	4649      	mov	r1, r9
10007766:	f7f9 feff 	bl	10001568 <__aeabi_uidiv>
1000776a:	9f00      	ldr	r7, [sp, #0]
1000776c:	4683      	mov	fp, r0
1000776e:	4347      	muls	r7, r0
10007770:	4649      	mov	r1, r9
10007772:	1c20      	adds	r0, r4, #0
10007774:	f7f9 ff18 	bl	100015a8 <__aeabi_uidivmod>
10007778:	9a03      	ldr	r2, [sp, #12]
1000777a:	040b      	lsls	r3, r1, #16
1000777c:	0414      	lsls	r4, r2, #16
1000777e:	0c24      	lsrs	r4, r4, #16
10007780:	4323      	orrs	r3, r4
10007782:	429f      	cmp	r7, r3
10007784:	d90d      	bls.n	100077a2 <__aeabi_ddiv+0x282>
10007786:	465a      	mov	r2, fp
10007788:	199b      	adds	r3, r3, r6
1000778a:	3a01      	subs	r2, #1
1000778c:	429e      	cmp	r6, r3
1000778e:	d900      	bls.n	10007792 <__aeabi_ddiv+0x272>
10007790:	e130      	b.n	100079f4 <__aeabi_ddiv+0x4d4>
10007792:	429f      	cmp	r7, r3
10007794:	d800      	bhi.n	10007798 <__aeabi_ddiv+0x278>
10007796:	e12d      	b.n	100079f4 <__aeabi_ddiv+0x4d4>
10007798:	2202      	movs	r2, #2
1000779a:	4252      	negs	r2, r2
1000779c:	4694      	mov	ip, r2
1000779e:	199b      	adds	r3, r3, r6
100077a0:	44e3      	add	fp, ip
100077a2:	9a02      	ldr	r2, [sp, #8]
100077a4:	1bdb      	subs	r3, r3, r7
100077a6:	0417      	lsls	r7, r2, #16
100077a8:	465a      	mov	r2, fp
100077aa:	433a      	orrs	r2, r7
100077ac:	4693      	mov	fp, r2
100077ae:	9c01      	ldr	r4, [sp, #4]
100077b0:	0c17      	lsrs	r7, r2, #16
100077b2:	0c22      	lsrs	r2, r4, #16
100077b4:	1c10      	adds	r0, r2, #0
100077b6:	9204      	str	r2, [sp, #16]
100077b8:	465a      	mov	r2, fp
100077ba:	0411      	lsls	r1, r2, #16
100077bc:	0422      	lsls	r2, r4, #16
100077be:	0c12      	lsrs	r2, r2, #16
100077c0:	1c14      	adds	r4, r2, #0
100077c2:	0c09      	lsrs	r1, r1, #16
100077c4:	437c      	muls	r4, r7
100077c6:	9205      	str	r2, [sp, #20]
100077c8:	434a      	muls	r2, r1
100077ca:	4341      	muls	r1, r0
100077cc:	4347      	muls	r7, r0
100077ce:	1861      	adds	r1, r4, r1
100077d0:	0c10      	lsrs	r0, r2, #16
100077d2:	1809      	adds	r1, r1, r0
100077d4:	428c      	cmp	r4, r1
100077d6:	d903      	bls.n	100077e0 <__aeabi_ddiv+0x2c0>
100077d8:	2080      	movs	r0, #128	; 0x80
100077da:	0240      	lsls	r0, r0, #9
100077dc:	4684      	mov	ip, r0
100077de:	4467      	add	r7, ip
100077e0:	0c0c      	lsrs	r4, r1, #16
100077e2:	0412      	lsls	r2, r2, #16
100077e4:	0408      	lsls	r0, r1, #16
100077e6:	0c12      	lsrs	r2, r2, #16
100077e8:	193c      	adds	r4, r7, r4
100077ea:	1881      	adds	r1, r0, r2
100077ec:	42a3      	cmp	r3, r4
100077ee:	d200      	bcs.n	100077f2 <__aeabi_ddiv+0x2d2>
100077f0:	e0e5      	b.n	100079be <__aeabi_ddiv+0x49e>
100077f2:	d100      	bne.n	100077f6 <__aeabi_ddiv+0x2d6>
100077f4:	e0df      	b.n	100079b6 <__aeabi_ddiv+0x496>
100077f6:	1b1f      	subs	r7, r3, r4
100077f8:	4643      	mov	r3, r8
100077fa:	1a5c      	subs	r4, r3, r1
100077fc:	45a0      	cmp	r8, r4
100077fe:	4192      	sbcs	r2, r2
10007800:	4252      	negs	r2, r2
10007802:	1abf      	subs	r7, r7, r2
10007804:	42b7      	cmp	r7, r6
10007806:	d100      	bne.n	1000780a <__aeabi_ddiv+0x2ea>
10007808:	e10e      	b.n	10007a28 <__aeabi_ddiv+0x508>
1000780a:	1c38      	adds	r0, r7, #0
1000780c:	4649      	mov	r1, r9
1000780e:	f7f9 feab 	bl	10001568 <__aeabi_uidiv>
10007812:	9b00      	ldr	r3, [sp, #0]
10007814:	9002      	str	r0, [sp, #8]
10007816:	4343      	muls	r3, r0
10007818:	4649      	mov	r1, r9
1000781a:	1c38      	adds	r0, r7, #0
1000781c:	4698      	mov	r8, r3
1000781e:	f7f9 fec3 	bl	100015a8 <__aeabi_uidivmod>
10007822:	0c23      	lsrs	r3, r4, #16
10007824:	040f      	lsls	r7, r1, #16
10007826:	431f      	orrs	r7, r3
10007828:	45b8      	cmp	r8, r7
1000782a:	d90c      	bls.n	10007846 <__aeabi_ddiv+0x326>
1000782c:	9b02      	ldr	r3, [sp, #8]
1000782e:	19bf      	adds	r7, r7, r6
10007830:	3b01      	subs	r3, #1
10007832:	42be      	cmp	r6, r7
10007834:	d900      	bls.n	10007838 <__aeabi_ddiv+0x318>
10007836:	e0fb      	b.n	10007a30 <__aeabi_ddiv+0x510>
10007838:	45b8      	cmp	r8, r7
1000783a:	d800      	bhi.n	1000783e <__aeabi_ddiv+0x31e>
1000783c:	e0f8      	b.n	10007a30 <__aeabi_ddiv+0x510>
1000783e:	9b02      	ldr	r3, [sp, #8]
10007840:	19bf      	adds	r7, r7, r6
10007842:	3b02      	subs	r3, #2
10007844:	9302      	str	r3, [sp, #8]
10007846:	4643      	mov	r3, r8
10007848:	1aff      	subs	r7, r7, r3
1000784a:	4649      	mov	r1, r9
1000784c:	1c38      	adds	r0, r7, #0
1000784e:	f7f9 fe8b 	bl	10001568 <__aeabi_uidiv>
10007852:	9b00      	ldr	r3, [sp, #0]
10007854:	9003      	str	r0, [sp, #12]
10007856:	4343      	muls	r3, r0
10007858:	4649      	mov	r1, r9
1000785a:	1c38      	adds	r0, r7, #0
1000785c:	4698      	mov	r8, r3
1000785e:	f7f9 fea3 	bl	100015a8 <__aeabi_uidivmod>
10007862:	0424      	lsls	r4, r4, #16
10007864:	0409      	lsls	r1, r1, #16
10007866:	0c24      	lsrs	r4, r4, #16
10007868:	4321      	orrs	r1, r4
1000786a:	4588      	cmp	r8, r1
1000786c:	d90c      	bls.n	10007888 <__aeabi_ddiv+0x368>
1000786e:	9b03      	ldr	r3, [sp, #12]
10007870:	1989      	adds	r1, r1, r6
10007872:	3b01      	subs	r3, #1
10007874:	428e      	cmp	r6, r1
10007876:	d900      	bls.n	1000787a <__aeabi_ddiv+0x35a>
10007878:	e0dc      	b.n	10007a34 <__aeabi_ddiv+0x514>
1000787a:	4588      	cmp	r8, r1
1000787c:	d800      	bhi.n	10007880 <__aeabi_ddiv+0x360>
1000787e:	e0d9      	b.n	10007a34 <__aeabi_ddiv+0x514>
10007880:	9b03      	ldr	r3, [sp, #12]
10007882:	1989      	adds	r1, r1, r6
10007884:	3b02      	subs	r3, #2
10007886:	9303      	str	r3, [sp, #12]
10007888:	4643      	mov	r3, r8
1000788a:	1ac9      	subs	r1, r1, r3
1000788c:	9b02      	ldr	r3, [sp, #8]
1000788e:	9a03      	ldr	r2, [sp, #12]
10007890:	041b      	lsls	r3, r3, #16
10007892:	9c05      	ldr	r4, [sp, #20]
10007894:	431a      	orrs	r2, r3
10007896:	0c10      	lsrs	r0, r2, #16
10007898:	0413      	lsls	r3, r2, #16
1000789a:	4691      	mov	r9, r2
1000789c:	1c22      	adds	r2, r4, #0
1000789e:	9f04      	ldr	r7, [sp, #16]
100078a0:	0c1b      	lsrs	r3, r3, #16
100078a2:	435a      	muls	r2, r3
100078a4:	4344      	muls	r4, r0
100078a6:	437b      	muls	r3, r7
100078a8:	4378      	muls	r0, r7
100078aa:	18e3      	adds	r3, r4, r3
100078ac:	0c17      	lsrs	r7, r2, #16
100078ae:	19db      	adds	r3, r3, r7
100078b0:	429c      	cmp	r4, r3
100078b2:	d903      	bls.n	100078bc <__aeabi_ddiv+0x39c>
100078b4:	2480      	movs	r4, #128	; 0x80
100078b6:	0264      	lsls	r4, r4, #9
100078b8:	46a4      	mov	ip, r4
100078ba:	4460      	add	r0, ip
100078bc:	0c1c      	lsrs	r4, r3, #16
100078be:	0412      	lsls	r2, r2, #16
100078c0:	041b      	lsls	r3, r3, #16
100078c2:	0c12      	lsrs	r2, r2, #16
100078c4:	1900      	adds	r0, r0, r4
100078c6:	189b      	adds	r3, r3, r2
100078c8:	4281      	cmp	r1, r0
100078ca:	d200      	bcs.n	100078ce <__aeabi_ddiv+0x3ae>
100078cc:	e096      	b.n	100079fc <__aeabi_ddiv+0x4dc>
100078ce:	d100      	bne.n	100078d2 <__aeabi_ddiv+0x3b2>
100078d0:	e0fc      	b.n	10007acc <__aeabi_ddiv+0x5ac>
100078d2:	464a      	mov	r2, r9
100078d4:	2301      	movs	r3, #1
100078d6:	431a      	orrs	r2, r3
100078d8:	4691      	mov	r9, r2
100078da:	4b9b      	ldr	r3, [pc, #620]	; (10007b48 <__aeabi_ddiv+0x628>)
100078dc:	18eb      	adds	r3, r5, r3
100078de:	2b00      	cmp	r3, #0
100078e0:	dc00      	bgt.n	100078e4 <__aeabi_ddiv+0x3c4>
100078e2:	e099      	b.n	10007a18 <__aeabi_ddiv+0x4f8>
100078e4:	464a      	mov	r2, r9
100078e6:	0752      	lsls	r2, r2, #29
100078e8:	d00a      	beq.n	10007900 <__aeabi_ddiv+0x3e0>
100078ea:	220f      	movs	r2, #15
100078ec:	4649      	mov	r1, r9
100078ee:	400a      	ands	r2, r1
100078f0:	2a04      	cmp	r2, #4
100078f2:	d005      	beq.n	10007900 <__aeabi_ddiv+0x3e0>
100078f4:	3104      	adds	r1, #4
100078f6:	4549      	cmp	r1, r9
100078f8:	4192      	sbcs	r2, r2
100078fa:	4689      	mov	r9, r1
100078fc:	4252      	negs	r2, r2
100078fe:	4493      	add	fp, r2
10007900:	465a      	mov	r2, fp
10007902:	01d2      	lsls	r2, r2, #7
10007904:	d506      	bpl.n	10007914 <__aeabi_ddiv+0x3f4>
10007906:	465a      	mov	r2, fp
10007908:	4b90      	ldr	r3, [pc, #576]	; (10007b4c <__aeabi_ddiv+0x62c>)
1000790a:	401a      	ands	r2, r3
1000790c:	2380      	movs	r3, #128	; 0x80
1000790e:	4693      	mov	fp, r2
10007910:	00db      	lsls	r3, r3, #3
10007912:	18eb      	adds	r3, r5, r3
10007914:	4a8e      	ldr	r2, [pc, #568]	; (10007b50 <__aeabi_ddiv+0x630>)
10007916:	4293      	cmp	r3, r2
10007918:	dd00      	ble.n	1000791c <__aeabi_ddiv+0x3fc>
1000791a:	e662      	b.n	100075e2 <__aeabi_ddiv+0xc2>
1000791c:	464a      	mov	r2, r9
1000791e:	4659      	mov	r1, fp
10007920:	08d2      	lsrs	r2, r2, #3
10007922:	0749      	lsls	r1, r1, #29
10007924:	4311      	orrs	r1, r2
10007926:	465a      	mov	r2, fp
10007928:	4689      	mov	r9, r1
1000792a:	0257      	lsls	r7, r2, #9
1000792c:	4651      	mov	r1, sl
1000792e:	2201      	movs	r2, #1
10007930:	055b      	lsls	r3, r3, #21
10007932:	0b3f      	lsrs	r7, r7, #12
10007934:	0d5b      	lsrs	r3, r3, #21
10007936:	400a      	ands	r2, r1
10007938:	e65a      	b.n	100075f0 <__aeabi_ddiv+0xd0>
1000793a:	2080      	movs	r0, #128	; 0x80
1000793c:	465a      	mov	r2, fp
1000793e:	0300      	lsls	r0, r0, #12
10007940:	4202      	tst	r2, r0
10007942:	d008      	beq.n	10007956 <__aeabi_ddiv+0x436>
10007944:	4207      	tst	r7, r0
10007946:	d106      	bne.n	10007956 <__aeabi_ddiv+0x436>
10007948:	4307      	orrs	r7, r0
1000794a:	033f      	lsls	r7, r7, #12
1000794c:	4699      	mov	r9, r3
1000794e:	0b3f      	lsrs	r7, r7, #12
10007950:	4642      	mov	r2, r8
10007952:	4b80      	ldr	r3, [pc, #512]	; (10007b54 <__aeabi_ddiv+0x634>)
10007954:	e64c      	b.n	100075f0 <__aeabi_ddiv+0xd0>
10007956:	465f      	mov	r7, fp
10007958:	4307      	orrs	r7, r0
1000795a:	033f      	lsls	r7, r7, #12
1000795c:	0b3f      	lsrs	r7, r7, #12
1000795e:	1c22      	adds	r2, r4, #0
10007960:	4b7c      	ldr	r3, [pc, #496]	; (10007b54 <__aeabi_ddiv+0x634>)
10007962:	e645      	b.n	100075f0 <__aeabi_ddiv+0xd0>
10007964:	f7fb fc6c 	bl	10003240 <__clzsi2>
10007968:	1c03      	adds	r3, r0, #0
1000796a:	3020      	adds	r0, #32
1000796c:	2827      	cmp	r0, #39	; 0x27
1000796e:	dc00      	bgt.n	10007972 <__aeabi_ddiv+0x452>
10007970:	e65e      	b.n	10007630 <__aeabi_ddiv+0x110>
10007972:	3b08      	subs	r3, #8
10007974:	409e      	lsls	r6, r3
10007976:	2300      	movs	r3, #0
10007978:	46b3      	mov	fp, r6
1000797a:	4699      	mov	r9, r3
1000797c:	e665      	b.n	1000764a <__aeabi_ddiv+0x12a>
1000797e:	4650      	mov	r0, sl
10007980:	f7fb fc5e 	bl	10003240 <__clzsi2>
10007984:	1c02      	adds	r2, r0, #0
10007986:	3220      	adds	r2, #32
10007988:	2a27      	cmp	r2, #39	; 0x27
1000798a:	dc00      	bgt.n	1000798e <__aeabi_ddiv+0x46e>
1000798c:	e675      	b.n	1000767a <__aeabi_ddiv+0x15a>
1000798e:	4657      	mov	r7, sl
10007990:	3808      	subs	r0, #8
10007992:	4087      	lsls	r7, r0
10007994:	2300      	movs	r3, #0
10007996:	e67b      	b.n	10007690 <__aeabi_ddiv+0x170>
10007998:	4599      	cmp	r9, r3
1000799a:	d200      	bcs.n	1000799e <__aeabi_ddiv+0x47e>
1000799c:	e6af      	b.n	100076fe <__aeabi_ddiv+0x1de>
1000799e:	465a      	mov	r2, fp
100079a0:	4659      	mov	r1, fp
100079a2:	0854      	lsrs	r4, r2, #1
100079a4:	464a      	mov	r2, r9
100079a6:	07c8      	lsls	r0, r1, #31
100079a8:	0852      	lsrs	r2, r2, #1
100079aa:	4302      	orrs	r2, r0
100079ac:	9203      	str	r2, [sp, #12]
100079ae:	464a      	mov	r2, r9
100079b0:	07d2      	lsls	r2, r2, #31
100079b2:	4690      	mov	r8, r2
100079b4:	e6a9      	b.n	1000770a <__aeabi_ddiv+0x1ea>
100079b6:	2700      	movs	r7, #0
100079b8:	4588      	cmp	r8, r1
100079ba:	d300      	bcc.n	100079be <__aeabi_ddiv+0x49e>
100079bc:	e71c      	b.n	100077f8 <__aeabi_ddiv+0x2d8>
100079be:	9f01      	ldr	r7, [sp, #4]
100079c0:	465a      	mov	r2, fp
100079c2:	46bc      	mov	ip, r7
100079c4:	44e0      	add	r8, ip
100079c6:	45b8      	cmp	r8, r7
100079c8:	41bf      	sbcs	r7, r7
100079ca:	427f      	negs	r7, r7
100079cc:	19bf      	adds	r7, r7, r6
100079ce:	18ff      	adds	r7, r7, r3
100079d0:	3a01      	subs	r2, #1
100079d2:	42be      	cmp	r6, r7
100079d4:	d206      	bcs.n	100079e4 <__aeabi_ddiv+0x4c4>
100079d6:	42bc      	cmp	r4, r7
100079d8:	d85f      	bhi.n	10007a9a <__aeabi_ddiv+0x57a>
100079da:	d100      	bne.n	100079de <__aeabi_ddiv+0x4be>
100079dc:	e09f      	b.n	10007b1e <__aeabi_ddiv+0x5fe>
100079de:	1b3f      	subs	r7, r7, r4
100079e0:	4693      	mov	fp, r2
100079e2:	e709      	b.n	100077f8 <__aeabi_ddiv+0x2d8>
100079e4:	42b7      	cmp	r7, r6
100079e6:	d1fa      	bne.n	100079de <__aeabi_ddiv+0x4be>
100079e8:	9b01      	ldr	r3, [sp, #4]
100079ea:	4543      	cmp	r3, r8
100079ec:	d9f3      	bls.n	100079d6 <__aeabi_ddiv+0x4b6>
100079ee:	1b37      	subs	r7, r6, r4
100079f0:	4693      	mov	fp, r2
100079f2:	e701      	b.n	100077f8 <__aeabi_ddiv+0x2d8>
100079f4:	4693      	mov	fp, r2
100079f6:	e6d4      	b.n	100077a2 <__aeabi_ddiv+0x282>
100079f8:	9302      	str	r3, [sp, #8]
100079fa:	e6b1      	b.n	10007760 <__aeabi_ddiv+0x240>
100079fc:	464a      	mov	r2, r9
100079fe:	1989      	adds	r1, r1, r6
10007a00:	3a01      	subs	r2, #1
10007a02:	428e      	cmp	r6, r1
10007a04:	d918      	bls.n	10007a38 <__aeabi_ddiv+0x518>
10007a06:	4691      	mov	r9, r2
10007a08:	4281      	cmp	r1, r0
10007a0a:	d000      	beq.n	10007a0e <__aeabi_ddiv+0x4ee>
10007a0c:	e761      	b.n	100078d2 <__aeabi_ddiv+0x3b2>
10007a0e:	9a01      	ldr	r2, [sp, #4]
10007a10:	429a      	cmp	r2, r3
10007a12:	d000      	beq.n	10007a16 <__aeabi_ddiv+0x4f6>
10007a14:	e75d      	b.n	100078d2 <__aeabi_ddiv+0x3b2>
10007a16:	e760      	b.n	100078da <__aeabi_ddiv+0x3ba>
10007a18:	4f4f      	ldr	r7, [pc, #316]	; (10007b58 <__aeabi_ddiv+0x638>)
10007a1a:	1b7f      	subs	r7, r7, r5
10007a1c:	2f38      	cmp	r7, #56	; 0x38
10007a1e:	dd13      	ble.n	10007a48 <__aeabi_ddiv+0x528>
10007a20:	2201      	movs	r2, #1
10007a22:	4653      	mov	r3, sl
10007a24:	401a      	ands	r2, r3
10007a26:	e64f      	b.n	100076c8 <__aeabi_ddiv+0x1a8>
10007a28:	2301      	movs	r3, #1
10007a2a:	425b      	negs	r3, r3
10007a2c:	4699      	mov	r9, r3
10007a2e:	e754      	b.n	100078da <__aeabi_ddiv+0x3ba>
10007a30:	9302      	str	r3, [sp, #8]
10007a32:	e708      	b.n	10007846 <__aeabi_ddiv+0x326>
10007a34:	9303      	str	r3, [sp, #12]
10007a36:	e727      	b.n	10007888 <__aeabi_ddiv+0x368>
10007a38:	4288      	cmp	r0, r1
10007a3a:	d83c      	bhi.n	10007ab6 <__aeabi_ddiv+0x596>
10007a3c:	d074      	beq.n	10007b28 <__aeabi_ddiv+0x608>
10007a3e:	4691      	mov	r9, r2
10007a40:	e747      	b.n	100078d2 <__aeabi_ddiv+0x3b2>
10007a42:	9b01      	ldr	r3, [sp, #4]
10007a44:	469a      	mov	sl, r3
10007a46:	e748      	b.n	100078da <__aeabi_ddiv+0x3ba>
10007a48:	2f1f      	cmp	r7, #31
10007a4a:	dc44      	bgt.n	10007ad6 <__aeabi_ddiv+0x5b6>
10007a4c:	4b43      	ldr	r3, [pc, #268]	; (10007b5c <__aeabi_ddiv+0x63c>)
10007a4e:	464a      	mov	r2, r9
10007a50:	469c      	mov	ip, r3
10007a52:	465b      	mov	r3, fp
10007a54:	4465      	add	r5, ip
10007a56:	40fa      	lsrs	r2, r7
10007a58:	40ab      	lsls	r3, r5
10007a5a:	4313      	orrs	r3, r2
10007a5c:	464a      	mov	r2, r9
10007a5e:	40aa      	lsls	r2, r5
10007a60:	1c15      	adds	r5, r2, #0
10007a62:	1e6a      	subs	r2, r5, #1
10007a64:	4195      	sbcs	r5, r2
10007a66:	465a      	mov	r2, fp
10007a68:	40fa      	lsrs	r2, r7
10007a6a:	432b      	orrs	r3, r5
10007a6c:	1c17      	adds	r7, r2, #0
10007a6e:	075a      	lsls	r2, r3, #29
10007a70:	d009      	beq.n	10007a86 <__aeabi_ddiv+0x566>
10007a72:	220f      	movs	r2, #15
10007a74:	401a      	ands	r2, r3
10007a76:	2a04      	cmp	r2, #4
10007a78:	d005      	beq.n	10007a86 <__aeabi_ddiv+0x566>
10007a7a:	1d1a      	adds	r2, r3, #4
10007a7c:	429a      	cmp	r2, r3
10007a7e:	419b      	sbcs	r3, r3
10007a80:	425b      	negs	r3, r3
10007a82:	18ff      	adds	r7, r7, r3
10007a84:	1c13      	adds	r3, r2, #0
10007a86:	023a      	lsls	r2, r7, #8
10007a88:	d53e      	bpl.n	10007b08 <__aeabi_ddiv+0x5e8>
10007a8a:	4653      	mov	r3, sl
10007a8c:	2201      	movs	r2, #1
10007a8e:	2100      	movs	r1, #0
10007a90:	401a      	ands	r2, r3
10007a92:	2700      	movs	r7, #0
10007a94:	2301      	movs	r3, #1
10007a96:	4689      	mov	r9, r1
10007a98:	e5aa      	b.n	100075f0 <__aeabi_ddiv+0xd0>
10007a9a:	2302      	movs	r3, #2
10007a9c:	425b      	negs	r3, r3
10007a9e:	469c      	mov	ip, r3
10007aa0:	9a01      	ldr	r2, [sp, #4]
10007aa2:	44e3      	add	fp, ip
10007aa4:	4694      	mov	ip, r2
10007aa6:	44e0      	add	r8, ip
10007aa8:	4590      	cmp	r8, r2
10007aaa:	419b      	sbcs	r3, r3
10007aac:	425b      	negs	r3, r3
10007aae:	199b      	adds	r3, r3, r6
10007ab0:	19df      	adds	r7, r3, r7
10007ab2:	1b3f      	subs	r7, r7, r4
10007ab4:	e6a0      	b.n	100077f8 <__aeabi_ddiv+0x2d8>
10007ab6:	9f01      	ldr	r7, [sp, #4]
10007ab8:	464a      	mov	r2, r9
10007aba:	007c      	lsls	r4, r7, #1
10007abc:	42bc      	cmp	r4, r7
10007abe:	41bf      	sbcs	r7, r7
10007ac0:	427f      	negs	r7, r7
10007ac2:	19bf      	adds	r7, r7, r6
10007ac4:	3a02      	subs	r2, #2
10007ac6:	19c9      	adds	r1, r1, r7
10007ac8:	9401      	str	r4, [sp, #4]
10007aca:	e79c      	b.n	10007a06 <__aeabi_ddiv+0x4e6>
10007acc:	2b00      	cmp	r3, #0
10007ace:	d195      	bne.n	100079fc <__aeabi_ddiv+0x4dc>
10007ad0:	2200      	movs	r2, #0
10007ad2:	9201      	str	r2, [sp, #4]
10007ad4:	e79b      	b.n	10007a0e <__aeabi_ddiv+0x4ee>
10007ad6:	465a      	mov	r2, fp
10007ad8:	4b21      	ldr	r3, [pc, #132]	; (10007b60 <__aeabi_ddiv+0x640>)
10007ada:	1b5b      	subs	r3, r3, r5
10007adc:	40da      	lsrs	r2, r3
10007ade:	2f20      	cmp	r7, #32
10007ae0:	d027      	beq.n	10007b32 <__aeabi_ddiv+0x612>
10007ae2:	4b20      	ldr	r3, [pc, #128]	; (10007b64 <__aeabi_ddiv+0x644>)
10007ae4:	469c      	mov	ip, r3
10007ae6:	465b      	mov	r3, fp
10007ae8:	4465      	add	r5, ip
10007aea:	40ab      	lsls	r3, r5
10007aec:	4649      	mov	r1, r9
10007aee:	430b      	orrs	r3, r1
10007af0:	1e59      	subs	r1, r3, #1
10007af2:	418b      	sbcs	r3, r1
10007af4:	4313      	orrs	r3, r2
10007af6:	2207      	movs	r2, #7
10007af8:	2700      	movs	r7, #0
10007afa:	401a      	ands	r2, r3
10007afc:	d007      	beq.n	10007b0e <__aeabi_ddiv+0x5ee>
10007afe:	220f      	movs	r2, #15
10007b00:	2700      	movs	r7, #0
10007b02:	401a      	ands	r2, r3
10007b04:	2a04      	cmp	r2, #4
10007b06:	d1b8      	bne.n	10007a7a <__aeabi_ddiv+0x55a>
10007b08:	077a      	lsls	r2, r7, #29
10007b0a:	027f      	lsls	r7, r7, #9
10007b0c:	0b3f      	lsrs	r7, r7, #12
10007b0e:	08db      	lsrs	r3, r3, #3
10007b10:	4313      	orrs	r3, r2
10007b12:	4699      	mov	r9, r3
10007b14:	2201      	movs	r2, #1
10007b16:	4653      	mov	r3, sl
10007b18:	401a      	ands	r2, r3
10007b1a:	2300      	movs	r3, #0
10007b1c:	e568      	b.n	100075f0 <__aeabi_ddiv+0xd0>
10007b1e:	4541      	cmp	r1, r8
10007b20:	d8bb      	bhi.n	10007a9a <__aeabi_ddiv+0x57a>
10007b22:	4693      	mov	fp, r2
10007b24:	2700      	movs	r7, #0
10007b26:	e667      	b.n	100077f8 <__aeabi_ddiv+0x2d8>
10007b28:	9c01      	ldr	r4, [sp, #4]
10007b2a:	429c      	cmp	r4, r3
10007b2c:	d3c3      	bcc.n	10007ab6 <__aeabi_ddiv+0x596>
10007b2e:	4691      	mov	r9, r2
10007b30:	e76d      	b.n	10007a0e <__aeabi_ddiv+0x4ee>
10007b32:	2300      	movs	r3, #0
10007b34:	e7da      	b.n	10007aec <__aeabi_ddiv+0x5cc>
10007b36:	2780      	movs	r7, #128	; 0x80
10007b38:	465b      	mov	r3, fp
10007b3a:	033f      	lsls	r7, r7, #12
10007b3c:	431f      	orrs	r7, r3
10007b3e:	033f      	lsls	r7, r7, #12
10007b40:	0b3f      	lsrs	r7, r7, #12
10007b42:	9a01      	ldr	r2, [sp, #4]
10007b44:	4b03      	ldr	r3, [pc, #12]	; (10007b54 <__aeabi_ddiv+0x634>)
10007b46:	e553      	b.n	100075f0 <__aeabi_ddiv+0xd0>
10007b48:	000003ff 	.word	0x000003ff
10007b4c:	feffffff 	.word	0xfeffffff
10007b50:	000007fe 	.word	0x000007fe
10007b54:	000007ff 	.word	0x000007ff
10007b58:	fffffc02 	.word	0xfffffc02
10007b5c:	0000041e 	.word	0x0000041e
10007b60:	fffffbe2 	.word	0xfffffbe2
10007b64:	0000043e 	.word	0x0000043e

10007b68 <__eqdf2>:
10007b68:	b5f0      	push	{r4, r5, r6, r7, lr}
10007b6a:	465f      	mov	r7, fp
10007b6c:	464d      	mov	r5, r9
10007b6e:	4644      	mov	r4, r8
10007b70:	4656      	mov	r6, sl
10007b72:	b4f0      	push	{r4, r5, r6, r7}
10007b74:	031f      	lsls	r7, r3, #12
10007b76:	005c      	lsls	r4, r3, #1
10007b78:	0fdb      	lsrs	r3, r3, #31
10007b7a:	4699      	mov	r9, r3
10007b7c:	4b1b      	ldr	r3, [pc, #108]	; (10007bec <__eqdf2+0x84>)
10007b7e:	030e      	lsls	r6, r1, #12
10007b80:	004d      	lsls	r5, r1, #1
10007b82:	0fc9      	lsrs	r1, r1, #31
10007b84:	4684      	mov	ip, r0
10007b86:	0b36      	lsrs	r6, r6, #12
10007b88:	0d6d      	lsrs	r5, r5, #21
10007b8a:	468b      	mov	fp, r1
10007b8c:	4690      	mov	r8, r2
10007b8e:	0b3f      	lsrs	r7, r7, #12
10007b90:	0d64      	lsrs	r4, r4, #21
10007b92:	429d      	cmp	r5, r3
10007b94:	d00c      	beq.n	10007bb0 <__eqdf2+0x48>
10007b96:	4b15      	ldr	r3, [pc, #84]	; (10007bec <__eqdf2+0x84>)
10007b98:	429c      	cmp	r4, r3
10007b9a:	d010      	beq.n	10007bbe <__eqdf2+0x56>
10007b9c:	2301      	movs	r3, #1
10007b9e:	42a5      	cmp	r5, r4
10007ba0:	d014      	beq.n	10007bcc <__eqdf2+0x64>
10007ba2:	1c18      	adds	r0, r3, #0
10007ba4:	bc3c      	pop	{r2, r3, r4, r5}
10007ba6:	4690      	mov	r8, r2
10007ba8:	4699      	mov	r9, r3
10007baa:	46a2      	mov	sl, r4
10007bac:	46ab      	mov	fp, r5
10007bae:	bdf0      	pop	{r4, r5, r6, r7, pc}
10007bb0:	1c31      	adds	r1, r6, #0
10007bb2:	2301      	movs	r3, #1
10007bb4:	4301      	orrs	r1, r0
10007bb6:	d1f4      	bne.n	10007ba2 <__eqdf2+0x3a>
10007bb8:	4b0c      	ldr	r3, [pc, #48]	; (10007bec <__eqdf2+0x84>)
10007bba:	429c      	cmp	r4, r3
10007bbc:	d1ee      	bne.n	10007b9c <__eqdf2+0x34>
10007bbe:	433a      	orrs	r2, r7
10007bc0:	2301      	movs	r3, #1
10007bc2:	2a00      	cmp	r2, #0
10007bc4:	d1ed      	bne.n	10007ba2 <__eqdf2+0x3a>
10007bc6:	2301      	movs	r3, #1
10007bc8:	42a5      	cmp	r5, r4
10007bca:	d1ea      	bne.n	10007ba2 <__eqdf2+0x3a>
10007bcc:	42be      	cmp	r6, r7
10007bce:	d1e8      	bne.n	10007ba2 <__eqdf2+0x3a>
10007bd0:	45c4      	cmp	ip, r8
10007bd2:	d1e6      	bne.n	10007ba2 <__eqdf2+0x3a>
10007bd4:	45cb      	cmp	fp, r9
10007bd6:	d006      	beq.n	10007be6 <__eqdf2+0x7e>
10007bd8:	2d00      	cmp	r5, #0
10007bda:	d1e2      	bne.n	10007ba2 <__eqdf2+0x3a>
10007bdc:	4330      	orrs	r0, r6
10007bde:	1c03      	adds	r3, r0, #0
10007be0:	1e58      	subs	r0, r3, #1
10007be2:	4183      	sbcs	r3, r0
10007be4:	e7dd      	b.n	10007ba2 <__eqdf2+0x3a>
10007be6:	2300      	movs	r3, #0
10007be8:	e7db      	b.n	10007ba2 <__eqdf2+0x3a>
10007bea:	46c0      	nop			; (mov r8, r8)
10007bec:	000007ff 	.word	0x000007ff

10007bf0 <__gedf2>:
10007bf0:	b5f0      	push	{r4, r5, r6, r7, lr}
10007bf2:	4657      	mov	r7, sl
10007bf4:	4645      	mov	r5, r8
10007bf6:	464e      	mov	r6, r9
10007bf8:	b4e0      	push	{r5, r6, r7}
10007bfa:	030f      	lsls	r7, r1, #12
10007bfc:	004e      	lsls	r6, r1, #1
10007bfe:	0fc9      	lsrs	r1, r1, #31
10007c00:	468a      	mov	sl, r1
10007c02:	4932      	ldr	r1, [pc, #200]	; (10007ccc <__gedf2+0xdc>)
10007c04:	031d      	lsls	r5, r3, #12
10007c06:	005c      	lsls	r4, r3, #1
10007c08:	4684      	mov	ip, r0
10007c0a:	0b3f      	lsrs	r7, r7, #12
10007c0c:	0d76      	lsrs	r6, r6, #21
10007c0e:	4690      	mov	r8, r2
10007c10:	0b2d      	lsrs	r5, r5, #12
10007c12:	0d64      	lsrs	r4, r4, #21
10007c14:	0fdb      	lsrs	r3, r3, #31
10007c16:	428e      	cmp	r6, r1
10007c18:	d00f      	beq.n	10007c3a <__gedf2+0x4a>
10007c1a:	428c      	cmp	r4, r1
10007c1c:	d039      	beq.n	10007c92 <__gedf2+0xa2>
10007c1e:	2e00      	cmp	r6, #0
10007c20:	d110      	bne.n	10007c44 <__gedf2+0x54>
10007c22:	4338      	orrs	r0, r7
10007c24:	4241      	negs	r1, r0
10007c26:	4141      	adcs	r1, r0
10007c28:	4689      	mov	r9, r1
10007c2a:	2c00      	cmp	r4, #0
10007c2c:	d127      	bne.n	10007c7e <__gedf2+0x8e>
10007c2e:	432a      	orrs	r2, r5
10007c30:	d125      	bne.n	10007c7e <__gedf2+0x8e>
10007c32:	2000      	movs	r0, #0
10007c34:	2900      	cmp	r1, #0
10007c36:	d10e      	bne.n	10007c56 <__gedf2+0x66>
10007c38:	e008      	b.n	10007c4c <__gedf2+0x5c>
10007c3a:	1c39      	adds	r1, r7, #0
10007c3c:	4301      	orrs	r1, r0
10007c3e:	d12e      	bne.n	10007c9e <__gedf2+0xae>
10007c40:	42b4      	cmp	r4, r6
10007c42:	d026      	beq.n	10007c92 <__gedf2+0xa2>
10007c44:	2c00      	cmp	r4, #0
10007c46:	d00b      	beq.n	10007c60 <__gedf2+0x70>
10007c48:	459a      	cmp	sl, r3
10007c4a:	d00d      	beq.n	10007c68 <__gedf2+0x78>
10007c4c:	4653      	mov	r3, sl
10007c4e:	4259      	negs	r1, r3
10007c50:	2301      	movs	r3, #1
10007c52:	4319      	orrs	r1, r3
10007c54:	1c08      	adds	r0, r1, #0
10007c56:	bc1c      	pop	{r2, r3, r4}
10007c58:	4690      	mov	r8, r2
10007c5a:	4699      	mov	r9, r3
10007c5c:	46a2      	mov	sl, r4
10007c5e:	bdf0      	pop	{r4, r5, r6, r7, pc}
10007c60:	432a      	orrs	r2, r5
10007c62:	d0f3      	beq.n	10007c4c <__gedf2+0x5c>
10007c64:	459a      	cmp	sl, r3
10007c66:	d1f1      	bne.n	10007c4c <__gedf2+0x5c>
10007c68:	42a6      	cmp	r6, r4
10007c6a:	dcef      	bgt.n	10007c4c <__gedf2+0x5c>
10007c6c:	da1a      	bge.n	10007ca4 <__gedf2+0xb4>
10007c6e:	4650      	mov	r0, sl
10007c70:	4241      	negs	r1, r0
10007c72:	4148      	adcs	r0, r1
10007c74:	2301      	movs	r3, #1
10007c76:	4241      	negs	r1, r0
10007c78:	4319      	orrs	r1, r3
10007c7a:	1c08      	adds	r0, r1, #0
10007c7c:	e7eb      	b.n	10007c56 <__gedf2+0x66>
10007c7e:	464a      	mov	r2, r9
10007c80:	2a00      	cmp	r2, #0
10007c82:	d0e1      	beq.n	10007c48 <__gedf2+0x58>
10007c84:	4258      	negs	r0, r3
10007c86:	4158      	adcs	r0, r3
10007c88:	2201      	movs	r2, #1
10007c8a:	4241      	negs	r1, r0
10007c8c:	4311      	orrs	r1, r2
10007c8e:	1c08      	adds	r0, r1, #0
10007c90:	e7e1      	b.n	10007c56 <__gedf2+0x66>
10007c92:	1c29      	adds	r1, r5, #0
10007c94:	4311      	orrs	r1, r2
10007c96:	d102      	bne.n	10007c9e <__gedf2+0xae>
10007c98:	2e00      	cmp	r6, #0
10007c9a:	d0c2      	beq.n	10007c22 <__gedf2+0x32>
10007c9c:	e7d4      	b.n	10007c48 <__gedf2+0x58>
10007c9e:	2002      	movs	r0, #2
10007ca0:	4240      	negs	r0, r0
10007ca2:	e7d8      	b.n	10007c56 <__gedf2+0x66>
10007ca4:	42af      	cmp	r7, r5
10007ca6:	d8d1      	bhi.n	10007c4c <__gedf2+0x5c>
10007ca8:	d009      	beq.n	10007cbe <__gedf2+0xce>
10007caa:	2000      	movs	r0, #0
10007cac:	42af      	cmp	r7, r5
10007cae:	d2d2      	bcs.n	10007c56 <__gedf2+0x66>
10007cb0:	4650      	mov	r0, sl
10007cb2:	4241      	negs	r1, r0
10007cb4:	4148      	adcs	r0, r1
10007cb6:	2301      	movs	r3, #1
10007cb8:	4240      	negs	r0, r0
10007cba:	4318      	orrs	r0, r3
10007cbc:	e7cb      	b.n	10007c56 <__gedf2+0x66>
10007cbe:	45c4      	cmp	ip, r8
10007cc0:	d8c4      	bhi.n	10007c4c <__gedf2+0x5c>
10007cc2:	2000      	movs	r0, #0
10007cc4:	45c4      	cmp	ip, r8
10007cc6:	d3f3      	bcc.n	10007cb0 <__gedf2+0xc0>
10007cc8:	e7c5      	b.n	10007c56 <__gedf2+0x66>
10007cca:	46c0      	nop			; (mov r8, r8)
10007ccc:	000007ff 	.word	0x000007ff

10007cd0 <__ledf2>:
10007cd0:	b5f0      	push	{r4, r5, r6, r7, lr}
10007cd2:	465f      	mov	r7, fp
10007cd4:	464d      	mov	r5, r9
10007cd6:	4644      	mov	r4, r8
10007cd8:	4656      	mov	r6, sl
10007cda:	4680      	mov	r8, r0
10007cdc:	b4f0      	push	{r4, r5, r6, r7}
10007cde:	1c06      	adds	r6, r0, #0
10007ce0:	0308      	lsls	r0, r1, #12
10007ce2:	0b00      	lsrs	r0, r0, #12
10007ce4:	4684      	mov	ip, r0
10007ce6:	482c      	ldr	r0, [pc, #176]	; (10007d98 <__ledf2+0xc8>)
10007ce8:	004c      	lsls	r4, r1, #1
10007cea:	031f      	lsls	r7, r3, #12
10007cec:	005d      	lsls	r5, r3, #1
10007cee:	0fc9      	lsrs	r1, r1, #31
10007cf0:	0d64      	lsrs	r4, r4, #21
10007cf2:	468b      	mov	fp, r1
10007cf4:	4691      	mov	r9, r2
10007cf6:	0b3f      	lsrs	r7, r7, #12
10007cf8:	0d6d      	lsrs	r5, r5, #21
10007cfa:	0fdb      	lsrs	r3, r3, #31
10007cfc:	4284      	cmp	r4, r0
10007cfe:	d012      	beq.n	10007d26 <__ledf2+0x56>
10007d00:	4285      	cmp	r5, r0
10007d02:	d025      	beq.n	10007d50 <__ledf2+0x80>
10007d04:	2c00      	cmp	r4, #0
10007d06:	d114      	bne.n	10007d32 <__ledf2+0x62>
10007d08:	4661      	mov	r1, ip
10007d0a:	430e      	orrs	r6, r1
10007d0c:	4270      	negs	r0, r6
10007d0e:	4146      	adcs	r6, r0
10007d10:	2d00      	cmp	r5, #0
10007d12:	d035      	beq.n	10007d80 <__ledf2+0xb0>
10007d14:	2e00      	cmp	r6, #0
10007d16:	d021      	beq.n	10007d5c <__ledf2+0x8c>
10007d18:	4258      	negs	r0, r3
10007d1a:	4158      	adcs	r0, r3
10007d1c:	2101      	movs	r1, #1
10007d1e:	4243      	negs	r3, r0
10007d20:	430b      	orrs	r3, r1
10007d22:	1c18      	adds	r0, r3, #0
10007d24:	e00e      	b.n	10007d44 <__ledf2+0x74>
10007d26:	4661      	mov	r1, ip
10007d28:	2002      	movs	r0, #2
10007d2a:	4331      	orrs	r1, r6
10007d2c:	d10a      	bne.n	10007d44 <__ledf2+0x74>
10007d2e:	42a5      	cmp	r5, r4
10007d30:	d00e      	beq.n	10007d50 <__ledf2+0x80>
10007d32:	2d00      	cmp	r5, #0
10007d34:	d112      	bne.n	10007d5c <__ledf2+0x8c>
10007d36:	433a      	orrs	r2, r7
10007d38:	d110      	bne.n	10007d5c <__ledf2+0x8c>
10007d3a:	465b      	mov	r3, fp
10007d3c:	4259      	negs	r1, r3
10007d3e:	2301      	movs	r3, #1
10007d40:	4319      	orrs	r1, r3
10007d42:	1c08      	adds	r0, r1, #0
10007d44:	bc3c      	pop	{r2, r3, r4, r5}
10007d46:	4690      	mov	r8, r2
10007d48:	4699      	mov	r9, r3
10007d4a:	46a2      	mov	sl, r4
10007d4c:	46ab      	mov	fp, r5
10007d4e:	bdf0      	pop	{r4, r5, r6, r7, pc}
10007d50:	1c39      	adds	r1, r7, #0
10007d52:	2002      	movs	r0, #2
10007d54:	4311      	orrs	r1, r2
10007d56:	d1f5      	bne.n	10007d44 <__ledf2+0x74>
10007d58:	2c00      	cmp	r4, #0
10007d5a:	d0d5      	beq.n	10007d08 <__ledf2+0x38>
10007d5c:	459b      	cmp	fp, r3
10007d5e:	d1ec      	bne.n	10007d3a <__ledf2+0x6a>
10007d60:	42ac      	cmp	r4, r5
10007d62:	dcea      	bgt.n	10007d3a <__ledf2+0x6a>
10007d64:	db05      	blt.n	10007d72 <__ledf2+0xa2>
10007d66:	45bc      	cmp	ip, r7
10007d68:	d8e7      	bhi.n	10007d3a <__ledf2+0x6a>
10007d6a:	d00f      	beq.n	10007d8c <__ledf2+0xbc>
10007d6c:	2000      	movs	r0, #0
10007d6e:	45bc      	cmp	ip, r7
10007d70:	d2e8      	bcs.n	10007d44 <__ledf2+0x74>
10007d72:	4658      	mov	r0, fp
10007d74:	4241      	negs	r1, r0
10007d76:	4148      	adcs	r0, r1
10007d78:	4241      	negs	r1, r0
10007d7a:	2001      	movs	r0, #1
10007d7c:	4308      	orrs	r0, r1
10007d7e:	e7e1      	b.n	10007d44 <__ledf2+0x74>
10007d80:	433a      	orrs	r2, r7
10007d82:	d1c7      	bne.n	10007d14 <__ledf2+0x44>
10007d84:	2000      	movs	r0, #0
10007d86:	2e00      	cmp	r6, #0
10007d88:	d1dc      	bne.n	10007d44 <__ledf2+0x74>
10007d8a:	e7d6      	b.n	10007d3a <__ledf2+0x6a>
10007d8c:	45c8      	cmp	r8, r9
10007d8e:	d8d4      	bhi.n	10007d3a <__ledf2+0x6a>
10007d90:	2000      	movs	r0, #0
10007d92:	45c8      	cmp	r8, r9
10007d94:	d3ed      	bcc.n	10007d72 <__ledf2+0xa2>
10007d96:	e7d5      	b.n	10007d44 <__ledf2+0x74>
10007d98:	000007ff 	.word	0x000007ff

10007d9c <__aeabi_dmul>:
10007d9c:	b5f0      	push	{r4, r5, r6, r7, lr}
10007d9e:	465f      	mov	r7, fp
10007da0:	4656      	mov	r6, sl
10007da2:	464d      	mov	r5, r9
10007da4:	4644      	mov	r4, r8
10007da6:	b4f0      	push	{r4, r5, r6, r7}
10007da8:	1c05      	adds	r5, r0, #0
10007daa:	1c06      	adds	r6, r0, #0
10007dac:	0308      	lsls	r0, r1, #12
10007dae:	b087      	sub	sp, #28
10007db0:	4699      	mov	r9, r3
10007db2:	004f      	lsls	r7, r1, #1
10007db4:	0b03      	lsrs	r3, r0, #12
10007db6:	0fcc      	lsrs	r4, r1, #31
10007db8:	4692      	mov	sl, r2
10007dba:	469b      	mov	fp, r3
10007dbc:	0d7f      	lsrs	r7, r7, #21
10007dbe:	9401      	str	r4, [sp, #4]
10007dc0:	d067      	beq.n	10007e92 <__aeabi_dmul+0xf6>
10007dc2:	4b6c      	ldr	r3, [pc, #432]	; (10007f74 <__aeabi_dmul+0x1d8>)
10007dc4:	429f      	cmp	r7, r3
10007dc6:	d036      	beq.n	10007e36 <__aeabi_dmul+0x9a>
10007dc8:	2080      	movs	r0, #128	; 0x80
10007dca:	465b      	mov	r3, fp
10007dcc:	0340      	lsls	r0, r0, #13
10007dce:	4318      	orrs	r0, r3
10007dd0:	00c0      	lsls	r0, r0, #3
10007dd2:	0f6b      	lsrs	r3, r5, #29
10007dd4:	4318      	orrs	r0, r3
10007dd6:	4b68      	ldr	r3, [pc, #416]	; (10007f78 <__aeabi_dmul+0x1dc>)
10007dd8:	4683      	mov	fp, r0
10007dda:	469c      	mov	ip, r3
10007ddc:	2300      	movs	r3, #0
10007dde:	4698      	mov	r8, r3
10007de0:	00ee      	lsls	r6, r5, #3
10007de2:	4467      	add	r7, ip
10007de4:	9300      	str	r3, [sp, #0]
10007de6:	464b      	mov	r3, r9
10007de8:	4649      	mov	r1, r9
10007dea:	031d      	lsls	r5, r3, #12
10007dec:	0fc9      	lsrs	r1, r1, #31
10007dee:	005b      	lsls	r3, r3, #1
10007df0:	4652      	mov	r2, sl
10007df2:	0b2d      	lsrs	r5, r5, #12
10007df4:	0d5b      	lsrs	r3, r3, #21
10007df6:	4689      	mov	r9, r1
10007df8:	d100      	bne.n	10007dfc <__aeabi_dmul+0x60>
10007dfa:	e06e      	b.n	10007eda <__aeabi_dmul+0x13e>
10007dfc:	495d      	ldr	r1, [pc, #372]	; (10007f74 <__aeabi_dmul+0x1d8>)
10007dfe:	428b      	cmp	r3, r1
10007e00:	d064      	beq.n	10007ecc <__aeabi_dmul+0x130>
10007e02:	2080      	movs	r0, #128	; 0x80
10007e04:	495c      	ldr	r1, [pc, #368]	; (10007f78 <__aeabi_dmul+0x1dc>)
10007e06:	0340      	lsls	r0, r0, #13
10007e08:	468c      	mov	ip, r1
10007e0a:	2100      	movs	r1, #0
10007e0c:	4305      	orrs	r5, r0
10007e0e:	00ed      	lsls	r5, r5, #3
10007e10:	0f50      	lsrs	r0, r2, #29
10007e12:	4305      	orrs	r5, r0
10007e14:	00d2      	lsls	r2, r2, #3
10007e16:	4463      	add	r3, ip
10007e18:	4648      	mov	r0, r9
10007e1a:	18ff      	adds	r7, r7, r3
10007e1c:	1c7b      	adds	r3, r7, #1
10007e1e:	469a      	mov	sl, r3
10007e20:	9b00      	ldr	r3, [sp, #0]
10007e22:	4060      	eors	r0, r4
10007e24:	9002      	str	r0, [sp, #8]
10007e26:	430b      	orrs	r3, r1
10007e28:	2b0f      	cmp	r3, #15
10007e2a:	d900      	bls.n	10007e2e <__aeabi_dmul+0x92>
10007e2c:	e0ac      	b.n	10007f88 <__aeabi_dmul+0x1ec>
10007e2e:	4853      	ldr	r0, [pc, #332]	; (10007f7c <__aeabi_dmul+0x1e0>)
10007e30:	009b      	lsls	r3, r3, #2
10007e32:	58c3      	ldr	r3, [r0, r3]
10007e34:	469f      	mov	pc, r3
10007e36:	465b      	mov	r3, fp
10007e38:	431d      	orrs	r5, r3
10007e3a:	d000      	beq.n	10007e3e <__aeabi_dmul+0xa2>
10007e3c:	e082      	b.n	10007f44 <__aeabi_dmul+0x1a8>
10007e3e:	2308      	movs	r3, #8
10007e40:	9300      	str	r3, [sp, #0]
10007e42:	2300      	movs	r3, #0
10007e44:	469b      	mov	fp, r3
10007e46:	3302      	adds	r3, #2
10007e48:	2600      	movs	r6, #0
10007e4a:	4698      	mov	r8, r3
10007e4c:	e7cb      	b.n	10007de6 <__aeabi_dmul+0x4a>
10007e4e:	9b02      	ldr	r3, [sp, #8]
10007e50:	9301      	str	r3, [sp, #4]
10007e52:	4643      	mov	r3, r8
10007e54:	2b02      	cmp	r3, #2
10007e56:	d159      	bne.n	10007f0c <__aeabi_dmul+0x170>
10007e58:	2401      	movs	r4, #1
10007e5a:	2500      	movs	r5, #0
10007e5c:	2600      	movs	r6, #0
10007e5e:	9b01      	ldr	r3, [sp, #4]
10007e60:	401c      	ands	r4, r3
10007e62:	4b44      	ldr	r3, [pc, #272]	; (10007f74 <__aeabi_dmul+0x1d8>)
10007e64:	2100      	movs	r1, #0
10007e66:	032d      	lsls	r5, r5, #12
10007e68:	0d0a      	lsrs	r2, r1, #20
10007e6a:	0512      	lsls	r2, r2, #20
10007e6c:	0b2d      	lsrs	r5, r5, #12
10007e6e:	4315      	orrs	r5, r2
10007e70:	4a43      	ldr	r2, [pc, #268]	; (10007f80 <__aeabi_dmul+0x1e4>)
10007e72:	051b      	lsls	r3, r3, #20
10007e74:	4015      	ands	r5, r2
10007e76:	431d      	orrs	r5, r3
10007e78:	006d      	lsls	r5, r5, #1
10007e7a:	07e4      	lsls	r4, r4, #31
10007e7c:	086d      	lsrs	r5, r5, #1
10007e7e:	4325      	orrs	r5, r4
10007e80:	1c30      	adds	r0, r6, #0
10007e82:	1c29      	adds	r1, r5, #0
10007e84:	b007      	add	sp, #28
10007e86:	bc3c      	pop	{r2, r3, r4, r5}
10007e88:	4690      	mov	r8, r2
10007e8a:	4699      	mov	r9, r3
10007e8c:	46a2      	mov	sl, r4
10007e8e:	46ab      	mov	fp, r5
10007e90:	bdf0      	pop	{r4, r5, r6, r7, pc}
10007e92:	432b      	orrs	r3, r5
10007e94:	d04e      	beq.n	10007f34 <__aeabi_dmul+0x198>
10007e96:	465b      	mov	r3, fp
10007e98:	2b00      	cmp	r3, #0
10007e9a:	d100      	bne.n	10007e9e <__aeabi_dmul+0x102>
10007e9c:	e185      	b.n	100081aa <__aeabi_dmul+0x40e>
10007e9e:	4658      	mov	r0, fp
10007ea0:	f7fb f9ce 	bl	10003240 <__clzsi2>
10007ea4:	1c02      	adds	r2, r0, #0
10007ea6:	2328      	movs	r3, #40	; 0x28
10007ea8:	1c29      	adds	r1, r5, #0
10007eaa:	1a9b      	subs	r3, r3, r2
10007eac:	1c16      	adds	r6, r2, #0
10007eae:	4658      	mov	r0, fp
10007eb0:	40d9      	lsrs	r1, r3
10007eb2:	3e08      	subs	r6, #8
10007eb4:	40b0      	lsls	r0, r6
10007eb6:	1c0b      	adds	r3, r1, #0
10007eb8:	40b5      	lsls	r5, r6
10007eba:	4303      	orrs	r3, r0
10007ebc:	469b      	mov	fp, r3
10007ebe:	1c2e      	adds	r6, r5, #0
10007ec0:	2300      	movs	r3, #0
10007ec2:	4f30      	ldr	r7, [pc, #192]	; (10007f84 <__aeabi_dmul+0x1e8>)
10007ec4:	9300      	str	r3, [sp, #0]
10007ec6:	1abf      	subs	r7, r7, r2
10007ec8:	4698      	mov	r8, r3
10007eca:	e78c      	b.n	10007de6 <__aeabi_dmul+0x4a>
10007ecc:	4651      	mov	r1, sl
10007ece:	4329      	orrs	r1, r5
10007ed0:	d12e      	bne.n	10007f30 <__aeabi_dmul+0x194>
10007ed2:	2500      	movs	r5, #0
10007ed4:	2200      	movs	r2, #0
10007ed6:	2102      	movs	r1, #2
10007ed8:	e79e      	b.n	10007e18 <__aeabi_dmul+0x7c>
10007eda:	4651      	mov	r1, sl
10007edc:	4329      	orrs	r1, r5
10007ede:	d023      	beq.n	10007f28 <__aeabi_dmul+0x18c>
10007ee0:	2d00      	cmp	r5, #0
10007ee2:	d100      	bne.n	10007ee6 <__aeabi_dmul+0x14a>
10007ee4:	e154      	b.n	10008190 <__aeabi_dmul+0x3f4>
10007ee6:	1c28      	adds	r0, r5, #0
10007ee8:	f7fb f9aa 	bl	10003240 <__clzsi2>
10007eec:	1c03      	adds	r3, r0, #0
10007eee:	2128      	movs	r1, #40	; 0x28
10007ef0:	4650      	mov	r0, sl
10007ef2:	1ac9      	subs	r1, r1, r3
10007ef4:	1c1a      	adds	r2, r3, #0
10007ef6:	40c8      	lsrs	r0, r1
10007ef8:	4651      	mov	r1, sl
10007efa:	3a08      	subs	r2, #8
10007efc:	4091      	lsls	r1, r2
10007efe:	4095      	lsls	r5, r2
10007f00:	1c0a      	adds	r2, r1, #0
10007f02:	4305      	orrs	r5, r0
10007f04:	481f      	ldr	r0, [pc, #124]	; (10007f84 <__aeabi_dmul+0x1e8>)
10007f06:	2100      	movs	r1, #0
10007f08:	1ac3      	subs	r3, r0, r3
10007f0a:	e785      	b.n	10007e18 <__aeabi_dmul+0x7c>
10007f0c:	2b03      	cmp	r3, #3
10007f0e:	d100      	bne.n	10007f12 <__aeabi_dmul+0x176>
10007f10:	e1c2      	b.n	10008298 <__aeabi_dmul+0x4fc>
10007f12:	2b01      	cmp	r3, #1
10007f14:	d000      	beq.n	10007f18 <__aeabi_dmul+0x17c>
10007f16:	e16d      	b.n	100081f4 <__aeabi_dmul+0x458>
10007f18:	4644      	mov	r4, r8
10007f1a:	9b01      	ldr	r3, [sp, #4]
10007f1c:	2500      	movs	r5, #0
10007f1e:	401c      	ands	r4, r3
10007f20:	b2e4      	uxtb	r4, r4
10007f22:	2300      	movs	r3, #0
10007f24:	2600      	movs	r6, #0
10007f26:	e79d      	b.n	10007e64 <__aeabi_dmul+0xc8>
10007f28:	2500      	movs	r5, #0
10007f2a:	2200      	movs	r2, #0
10007f2c:	2101      	movs	r1, #1
10007f2e:	e773      	b.n	10007e18 <__aeabi_dmul+0x7c>
10007f30:	2103      	movs	r1, #3
10007f32:	e771      	b.n	10007e18 <__aeabi_dmul+0x7c>
10007f34:	2304      	movs	r3, #4
10007f36:	9300      	str	r3, [sp, #0]
10007f38:	2300      	movs	r3, #0
10007f3a:	469b      	mov	fp, r3
10007f3c:	3301      	adds	r3, #1
10007f3e:	2600      	movs	r6, #0
10007f40:	4698      	mov	r8, r3
10007f42:	e750      	b.n	10007de6 <__aeabi_dmul+0x4a>
10007f44:	230c      	movs	r3, #12
10007f46:	9300      	str	r3, [sp, #0]
10007f48:	3b09      	subs	r3, #9
10007f4a:	4698      	mov	r8, r3
10007f4c:	e74b      	b.n	10007de6 <__aeabi_dmul+0x4a>
10007f4e:	2580      	movs	r5, #128	; 0x80
10007f50:	2400      	movs	r4, #0
10007f52:	032d      	lsls	r5, r5, #12
10007f54:	2600      	movs	r6, #0
10007f56:	4b07      	ldr	r3, [pc, #28]	; (10007f74 <__aeabi_dmul+0x1d8>)
10007f58:	e784      	b.n	10007e64 <__aeabi_dmul+0xc8>
10007f5a:	464b      	mov	r3, r9
10007f5c:	46ab      	mov	fp, r5
10007f5e:	1c16      	adds	r6, r2, #0
10007f60:	9301      	str	r3, [sp, #4]
10007f62:	4688      	mov	r8, r1
10007f64:	e775      	b.n	10007e52 <__aeabi_dmul+0xb6>
10007f66:	9b02      	ldr	r3, [sp, #8]
10007f68:	46ab      	mov	fp, r5
10007f6a:	1c16      	adds	r6, r2, #0
10007f6c:	9301      	str	r3, [sp, #4]
10007f6e:	4688      	mov	r8, r1
10007f70:	e76f      	b.n	10007e52 <__aeabi_dmul+0xb6>
10007f72:	46c0      	nop			; (mov r8, r8)
10007f74:	000007ff 	.word	0x000007ff
10007f78:	fffffc01 	.word	0xfffffc01
10007f7c:	10009998 	.word	0x10009998
10007f80:	800fffff 	.word	0x800fffff
10007f84:	fffffc0d 	.word	0xfffffc0d
10007f88:	0c33      	lsrs	r3, r6, #16
10007f8a:	0436      	lsls	r6, r6, #16
10007f8c:	0c36      	lsrs	r6, r6, #16
10007f8e:	469c      	mov	ip, r3
10007f90:	1c33      	adds	r3, r6, #0
10007f92:	0c14      	lsrs	r4, r2, #16
10007f94:	0412      	lsls	r2, r2, #16
10007f96:	0c12      	lsrs	r2, r2, #16
10007f98:	4353      	muls	r3, r2
10007f9a:	4698      	mov	r8, r3
10007f9c:	4663      	mov	r3, ip
10007f9e:	4353      	muls	r3, r2
10007fa0:	4699      	mov	r9, r3
10007fa2:	4663      	mov	r3, ip
10007fa4:	4363      	muls	r3, r4
10007fa6:	9301      	str	r3, [sp, #4]
10007fa8:	1c33      	adds	r3, r6, #0
10007faa:	4641      	mov	r1, r8
10007fac:	4363      	muls	r3, r4
10007fae:	0c09      	lsrs	r1, r1, #16
10007fb0:	444b      	add	r3, r9
10007fb2:	185b      	adds	r3, r3, r1
10007fb4:	4599      	cmp	r9, r3
10007fb6:	d905      	bls.n	10007fc4 <__aeabi_dmul+0x228>
10007fb8:	2080      	movs	r0, #128	; 0x80
10007fba:	0240      	lsls	r0, r0, #9
10007fbc:	4681      	mov	r9, r0
10007fbe:	9901      	ldr	r1, [sp, #4]
10007fc0:	4449      	add	r1, r9
10007fc2:	9101      	str	r1, [sp, #4]
10007fc4:	0c19      	lsrs	r1, r3, #16
10007fc6:	9103      	str	r1, [sp, #12]
10007fc8:	4641      	mov	r1, r8
10007fca:	0409      	lsls	r1, r1, #16
10007fcc:	0c09      	lsrs	r1, r1, #16
10007fce:	041b      	lsls	r3, r3, #16
10007fd0:	185b      	adds	r3, r3, r1
10007fd2:	9304      	str	r3, [sp, #16]
10007fd4:	0c2b      	lsrs	r3, r5, #16
10007fd6:	4698      	mov	r8, r3
10007fd8:	1c33      	adds	r3, r6, #0
10007fda:	042d      	lsls	r5, r5, #16
10007fdc:	0c29      	lsrs	r1, r5, #16
10007fde:	434b      	muls	r3, r1
10007fe0:	4660      	mov	r0, ip
10007fe2:	9300      	str	r3, [sp, #0]
10007fe4:	4643      	mov	r3, r8
10007fe6:	4665      	mov	r5, ip
10007fe8:	4358      	muls	r0, r3
10007fea:	435e      	muls	r6, r3
10007fec:	9b00      	ldr	r3, [sp, #0]
10007fee:	434d      	muls	r5, r1
10007ff0:	0c1b      	lsrs	r3, r3, #16
10007ff2:	4699      	mov	r9, r3
10007ff4:	19ae      	adds	r6, r5, r6
10007ff6:	444e      	add	r6, r9
10007ff8:	4684      	mov	ip, r0
10007ffa:	42b5      	cmp	r5, r6
10007ffc:	d903      	bls.n	10008006 <__aeabi_dmul+0x26a>
10007ffe:	2380      	movs	r3, #128	; 0x80
10008000:	025b      	lsls	r3, r3, #9
10008002:	4699      	mov	r9, r3
10008004:	44cc      	add	ip, r9
10008006:	0c35      	lsrs	r5, r6, #16
10008008:	1c2b      	adds	r3, r5, #0
1000800a:	9803      	ldr	r0, [sp, #12]
1000800c:	4463      	add	r3, ip
1000800e:	4684      	mov	ip, r0
10008010:	9305      	str	r3, [sp, #20]
10008012:	9b00      	ldr	r3, [sp, #0]
10008014:	0436      	lsls	r6, r6, #16
10008016:	041b      	lsls	r3, r3, #16
10008018:	0c1b      	lsrs	r3, r3, #16
1000801a:	18f3      	adds	r3, r6, r3
1000801c:	449c      	add	ip, r3
1000801e:	4660      	mov	r0, ip
10008020:	9003      	str	r0, [sp, #12]
10008022:	4658      	mov	r0, fp
10008024:	0405      	lsls	r5, r0, #16
10008026:	0c06      	lsrs	r6, r0, #16
10008028:	0c28      	lsrs	r0, r5, #16
1000802a:	4684      	mov	ip, r0
1000802c:	4350      	muls	r0, r2
1000802e:	1c35      	adds	r5, r6, #0
10008030:	4681      	mov	r9, r0
10008032:	4660      	mov	r0, ip
10008034:	4365      	muls	r5, r4
10008036:	4344      	muls	r4, r0
10008038:	4648      	mov	r0, r9
1000803a:	0c00      	lsrs	r0, r0, #16
1000803c:	4683      	mov	fp, r0
1000803e:	4372      	muls	r2, r6
10008040:	1914      	adds	r4, r2, r4
10008042:	445c      	add	r4, fp
10008044:	42a2      	cmp	r2, r4
10008046:	d903      	bls.n	10008050 <__aeabi_dmul+0x2b4>
10008048:	2280      	movs	r2, #128	; 0x80
1000804a:	0252      	lsls	r2, r2, #9
1000804c:	4693      	mov	fp, r2
1000804e:	445d      	add	r5, fp
10008050:	0c22      	lsrs	r2, r4, #16
10008052:	18ad      	adds	r5, r5, r2
10008054:	464a      	mov	r2, r9
10008056:	0412      	lsls	r2, r2, #16
10008058:	0c12      	lsrs	r2, r2, #16
1000805a:	0424      	lsls	r4, r4, #16
1000805c:	4640      	mov	r0, r8
1000805e:	18a4      	adds	r4, r4, r2
10008060:	4662      	mov	r2, ip
10008062:	434a      	muls	r2, r1
10008064:	4371      	muls	r1, r6
10008066:	4346      	muls	r6, r0
10008068:	4660      	mov	r0, ip
1000806a:	9600      	str	r6, [sp, #0]
1000806c:	4646      	mov	r6, r8
1000806e:	4370      	muls	r0, r6
10008070:	4680      	mov	r8, r0
10008072:	0c10      	lsrs	r0, r2, #16
10008074:	4684      	mov	ip, r0
10008076:	4488      	add	r8, r1
10008078:	44e0      	add	r8, ip
1000807a:	4541      	cmp	r1, r8
1000807c:	d905      	bls.n	1000808a <__aeabi_dmul+0x2ee>
1000807e:	2180      	movs	r1, #128	; 0x80
10008080:	0249      	lsls	r1, r1, #9
10008082:	468c      	mov	ip, r1
10008084:	9900      	ldr	r1, [sp, #0]
10008086:	4461      	add	r1, ip
10008088:	9100      	str	r1, [sp, #0]
1000808a:	9801      	ldr	r0, [sp, #4]
1000808c:	9903      	ldr	r1, [sp, #12]
1000808e:	4684      	mov	ip, r0
10008090:	4461      	add	r1, ip
10008092:	4299      	cmp	r1, r3
10008094:	419b      	sbcs	r3, r3
10008096:	425b      	negs	r3, r3
10008098:	4699      	mov	r9, r3
1000809a:	9805      	ldr	r0, [sp, #20]
1000809c:	4643      	mov	r3, r8
1000809e:	4684      	mov	ip, r0
100080a0:	0412      	lsls	r2, r2, #16
100080a2:	0c12      	lsrs	r2, r2, #16
100080a4:	041b      	lsls	r3, r3, #16
100080a6:	189b      	adds	r3, r3, r2
100080a8:	4463      	add	r3, ip
100080aa:	469c      	mov	ip, r3
100080ac:	46ab      	mov	fp, r5
100080ae:	4283      	cmp	r3, r0
100080b0:	419b      	sbcs	r3, r3
100080b2:	4640      	mov	r0, r8
100080b4:	190a      	adds	r2, r1, r4
100080b6:	44cc      	add	ip, r9
100080b8:	42a2      	cmp	r2, r4
100080ba:	4189      	sbcs	r1, r1
100080bc:	44e3      	add	fp, ip
100080be:	45cc      	cmp	ip, r9
100080c0:	41b6      	sbcs	r6, r6
100080c2:	465c      	mov	r4, fp
100080c4:	0c00      	lsrs	r0, r0, #16
100080c6:	4680      	mov	r8, r0
100080c8:	4249      	negs	r1, r1
100080ca:	4276      	negs	r6, r6
100080cc:	425b      	negs	r3, r3
100080ce:	1864      	adds	r4, r4, r1
100080d0:	4333      	orrs	r3, r6
100080d2:	4498      	add	r8, r3
100080d4:	428c      	cmp	r4, r1
100080d6:	4189      	sbcs	r1, r1
100080d8:	45ab      	cmp	fp, r5
100080da:	419b      	sbcs	r3, r3
100080dc:	4249      	negs	r1, r1
100080de:	425b      	negs	r3, r3
100080e0:	4319      	orrs	r1, r3
100080e2:	1c0d      	adds	r5, r1, #0
100080e4:	9b00      	ldr	r3, [sp, #0]
100080e6:	4445      	add	r5, r8
100080e8:	18ee      	adds	r6, r5, r3
100080ea:	0276      	lsls	r6, r6, #9
100080ec:	0de5      	lsrs	r5, r4, #23
100080ee:	432e      	orrs	r6, r5
100080f0:	46b3      	mov	fp, r6
100080f2:	9b04      	ldr	r3, [sp, #16]
100080f4:	0256      	lsls	r6, r2, #9
100080f6:	431e      	orrs	r6, r3
100080f8:	1e73      	subs	r3, r6, #1
100080fa:	419e      	sbcs	r6, r3
100080fc:	465b      	mov	r3, fp
100080fe:	0dd2      	lsrs	r2, r2, #23
10008100:	4332      	orrs	r2, r6
10008102:	0266      	lsls	r6, r4, #9
10008104:	4316      	orrs	r6, r2
10008106:	01db      	lsls	r3, r3, #7
10008108:	d50a      	bpl.n	10008120 <__aeabi_dmul+0x384>
1000810a:	2301      	movs	r3, #1
1000810c:	4033      	ands	r3, r6
1000810e:	0876      	lsrs	r6, r6, #1
10008110:	431e      	orrs	r6, r3
10008112:	465b      	mov	r3, fp
10008114:	07db      	lsls	r3, r3, #31
10008116:	431e      	orrs	r6, r3
10008118:	465b      	mov	r3, fp
1000811a:	085b      	lsrs	r3, r3, #1
1000811c:	469b      	mov	fp, r3
1000811e:	4657      	mov	r7, sl
10008120:	4b63      	ldr	r3, [pc, #396]	; (100082b0 <__aeabi_dmul+0x514>)
10008122:	18fb      	adds	r3, r7, r3
10008124:	2b00      	cmp	r3, #0
10008126:	dd5a      	ble.n	100081de <__aeabi_dmul+0x442>
10008128:	0772      	lsls	r2, r6, #29
1000812a:	d009      	beq.n	10008140 <__aeabi_dmul+0x3a4>
1000812c:	220f      	movs	r2, #15
1000812e:	4032      	ands	r2, r6
10008130:	2a04      	cmp	r2, #4
10008132:	d005      	beq.n	10008140 <__aeabi_dmul+0x3a4>
10008134:	1d32      	adds	r2, r6, #4
10008136:	42b2      	cmp	r2, r6
10008138:	41b6      	sbcs	r6, r6
1000813a:	4276      	negs	r6, r6
1000813c:	44b3      	add	fp, r6
1000813e:	1c16      	adds	r6, r2, #0
10008140:	465a      	mov	r2, fp
10008142:	01d2      	lsls	r2, r2, #7
10008144:	d506      	bpl.n	10008154 <__aeabi_dmul+0x3b8>
10008146:	465a      	mov	r2, fp
10008148:	4b5a      	ldr	r3, [pc, #360]	; (100082b4 <__aeabi_dmul+0x518>)
1000814a:	401a      	ands	r2, r3
1000814c:	2380      	movs	r3, #128	; 0x80
1000814e:	4693      	mov	fp, r2
10008150:	00db      	lsls	r3, r3, #3
10008152:	18fb      	adds	r3, r7, r3
10008154:	4a58      	ldr	r2, [pc, #352]	; (100082b8 <__aeabi_dmul+0x51c>)
10008156:	4293      	cmp	r3, r2
10008158:	dd34      	ble.n	100081c4 <__aeabi_dmul+0x428>
1000815a:	2401      	movs	r4, #1
1000815c:	9b02      	ldr	r3, [sp, #8]
1000815e:	2500      	movs	r5, #0
10008160:	401c      	ands	r4, r3
10008162:	2600      	movs	r6, #0
10008164:	4b55      	ldr	r3, [pc, #340]	; (100082bc <__aeabi_dmul+0x520>)
10008166:	e67d      	b.n	10007e64 <__aeabi_dmul+0xc8>
10008168:	2080      	movs	r0, #128	; 0x80
1000816a:	465b      	mov	r3, fp
1000816c:	0300      	lsls	r0, r0, #12
1000816e:	4203      	tst	r3, r0
10008170:	d008      	beq.n	10008184 <__aeabi_dmul+0x3e8>
10008172:	4205      	tst	r5, r0
10008174:	d106      	bne.n	10008184 <__aeabi_dmul+0x3e8>
10008176:	4305      	orrs	r5, r0
10008178:	032d      	lsls	r5, r5, #12
1000817a:	0b2d      	lsrs	r5, r5, #12
1000817c:	464c      	mov	r4, r9
1000817e:	1c16      	adds	r6, r2, #0
10008180:	4b4e      	ldr	r3, [pc, #312]	; (100082bc <__aeabi_dmul+0x520>)
10008182:	e66f      	b.n	10007e64 <__aeabi_dmul+0xc8>
10008184:	465d      	mov	r5, fp
10008186:	4305      	orrs	r5, r0
10008188:	032d      	lsls	r5, r5, #12
1000818a:	0b2d      	lsrs	r5, r5, #12
1000818c:	4b4b      	ldr	r3, [pc, #300]	; (100082bc <__aeabi_dmul+0x520>)
1000818e:	e669      	b.n	10007e64 <__aeabi_dmul+0xc8>
10008190:	4650      	mov	r0, sl
10008192:	f7fb f855 	bl	10003240 <__clzsi2>
10008196:	1c03      	adds	r3, r0, #0
10008198:	3320      	adds	r3, #32
1000819a:	2b27      	cmp	r3, #39	; 0x27
1000819c:	dc00      	bgt.n	100081a0 <__aeabi_dmul+0x404>
1000819e:	e6a6      	b.n	10007eee <__aeabi_dmul+0x152>
100081a0:	4655      	mov	r5, sl
100081a2:	3808      	subs	r0, #8
100081a4:	4085      	lsls	r5, r0
100081a6:	2200      	movs	r2, #0
100081a8:	e6ac      	b.n	10007f04 <__aeabi_dmul+0x168>
100081aa:	1c28      	adds	r0, r5, #0
100081ac:	f7fb f848 	bl	10003240 <__clzsi2>
100081b0:	1c02      	adds	r2, r0, #0
100081b2:	3220      	adds	r2, #32
100081b4:	2a27      	cmp	r2, #39	; 0x27
100081b6:	dc00      	bgt.n	100081ba <__aeabi_dmul+0x41e>
100081b8:	e675      	b.n	10007ea6 <__aeabi_dmul+0x10a>
100081ba:	3808      	subs	r0, #8
100081bc:	4085      	lsls	r5, r0
100081be:	2600      	movs	r6, #0
100081c0:	46ab      	mov	fp, r5
100081c2:	e67d      	b.n	10007ec0 <__aeabi_dmul+0x124>
100081c4:	465a      	mov	r2, fp
100081c6:	08f6      	lsrs	r6, r6, #3
100081c8:	0752      	lsls	r2, r2, #29
100081ca:	4316      	orrs	r6, r2
100081cc:	465a      	mov	r2, fp
100081ce:	2401      	movs	r4, #1
100081d0:	0255      	lsls	r5, r2, #9
100081d2:	9a02      	ldr	r2, [sp, #8]
100081d4:	055b      	lsls	r3, r3, #21
100081d6:	0b2d      	lsrs	r5, r5, #12
100081d8:	0d5b      	lsrs	r3, r3, #21
100081da:	4014      	ands	r4, r2
100081dc:	e642      	b.n	10007e64 <__aeabi_dmul+0xc8>
100081de:	4d38      	ldr	r5, [pc, #224]	; (100082c0 <__aeabi_dmul+0x524>)
100081e0:	1bed      	subs	r5, r5, r7
100081e2:	2d38      	cmp	r5, #56	; 0x38
100081e4:	dd0a      	ble.n	100081fc <__aeabi_dmul+0x460>
100081e6:	2401      	movs	r4, #1
100081e8:	9b02      	ldr	r3, [sp, #8]
100081ea:	2500      	movs	r5, #0
100081ec:	401c      	ands	r4, r3
100081ee:	2600      	movs	r6, #0
100081f0:	2300      	movs	r3, #0
100081f2:	e637      	b.n	10007e64 <__aeabi_dmul+0xc8>
100081f4:	9b01      	ldr	r3, [sp, #4]
100081f6:	4657      	mov	r7, sl
100081f8:	9302      	str	r3, [sp, #8]
100081fa:	e791      	b.n	10008120 <__aeabi_dmul+0x384>
100081fc:	2d1f      	cmp	r5, #31
100081fe:	dc25      	bgt.n	1000824c <__aeabi_dmul+0x4b0>
10008200:	4b30      	ldr	r3, [pc, #192]	; (100082c4 <__aeabi_dmul+0x528>)
10008202:	1c32      	adds	r2, r6, #0
10008204:	469c      	mov	ip, r3
10008206:	4467      	add	r7, ip
10008208:	40be      	lsls	r6, r7
1000820a:	465b      	mov	r3, fp
1000820c:	40bb      	lsls	r3, r7
1000820e:	1c37      	adds	r7, r6, #0
10008210:	40ea      	lsrs	r2, r5
10008212:	1e7e      	subs	r6, r7, #1
10008214:	41b7      	sbcs	r7, r6
10008216:	4313      	orrs	r3, r2
10008218:	433b      	orrs	r3, r7
1000821a:	1c1e      	adds	r6, r3, #0
1000821c:	465b      	mov	r3, fp
1000821e:	40eb      	lsrs	r3, r5
10008220:	1c1d      	adds	r5, r3, #0
10008222:	0773      	lsls	r3, r6, #29
10008224:	d009      	beq.n	1000823a <__aeabi_dmul+0x49e>
10008226:	230f      	movs	r3, #15
10008228:	4033      	ands	r3, r6
1000822a:	2b04      	cmp	r3, #4
1000822c:	d005      	beq.n	1000823a <__aeabi_dmul+0x49e>
1000822e:	1d33      	adds	r3, r6, #4
10008230:	42b3      	cmp	r3, r6
10008232:	41b6      	sbcs	r6, r6
10008234:	4276      	negs	r6, r6
10008236:	19ad      	adds	r5, r5, r6
10008238:	1c1e      	adds	r6, r3, #0
1000823a:	022b      	lsls	r3, r5, #8
1000823c:	d520      	bpl.n	10008280 <__aeabi_dmul+0x4e4>
1000823e:	2401      	movs	r4, #1
10008240:	9b02      	ldr	r3, [sp, #8]
10008242:	2500      	movs	r5, #0
10008244:	401c      	ands	r4, r3
10008246:	2600      	movs	r6, #0
10008248:	2301      	movs	r3, #1
1000824a:	e60b      	b.n	10007e64 <__aeabi_dmul+0xc8>
1000824c:	465a      	mov	r2, fp
1000824e:	4b1e      	ldr	r3, [pc, #120]	; (100082c8 <__aeabi_dmul+0x52c>)
10008250:	1bdb      	subs	r3, r3, r7
10008252:	40da      	lsrs	r2, r3
10008254:	1c13      	adds	r3, r2, #0
10008256:	2d20      	cmp	r5, #32
10008258:	d01c      	beq.n	10008294 <__aeabi_dmul+0x4f8>
1000825a:	4a1c      	ldr	r2, [pc, #112]	; (100082cc <__aeabi_dmul+0x530>)
1000825c:	4694      	mov	ip, r2
1000825e:	465a      	mov	r2, fp
10008260:	4467      	add	r7, ip
10008262:	40ba      	lsls	r2, r7
10008264:	1c17      	adds	r7, r2, #0
10008266:	433e      	orrs	r6, r7
10008268:	1e72      	subs	r2, r6, #1
1000826a:	4196      	sbcs	r6, r2
1000826c:	431e      	orrs	r6, r3
1000826e:	2307      	movs	r3, #7
10008270:	2500      	movs	r5, #0
10008272:	4033      	ands	r3, r6
10008274:	d007      	beq.n	10008286 <__aeabi_dmul+0x4ea>
10008276:	230f      	movs	r3, #15
10008278:	2500      	movs	r5, #0
1000827a:	4033      	ands	r3, r6
1000827c:	2b04      	cmp	r3, #4
1000827e:	d1d6      	bne.n	1000822e <__aeabi_dmul+0x492>
10008280:	076b      	lsls	r3, r5, #29
10008282:	026d      	lsls	r5, r5, #9
10008284:	0b2d      	lsrs	r5, r5, #12
10008286:	2401      	movs	r4, #1
10008288:	08f6      	lsrs	r6, r6, #3
1000828a:	431e      	orrs	r6, r3
1000828c:	9b02      	ldr	r3, [sp, #8]
1000828e:	401c      	ands	r4, r3
10008290:	2300      	movs	r3, #0
10008292:	e5e7      	b.n	10007e64 <__aeabi_dmul+0xc8>
10008294:	2700      	movs	r7, #0
10008296:	e7e6      	b.n	10008266 <__aeabi_dmul+0x4ca>
10008298:	2580      	movs	r5, #128	; 0x80
1000829a:	465b      	mov	r3, fp
1000829c:	2401      	movs	r4, #1
1000829e:	032d      	lsls	r5, r5, #12
100082a0:	431d      	orrs	r5, r3
100082a2:	9b01      	ldr	r3, [sp, #4]
100082a4:	032d      	lsls	r5, r5, #12
100082a6:	4023      	ands	r3, r4
100082a8:	1c1c      	adds	r4, r3, #0
100082aa:	0b2d      	lsrs	r5, r5, #12
100082ac:	4b03      	ldr	r3, [pc, #12]	; (100082bc <__aeabi_dmul+0x520>)
100082ae:	e5d9      	b.n	10007e64 <__aeabi_dmul+0xc8>
100082b0:	000003ff 	.word	0x000003ff
100082b4:	feffffff 	.word	0xfeffffff
100082b8:	000007fe 	.word	0x000007fe
100082bc:	000007ff 	.word	0x000007ff
100082c0:	fffffc02 	.word	0xfffffc02
100082c4:	0000041e 	.word	0x0000041e
100082c8:	fffffbe2 	.word	0xfffffbe2
100082cc:	0000043e 	.word	0x0000043e

100082d0 <__aeabi_dsub>:
100082d0:	b5f0      	push	{r4, r5, r6, r7, lr}
100082d2:	464d      	mov	r5, r9
100082d4:	4644      	mov	r4, r8
100082d6:	465f      	mov	r7, fp
100082d8:	4656      	mov	r6, sl
100082da:	b4f0      	push	{r4, r5, r6, r7}
100082dc:	1c0e      	adds	r6, r1, #0
100082de:	1c11      	adds	r1, r2, #0
100082e0:	0332      	lsls	r2, r6, #12
100082e2:	0a52      	lsrs	r2, r2, #9
100082e4:	0f47      	lsrs	r7, r0, #29
100082e6:	4317      	orrs	r7, r2
100082e8:	00c5      	lsls	r5, r0, #3
100082ea:	031a      	lsls	r2, r3, #12
100082ec:	0058      	lsls	r0, r3, #1
100082ee:	0fdb      	lsrs	r3, r3, #31
100082f0:	4699      	mov	r9, r3
100082f2:	0a52      	lsrs	r2, r2, #9
100082f4:	0f4b      	lsrs	r3, r1, #29
100082f6:	b083      	sub	sp, #12
100082f8:	431a      	orrs	r2, r3
100082fa:	00cb      	lsls	r3, r1, #3
100082fc:	9301      	str	r3, [sp, #4]
100082fe:	4bcf      	ldr	r3, [pc, #828]	; (1000863c <__aeabi_dsub+0x36c>)
10008300:	0074      	lsls	r4, r6, #1
10008302:	0ff6      	lsrs	r6, r6, #31
10008304:	0d64      	lsrs	r4, r4, #21
10008306:	46b0      	mov	r8, r6
10008308:	0d40      	lsrs	r0, r0, #21
1000830a:	4298      	cmp	r0, r3
1000830c:	d100      	bne.n	10008310 <__aeabi_dsub+0x40>
1000830e:	e0e8      	b.n	100084e2 <__aeabi_dsub+0x212>
10008310:	2301      	movs	r3, #1
10008312:	4649      	mov	r1, r9
10008314:	4059      	eors	r1, r3
10008316:	1c0b      	adds	r3, r1, #0
10008318:	429e      	cmp	r6, r3
1000831a:	d100      	bne.n	1000831e <__aeabi_dsub+0x4e>
1000831c:	e0b1      	b.n	10008482 <__aeabi_dsub+0x1b2>
1000831e:	1a26      	subs	r6, r4, r0
10008320:	2e00      	cmp	r6, #0
10008322:	dc00      	bgt.n	10008326 <__aeabi_dsub+0x56>
10008324:	e11c      	b.n	10008560 <__aeabi_dsub+0x290>
10008326:	2800      	cmp	r0, #0
10008328:	d142      	bne.n	100083b0 <__aeabi_dsub+0xe0>
1000832a:	1c13      	adds	r3, r2, #0
1000832c:	9901      	ldr	r1, [sp, #4]
1000832e:	430b      	orrs	r3, r1
10008330:	d000      	beq.n	10008334 <__aeabi_dsub+0x64>
10008332:	e0e6      	b.n	10008502 <__aeabi_dsub+0x232>
10008334:	076b      	lsls	r3, r5, #29
10008336:	d100      	bne.n	1000833a <__aeabi_dsub+0x6a>
10008338:	e08e      	b.n	10008458 <__aeabi_dsub+0x188>
1000833a:	230f      	movs	r3, #15
1000833c:	402b      	ands	r3, r5
1000833e:	2b04      	cmp	r3, #4
10008340:	d100      	bne.n	10008344 <__aeabi_dsub+0x74>
10008342:	e089      	b.n	10008458 <__aeabi_dsub+0x188>
10008344:	1d2a      	adds	r2, r5, #4
10008346:	42aa      	cmp	r2, r5
10008348:	41ad      	sbcs	r5, r5
1000834a:	2380      	movs	r3, #128	; 0x80
1000834c:	2601      	movs	r6, #1
1000834e:	4641      	mov	r1, r8
10008350:	426d      	negs	r5, r5
10008352:	197f      	adds	r7, r7, r5
10008354:	041b      	lsls	r3, r3, #16
10008356:	403b      	ands	r3, r7
10008358:	400e      	ands	r6, r1
1000835a:	1c15      	adds	r5, r2, #0
1000835c:	2b00      	cmp	r3, #0
1000835e:	d100      	bne.n	10008362 <__aeabi_dsub+0x92>
10008360:	e083      	b.n	1000846a <__aeabi_dsub+0x19a>
10008362:	4bb6      	ldr	r3, [pc, #728]	; (1000863c <__aeabi_dsub+0x36c>)
10008364:	3401      	adds	r4, #1
10008366:	429c      	cmp	r4, r3
10008368:	d100      	bne.n	1000836c <__aeabi_dsub+0x9c>
1000836a:	e116      	b.n	1000859a <__aeabi_dsub+0x2ca>
1000836c:	1c3a      	adds	r2, r7, #0
1000836e:	4bb4      	ldr	r3, [pc, #720]	; (10008640 <__aeabi_dsub+0x370>)
10008370:	08ed      	lsrs	r5, r5, #3
10008372:	401a      	ands	r2, r3
10008374:	0750      	lsls	r0, r2, #29
10008376:	0564      	lsls	r4, r4, #21
10008378:	0252      	lsls	r2, r2, #9
1000837a:	4305      	orrs	r5, r0
1000837c:	0b12      	lsrs	r2, r2, #12
1000837e:	0d64      	lsrs	r4, r4, #21
10008380:	2100      	movs	r1, #0
10008382:	0312      	lsls	r2, r2, #12
10008384:	0d0b      	lsrs	r3, r1, #20
10008386:	051b      	lsls	r3, r3, #20
10008388:	0564      	lsls	r4, r4, #21
1000838a:	0b12      	lsrs	r2, r2, #12
1000838c:	431a      	orrs	r2, r3
1000838e:	0863      	lsrs	r3, r4, #1
10008390:	4cac      	ldr	r4, [pc, #688]	; (10008644 <__aeabi_dsub+0x374>)
10008392:	07f6      	lsls	r6, r6, #31
10008394:	4014      	ands	r4, r2
10008396:	431c      	orrs	r4, r3
10008398:	0064      	lsls	r4, r4, #1
1000839a:	0864      	lsrs	r4, r4, #1
1000839c:	4334      	orrs	r4, r6
1000839e:	1c28      	adds	r0, r5, #0
100083a0:	1c21      	adds	r1, r4, #0
100083a2:	b003      	add	sp, #12
100083a4:	bc3c      	pop	{r2, r3, r4, r5}
100083a6:	4690      	mov	r8, r2
100083a8:	4699      	mov	r9, r3
100083aa:	46a2      	mov	sl, r4
100083ac:	46ab      	mov	fp, r5
100083ae:	bdf0      	pop	{r4, r5, r6, r7, pc}
100083b0:	4ba2      	ldr	r3, [pc, #648]	; (1000863c <__aeabi_dsub+0x36c>)
100083b2:	429c      	cmp	r4, r3
100083b4:	d0be      	beq.n	10008334 <__aeabi_dsub+0x64>
100083b6:	2380      	movs	r3, #128	; 0x80
100083b8:	041b      	lsls	r3, r3, #16
100083ba:	431a      	orrs	r2, r3
100083bc:	2e38      	cmp	r6, #56	; 0x38
100083be:	dd00      	ble.n	100083c2 <__aeabi_dsub+0xf2>
100083c0:	e103      	b.n	100085ca <__aeabi_dsub+0x2fa>
100083c2:	2e1f      	cmp	r6, #31
100083c4:	dd00      	ble.n	100083c8 <__aeabi_dsub+0xf8>
100083c6:	e13f      	b.n	10008648 <__aeabi_dsub+0x378>
100083c8:	2020      	movs	r0, #32
100083ca:	1b83      	subs	r3, r0, r6
100083cc:	4699      	mov	r9, r3
100083ce:	1c13      	adds	r3, r2, #0
100083d0:	4649      	mov	r1, r9
100083d2:	408b      	lsls	r3, r1
100083d4:	469c      	mov	ip, r3
100083d6:	9b01      	ldr	r3, [sp, #4]
100083d8:	4660      	mov	r0, ip
100083da:	40f3      	lsrs	r3, r6
100083dc:	4303      	orrs	r3, r0
100083de:	9801      	ldr	r0, [sp, #4]
100083e0:	40f2      	lsrs	r2, r6
100083e2:	4088      	lsls	r0, r1
100083e4:	1c01      	adds	r1, r0, #0
100083e6:	1e48      	subs	r0, r1, #1
100083e8:	4181      	sbcs	r1, r0
100083ea:	430b      	orrs	r3, r1
100083ec:	1aeb      	subs	r3, r5, r3
100083ee:	429d      	cmp	r5, r3
100083f0:	4180      	sbcs	r0, r0
100083f2:	1c1d      	adds	r5, r3, #0
100083f4:	1aba      	subs	r2, r7, r2
100083f6:	4240      	negs	r0, r0
100083f8:	1a17      	subs	r7, r2, r0
100083fa:	023b      	lsls	r3, r7, #8
100083fc:	d400      	bmi.n	10008400 <__aeabi_dsub+0x130>
100083fe:	e0a8      	b.n	10008552 <__aeabi_dsub+0x282>
10008400:	027a      	lsls	r2, r7, #9
10008402:	0a56      	lsrs	r6, r2, #9
10008404:	2e00      	cmp	r6, #0
10008406:	d100      	bne.n	1000840a <__aeabi_dsub+0x13a>
10008408:	e0ca      	b.n	100085a0 <__aeabi_dsub+0x2d0>
1000840a:	1c30      	adds	r0, r6, #0
1000840c:	f7fa ff18 	bl	10003240 <__clzsi2>
10008410:	1c03      	adds	r3, r0, #0
10008412:	3b08      	subs	r3, #8
10008414:	2b1f      	cmp	r3, #31
10008416:	dd00      	ble.n	1000841a <__aeabi_dsub+0x14a>
10008418:	e0cb      	b.n	100085b2 <__aeabi_dsub+0x2e2>
1000841a:	2228      	movs	r2, #40	; 0x28
1000841c:	1c29      	adds	r1, r5, #0
1000841e:	1a12      	subs	r2, r2, r0
10008420:	40d1      	lsrs	r1, r2
10008422:	409e      	lsls	r6, r3
10008424:	1c0a      	adds	r2, r1, #0
10008426:	409d      	lsls	r5, r3
10008428:	4332      	orrs	r2, r6
1000842a:	429c      	cmp	r4, r3
1000842c:	dd00      	ble.n	10008430 <__aeabi_dsub+0x160>
1000842e:	e0c8      	b.n	100085c2 <__aeabi_dsub+0x2f2>
10008430:	1b1c      	subs	r4, r3, r4
10008432:	1c67      	adds	r7, r4, #1
10008434:	2f1f      	cmp	r7, #31
10008436:	dd00      	ble.n	1000843a <__aeabi_dsub+0x16a>
10008438:	e0ed      	b.n	10008616 <__aeabi_dsub+0x346>
1000843a:	231f      	movs	r3, #31
1000843c:	1c29      	adds	r1, r5, #0
1000843e:	1b1c      	subs	r4, r3, r4
10008440:	1c13      	adds	r3, r2, #0
10008442:	40a5      	lsls	r5, r4
10008444:	40a3      	lsls	r3, r4
10008446:	40f9      	lsrs	r1, r7
10008448:	1e6c      	subs	r4, r5, #1
1000844a:	41a5      	sbcs	r5, r4
1000844c:	40fa      	lsrs	r2, r7
1000844e:	4319      	orrs	r1, r3
10008450:	430d      	orrs	r5, r1
10008452:	1c17      	adds	r7, r2, #0
10008454:	2400      	movs	r4, #0
10008456:	e76d      	b.n	10008334 <__aeabi_dsub+0x64>
10008458:	2380      	movs	r3, #128	; 0x80
1000845a:	2601      	movs	r6, #1
1000845c:	4642      	mov	r2, r8
1000845e:	041b      	lsls	r3, r3, #16
10008460:	403b      	ands	r3, r7
10008462:	4016      	ands	r6, r2
10008464:	2b00      	cmp	r3, #0
10008466:	d000      	beq.n	1000846a <__aeabi_dsub+0x19a>
10008468:	e77b      	b.n	10008362 <__aeabi_dsub+0x92>
1000846a:	4b74      	ldr	r3, [pc, #464]	; (1000863c <__aeabi_dsub+0x36c>)
1000846c:	08ed      	lsrs	r5, r5, #3
1000846e:	0778      	lsls	r0, r7, #29
10008470:	4305      	orrs	r5, r0
10008472:	08fa      	lsrs	r2, r7, #3
10008474:	429c      	cmp	r4, r3
10008476:	d03b      	beq.n	100084f0 <__aeabi_dsub+0x220>
10008478:	0312      	lsls	r2, r2, #12
1000847a:	0564      	lsls	r4, r4, #21
1000847c:	0b12      	lsrs	r2, r2, #12
1000847e:	0d64      	lsrs	r4, r4, #21
10008480:	e77e      	b.n	10008380 <__aeabi_dsub+0xb0>
10008482:	1a23      	subs	r3, r4, r0
10008484:	469a      	mov	sl, r3
10008486:	2b00      	cmp	r3, #0
10008488:	dc00      	bgt.n	1000848c <__aeabi_dsub+0x1bc>
1000848a:	e0a5      	b.n	100085d8 <__aeabi_dsub+0x308>
1000848c:	2800      	cmp	r0, #0
1000848e:	d044      	beq.n	1000851a <__aeabi_dsub+0x24a>
10008490:	486a      	ldr	r0, [pc, #424]	; (1000863c <__aeabi_dsub+0x36c>)
10008492:	4284      	cmp	r4, r0
10008494:	d100      	bne.n	10008498 <__aeabi_dsub+0x1c8>
10008496:	e74d      	b.n	10008334 <__aeabi_dsub+0x64>
10008498:	2080      	movs	r0, #128	; 0x80
1000849a:	0400      	lsls	r0, r0, #16
1000849c:	4302      	orrs	r2, r0
1000849e:	4653      	mov	r3, sl
100084a0:	2b38      	cmp	r3, #56	; 0x38
100084a2:	dc00      	bgt.n	100084a6 <__aeabi_dsub+0x1d6>
100084a4:	e11c      	b.n	100086e0 <__aeabi_dsub+0x410>
100084a6:	9b01      	ldr	r3, [sp, #4]
100084a8:	431a      	orrs	r2, r3
100084aa:	1e51      	subs	r1, r2, #1
100084ac:	418a      	sbcs	r2, r1
100084ae:	b2d1      	uxtb	r1, r2
100084b0:	2200      	movs	r2, #0
100084b2:	1949      	adds	r1, r1, r5
100084b4:	42a9      	cmp	r1, r5
100084b6:	4180      	sbcs	r0, r0
100084b8:	1c0d      	adds	r5, r1, #0
100084ba:	19d2      	adds	r2, r2, r7
100084bc:	4240      	negs	r0, r0
100084be:	1817      	adds	r7, r2, r0
100084c0:	023b      	lsls	r3, r7, #8
100084c2:	d546      	bpl.n	10008552 <__aeabi_dsub+0x282>
100084c4:	4b5d      	ldr	r3, [pc, #372]	; (1000863c <__aeabi_dsub+0x36c>)
100084c6:	3401      	adds	r4, #1
100084c8:	429c      	cmp	r4, r3
100084ca:	d100      	bne.n	100084ce <__aeabi_dsub+0x1fe>
100084cc:	e169      	b.n	100087a2 <__aeabi_dsub+0x4d2>
100084ce:	2001      	movs	r0, #1
100084d0:	4a5b      	ldr	r2, [pc, #364]	; (10008640 <__aeabi_dsub+0x370>)
100084d2:	086b      	lsrs	r3, r5, #1
100084d4:	403a      	ands	r2, r7
100084d6:	4028      	ands	r0, r5
100084d8:	4318      	orrs	r0, r3
100084da:	07d5      	lsls	r5, r2, #31
100084dc:	4305      	orrs	r5, r0
100084de:	0857      	lsrs	r7, r2, #1
100084e0:	e728      	b.n	10008334 <__aeabi_dsub+0x64>
100084e2:	1c13      	adds	r3, r2, #0
100084e4:	9901      	ldr	r1, [sp, #4]
100084e6:	430b      	orrs	r3, r1
100084e8:	d100      	bne.n	100084ec <__aeabi_dsub+0x21c>
100084ea:	e711      	b.n	10008310 <__aeabi_dsub+0x40>
100084ec:	464b      	mov	r3, r9
100084ee:	e713      	b.n	10008318 <__aeabi_dsub+0x48>
100084f0:	1c2b      	adds	r3, r5, #0
100084f2:	4313      	orrs	r3, r2
100084f4:	d051      	beq.n	1000859a <__aeabi_dsub+0x2ca>
100084f6:	2380      	movs	r3, #128	; 0x80
100084f8:	031b      	lsls	r3, r3, #12
100084fa:	431a      	orrs	r2, r3
100084fc:	0312      	lsls	r2, r2, #12
100084fe:	0b12      	lsrs	r2, r2, #12
10008500:	e73e      	b.n	10008380 <__aeabi_dsub+0xb0>
10008502:	3e01      	subs	r6, #1
10008504:	2e00      	cmp	r6, #0
10008506:	d000      	beq.n	1000850a <__aeabi_dsub+0x23a>
10008508:	e080      	b.n	1000860c <__aeabi_dsub+0x33c>
1000850a:	1a69      	subs	r1, r5, r1
1000850c:	428d      	cmp	r5, r1
1000850e:	419b      	sbcs	r3, r3
10008510:	1aba      	subs	r2, r7, r2
10008512:	425b      	negs	r3, r3
10008514:	1ad7      	subs	r7, r2, r3
10008516:	1c0d      	adds	r5, r1, #0
10008518:	e76f      	b.n	100083fa <__aeabi_dsub+0x12a>
1000851a:	1c10      	adds	r0, r2, #0
1000851c:	9b01      	ldr	r3, [sp, #4]
1000851e:	4318      	orrs	r0, r3
10008520:	d100      	bne.n	10008524 <__aeabi_dsub+0x254>
10008522:	e707      	b.n	10008334 <__aeabi_dsub+0x64>
10008524:	2301      	movs	r3, #1
10008526:	425b      	negs	r3, r3
10008528:	469c      	mov	ip, r3
1000852a:	44e2      	add	sl, ip
1000852c:	4653      	mov	r3, sl
1000852e:	2b00      	cmp	r3, #0
10008530:	d000      	beq.n	10008534 <__aeabi_dsub+0x264>
10008532:	e102      	b.n	1000873a <__aeabi_dsub+0x46a>
10008534:	9b01      	ldr	r3, [sp, #4]
10008536:	19d2      	adds	r2, r2, r7
10008538:	1959      	adds	r1, r3, r5
1000853a:	42a9      	cmp	r1, r5
1000853c:	419b      	sbcs	r3, r3
1000853e:	425b      	negs	r3, r3
10008540:	18d7      	adds	r7, r2, r3
10008542:	1c0d      	adds	r5, r1, #0
10008544:	e7bc      	b.n	100084c0 <__aeabi_dsub+0x1f0>
10008546:	4663      	mov	r3, ip
10008548:	4303      	orrs	r3, r0
1000854a:	d100      	bne.n	1000854e <__aeabi_dsub+0x27e>
1000854c:	e128      	b.n	100087a0 <__aeabi_dsub+0x4d0>
1000854e:	1c07      	adds	r7, r0, #0
10008550:	4665      	mov	r5, ip
10008552:	076b      	lsls	r3, r5, #29
10008554:	d000      	beq.n	10008558 <__aeabi_dsub+0x288>
10008556:	e6f0      	b.n	1000833a <__aeabi_dsub+0x6a>
10008558:	2601      	movs	r6, #1
1000855a:	4643      	mov	r3, r8
1000855c:	401e      	ands	r6, r3
1000855e:	e784      	b.n	1000846a <__aeabi_dsub+0x19a>
10008560:	2e00      	cmp	r6, #0
10008562:	d000      	beq.n	10008566 <__aeabi_dsub+0x296>
10008564:	e081      	b.n	1000866a <__aeabi_dsub+0x39a>
10008566:	1c60      	adds	r0, r4, #1
10008568:	0540      	lsls	r0, r0, #21
1000856a:	0d40      	lsrs	r0, r0, #21
1000856c:	2801      	cmp	r0, #1
1000856e:	dc00      	bgt.n	10008572 <__aeabi_dsub+0x2a2>
10008570:	e107      	b.n	10008782 <__aeabi_dsub+0x4b2>
10008572:	9901      	ldr	r1, [sp, #4]
10008574:	1a68      	subs	r0, r5, r1
10008576:	4684      	mov	ip, r0
10008578:	4565      	cmp	r5, ip
1000857a:	41b6      	sbcs	r6, r6
1000857c:	1ab8      	subs	r0, r7, r2
1000857e:	4276      	negs	r6, r6
10008580:	1b86      	subs	r6, r0, r6
10008582:	0230      	lsls	r0, r6, #8
10008584:	d400      	bmi.n	10008588 <__aeabi_dsub+0x2b8>
10008586:	e0a1      	b.n	100086cc <__aeabi_dsub+0x3fc>
10008588:	468c      	mov	ip, r1
1000858a:	1b4d      	subs	r5, r1, r5
1000858c:	45ac      	cmp	ip, r5
1000858e:	4189      	sbcs	r1, r1
10008590:	1bd2      	subs	r2, r2, r7
10008592:	4249      	negs	r1, r1
10008594:	1a56      	subs	r6, r2, r1
10008596:	4698      	mov	r8, r3
10008598:	e734      	b.n	10008404 <__aeabi_dsub+0x134>
1000859a:	2200      	movs	r2, #0
1000859c:	2500      	movs	r5, #0
1000859e:	e6ef      	b.n	10008380 <__aeabi_dsub+0xb0>
100085a0:	1c28      	adds	r0, r5, #0
100085a2:	f7fa fe4d 	bl	10003240 <__clzsi2>
100085a6:	3020      	adds	r0, #32
100085a8:	1c03      	adds	r3, r0, #0
100085aa:	3b08      	subs	r3, #8
100085ac:	2b1f      	cmp	r3, #31
100085ae:	dc00      	bgt.n	100085b2 <__aeabi_dsub+0x2e2>
100085b0:	e733      	b.n	1000841a <__aeabi_dsub+0x14a>
100085b2:	1c02      	adds	r2, r0, #0
100085b4:	3a28      	subs	r2, #40	; 0x28
100085b6:	4095      	lsls	r5, r2
100085b8:	1c2a      	adds	r2, r5, #0
100085ba:	2500      	movs	r5, #0
100085bc:	429c      	cmp	r4, r3
100085be:	dc00      	bgt.n	100085c2 <__aeabi_dsub+0x2f2>
100085c0:	e736      	b.n	10008430 <__aeabi_dsub+0x160>
100085c2:	4f1f      	ldr	r7, [pc, #124]	; (10008640 <__aeabi_dsub+0x370>)
100085c4:	1ae4      	subs	r4, r4, r3
100085c6:	4017      	ands	r7, r2
100085c8:	e6b4      	b.n	10008334 <__aeabi_dsub+0x64>
100085ca:	9b01      	ldr	r3, [sp, #4]
100085cc:	431a      	orrs	r2, r3
100085ce:	1e51      	subs	r1, r2, #1
100085d0:	418a      	sbcs	r2, r1
100085d2:	b2d3      	uxtb	r3, r2
100085d4:	2200      	movs	r2, #0
100085d6:	e709      	b.n	100083ec <__aeabi_dsub+0x11c>
100085d8:	2b00      	cmp	r3, #0
100085da:	d000      	beq.n	100085de <__aeabi_dsub+0x30e>
100085dc:	e101      	b.n	100087e2 <__aeabi_dsub+0x512>
100085de:	1c60      	adds	r0, r4, #1
100085e0:	0543      	lsls	r3, r0, #21
100085e2:	0d5b      	lsrs	r3, r3, #21
100085e4:	2b01      	cmp	r3, #1
100085e6:	dc00      	bgt.n	100085ea <__aeabi_dsub+0x31a>
100085e8:	e0b0      	b.n	1000874c <__aeabi_dsub+0x47c>
100085ea:	4b14      	ldr	r3, [pc, #80]	; (1000863c <__aeabi_dsub+0x36c>)
100085ec:	4298      	cmp	r0, r3
100085ee:	d100      	bne.n	100085f2 <__aeabi_dsub+0x322>
100085f0:	e11e      	b.n	10008830 <__aeabi_dsub+0x560>
100085f2:	9b01      	ldr	r3, [sp, #4]
100085f4:	19d2      	adds	r2, r2, r7
100085f6:	1959      	adds	r1, r3, r5
100085f8:	42a9      	cmp	r1, r5
100085fa:	419b      	sbcs	r3, r3
100085fc:	425b      	negs	r3, r3
100085fe:	18d2      	adds	r2, r2, r3
10008600:	0849      	lsrs	r1, r1, #1
10008602:	07d5      	lsls	r5, r2, #31
10008604:	430d      	orrs	r5, r1
10008606:	0857      	lsrs	r7, r2, #1
10008608:	1c04      	adds	r4, r0, #0
1000860a:	e693      	b.n	10008334 <__aeabi_dsub+0x64>
1000860c:	4b0b      	ldr	r3, [pc, #44]	; (1000863c <__aeabi_dsub+0x36c>)
1000860e:	429c      	cmp	r4, r3
10008610:	d000      	beq.n	10008614 <__aeabi_dsub+0x344>
10008612:	e6d3      	b.n	100083bc <__aeabi_dsub+0xec>
10008614:	e68e      	b.n	10008334 <__aeabi_dsub+0x64>
10008616:	1c21      	adds	r1, r4, #0
10008618:	1c13      	adds	r3, r2, #0
1000861a:	391f      	subs	r1, #31
1000861c:	40cb      	lsrs	r3, r1
1000861e:	1c19      	adds	r1, r3, #0
10008620:	2f20      	cmp	r7, #32
10008622:	d100      	bne.n	10008626 <__aeabi_dsub+0x356>
10008624:	e08e      	b.n	10008744 <__aeabi_dsub+0x474>
10008626:	233f      	movs	r3, #63	; 0x3f
10008628:	1b1c      	subs	r4, r3, r4
1000862a:	40a2      	lsls	r2, r4
1000862c:	4315      	orrs	r5, r2
1000862e:	1e6a      	subs	r2, r5, #1
10008630:	4195      	sbcs	r5, r2
10008632:	2700      	movs	r7, #0
10008634:	430d      	orrs	r5, r1
10008636:	2400      	movs	r4, #0
10008638:	e78b      	b.n	10008552 <__aeabi_dsub+0x282>
1000863a:	46c0      	nop			; (mov r8, r8)
1000863c:	000007ff 	.word	0x000007ff
10008640:	ff7fffff 	.word	0xff7fffff
10008644:	800fffff 	.word	0x800fffff
10008648:	1c33      	adds	r3, r6, #0
1000864a:	1c10      	adds	r0, r2, #0
1000864c:	3b20      	subs	r3, #32
1000864e:	40d8      	lsrs	r0, r3
10008650:	2e20      	cmp	r6, #32
10008652:	d079      	beq.n	10008748 <__aeabi_dsub+0x478>
10008654:	2340      	movs	r3, #64	; 0x40
10008656:	1b9b      	subs	r3, r3, r6
10008658:	409a      	lsls	r2, r3
1000865a:	1c13      	adds	r3, r2, #0
1000865c:	9a01      	ldr	r2, [sp, #4]
1000865e:	4313      	orrs	r3, r2
10008660:	1e59      	subs	r1, r3, #1
10008662:	418b      	sbcs	r3, r1
10008664:	2200      	movs	r2, #0
10008666:	4303      	orrs	r3, r0
10008668:	e6c0      	b.n	100083ec <__aeabi_dsub+0x11c>
1000866a:	2c00      	cmp	r4, #0
1000866c:	d053      	beq.n	10008716 <__aeabi_dsub+0x446>
1000866e:	4cc7      	ldr	r4, [pc, #796]	; (1000898c <__aeabi_dsub+0x6bc>)
10008670:	42a0      	cmp	r0, r4
10008672:	d100      	bne.n	10008676 <__aeabi_dsub+0x3a6>
10008674:	e0b0      	b.n	100087d8 <__aeabi_dsub+0x508>
10008676:	2480      	movs	r4, #128	; 0x80
10008678:	4271      	negs	r1, r6
1000867a:	4689      	mov	r9, r1
1000867c:	0424      	lsls	r4, r4, #16
1000867e:	4327      	orrs	r7, r4
10008680:	4649      	mov	r1, r9
10008682:	2938      	cmp	r1, #56	; 0x38
10008684:	dd00      	ble.n	10008688 <__aeabi_dsub+0x3b8>
10008686:	e0cd      	b.n	10008824 <__aeabi_dsub+0x554>
10008688:	291f      	cmp	r1, #31
1000868a:	dd00      	ble.n	1000868e <__aeabi_dsub+0x3be>
1000868c:	e159      	b.n	10008942 <__aeabi_dsub+0x672>
1000868e:	2420      	movs	r4, #32
10008690:	1c3e      	adds	r6, r7, #0
10008692:	1a61      	subs	r1, r4, r1
10008694:	408e      	lsls	r6, r1
10008696:	468a      	mov	sl, r1
10008698:	46b0      	mov	r8, r6
1000869a:	4649      	mov	r1, r9
1000869c:	1c2e      	adds	r6, r5, #0
1000869e:	40ce      	lsrs	r6, r1
100086a0:	4651      	mov	r1, sl
100086a2:	46b4      	mov	ip, r6
100086a4:	408d      	lsls	r5, r1
100086a6:	4664      	mov	r4, ip
100086a8:	4646      	mov	r6, r8
100086aa:	4649      	mov	r1, r9
100086ac:	4326      	orrs	r6, r4
100086ae:	1e6c      	subs	r4, r5, #1
100086b0:	41a5      	sbcs	r5, r4
100086b2:	40cf      	lsrs	r7, r1
100086b4:	4335      	orrs	r5, r6
100086b6:	9901      	ldr	r1, [sp, #4]
100086b8:	1bd7      	subs	r7, r2, r7
100086ba:	468c      	mov	ip, r1
100086bc:	1b4d      	subs	r5, r1, r5
100086be:	45ac      	cmp	ip, r5
100086c0:	4192      	sbcs	r2, r2
100086c2:	4252      	negs	r2, r2
100086c4:	1abf      	subs	r7, r7, r2
100086c6:	1c04      	adds	r4, r0, #0
100086c8:	4698      	mov	r8, r3
100086ca:	e696      	b.n	100083fa <__aeabi_dsub+0x12a>
100086cc:	4663      	mov	r3, ip
100086ce:	4665      	mov	r5, ip
100086d0:	4333      	orrs	r3, r6
100086d2:	d000      	beq.n	100086d6 <__aeabi_dsub+0x406>
100086d4:	e696      	b.n	10008404 <__aeabi_dsub+0x134>
100086d6:	2600      	movs	r6, #0
100086d8:	2700      	movs	r7, #0
100086da:	2400      	movs	r4, #0
100086dc:	2500      	movs	r5, #0
100086de:	e6c4      	b.n	1000846a <__aeabi_dsub+0x19a>
100086e0:	2b1f      	cmp	r3, #31
100086e2:	dc61      	bgt.n	100087a8 <__aeabi_dsub+0x4d8>
100086e4:	2020      	movs	r0, #32
100086e6:	1ac3      	subs	r3, r0, r3
100086e8:	469b      	mov	fp, r3
100086ea:	1c13      	adds	r3, r2, #0
100086ec:	4659      	mov	r1, fp
100086ee:	408b      	lsls	r3, r1
100086f0:	4651      	mov	r1, sl
100086f2:	4699      	mov	r9, r3
100086f4:	9b01      	ldr	r3, [sp, #4]
100086f6:	40cb      	lsrs	r3, r1
100086f8:	469c      	mov	ip, r3
100086fa:	464b      	mov	r3, r9
100086fc:	4660      	mov	r0, ip
100086fe:	4303      	orrs	r3, r0
10008700:	469c      	mov	ip, r3
10008702:	465b      	mov	r3, fp
10008704:	9901      	ldr	r1, [sp, #4]
10008706:	4099      	lsls	r1, r3
10008708:	4663      	mov	r3, ip
1000870a:	1e48      	subs	r0, r1, #1
1000870c:	4181      	sbcs	r1, r0
1000870e:	4319      	orrs	r1, r3
10008710:	4653      	mov	r3, sl
10008712:	40da      	lsrs	r2, r3
10008714:	e6cd      	b.n	100084b2 <__aeabi_dsub+0x1e2>
10008716:	1c3c      	adds	r4, r7, #0
10008718:	432c      	orrs	r4, r5
1000871a:	d05d      	beq.n	100087d8 <__aeabi_dsub+0x508>
1000871c:	43f1      	mvns	r1, r6
1000871e:	4689      	mov	r9, r1
10008720:	2900      	cmp	r1, #0
10008722:	d155      	bne.n	100087d0 <__aeabi_dsub+0x500>
10008724:	9901      	ldr	r1, [sp, #4]
10008726:	1bd2      	subs	r2, r2, r7
10008728:	468c      	mov	ip, r1
1000872a:	1b4d      	subs	r5, r1, r5
1000872c:	45ac      	cmp	ip, r5
1000872e:	4189      	sbcs	r1, r1
10008730:	4249      	negs	r1, r1
10008732:	1a57      	subs	r7, r2, r1
10008734:	1c04      	adds	r4, r0, #0
10008736:	4698      	mov	r8, r3
10008738:	e65f      	b.n	100083fa <__aeabi_dsub+0x12a>
1000873a:	4894      	ldr	r0, [pc, #592]	; (1000898c <__aeabi_dsub+0x6bc>)
1000873c:	4284      	cmp	r4, r0
1000873e:	d000      	beq.n	10008742 <__aeabi_dsub+0x472>
10008740:	e6ad      	b.n	1000849e <__aeabi_dsub+0x1ce>
10008742:	e5f7      	b.n	10008334 <__aeabi_dsub+0x64>
10008744:	2200      	movs	r2, #0
10008746:	e771      	b.n	1000862c <__aeabi_dsub+0x35c>
10008748:	2300      	movs	r3, #0
1000874a:	e787      	b.n	1000865c <__aeabi_dsub+0x38c>
1000874c:	1c3b      	adds	r3, r7, #0
1000874e:	432b      	orrs	r3, r5
10008750:	2c00      	cmp	r4, #0
10008752:	d000      	beq.n	10008756 <__aeabi_dsub+0x486>
10008754:	e0da      	b.n	1000890c <__aeabi_dsub+0x63c>
10008756:	2b00      	cmp	r3, #0
10008758:	d100      	bne.n	1000875c <__aeabi_dsub+0x48c>
1000875a:	e113      	b.n	10008984 <__aeabi_dsub+0x6b4>
1000875c:	1c13      	adds	r3, r2, #0
1000875e:	9901      	ldr	r1, [sp, #4]
10008760:	430b      	orrs	r3, r1
10008762:	d100      	bne.n	10008766 <__aeabi_dsub+0x496>
10008764:	e5e6      	b.n	10008334 <__aeabi_dsub+0x64>
10008766:	1949      	adds	r1, r1, r5
10008768:	42a9      	cmp	r1, r5
1000876a:	419b      	sbcs	r3, r3
1000876c:	19d2      	adds	r2, r2, r7
1000876e:	425b      	negs	r3, r3
10008770:	18d7      	adds	r7, r2, r3
10008772:	023b      	lsls	r3, r7, #8
10008774:	d400      	bmi.n	10008778 <__aeabi_dsub+0x4a8>
10008776:	e121      	b.n	100089bc <__aeabi_dsub+0x6ec>
10008778:	4b85      	ldr	r3, [pc, #532]	; (10008990 <__aeabi_dsub+0x6c0>)
1000877a:	1c0d      	adds	r5, r1, #0
1000877c:	401f      	ands	r7, r3
1000877e:	1c04      	adds	r4, r0, #0
10008780:	e5d8      	b.n	10008334 <__aeabi_dsub+0x64>
10008782:	1c38      	adds	r0, r7, #0
10008784:	4328      	orrs	r0, r5
10008786:	2c00      	cmp	r4, #0
10008788:	d140      	bne.n	1000880c <__aeabi_dsub+0x53c>
1000878a:	2800      	cmp	r0, #0
1000878c:	d000      	beq.n	10008790 <__aeabi_dsub+0x4c0>
1000878e:	e083      	b.n	10008898 <__aeabi_dsub+0x5c8>
10008790:	1c10      	adds	r0, r2, #0
10008792:	9901      	ldr	r1, [sp, #4]
10008794:	4308      	orrs	r0, r1
10008796:	d003      	beq.n	100087a0 <__aeabi_dsub+0x4d0>
10008798:	1c17      	adds	r7, r2, #0
1000879a:	1c0d      	adds	r5, r1, #0
1000879c:	4698      	mov	r8, r3
1000879e:	e5c9      	b.n	10008334 <__aeabi_dsub+0x64>
100087a0:	2600      	movs	r6, #0
100087a2:	2700      	movs	r7, #0
100087a4:	2500      	movs	r5, #0
100087a6:	e660      	b.n	1000846a <__aeabi_dsub+0x19a>
100087a8:	4650      	mov	r0, sl
100087aa:	1c13      	adds	r3, r2, #0
100087ac:	3820      	subs	r0, #32
100087ae:	40c3      	lsrs	r3, r0
100087b0:	1c18      	adds	r0, r3, #0
100087b2:	4653      	mov	r3, sl
100087b4:	2b20      	cmp	r3, #32
100087b6:	d100      	bne.n	100087ba <__aeabi_dsub+0x4ea>
100087b8:	e0c1      	b.n	1000893e <__aeabi_dsub+0x66e>
100087ba:	2340      	movs	r3, #64	; 0x40
100087bc:	4651      	mov	r1, sl
100087be:	1a5b      	subs	r3, r3, r1
100087c0:	409a      	lsls	r2, r3
100087c2:	9901      	ldr	r1, [sp, #4]
100087c4:	4311      	orrs	r1, r2
100087c6:	1e4a      	subs	r2, r1, #1
100087c8:	4191      	sbcs	r1, r2
100087ca:	2200      	movs	r2, #0
100087cc:	4301      	orrs	r1, r0
100087ce:	e670      	b.n	100084b2 <__aeabi_dsub+0x1e2>
100087d0:	4c6e      	ldr	r4, [pc, #440]	; (1000898c <__aeabi_dsub+0x6bc>)
100087d2:	42a0      	cmp	r0, r4
100087d4:	d000      	beq.n	100087d8 <__aeabi_dsub+0x508>
100087d6:	e753      	b.n	10008680 <__aeabi_dsub+0x3b0>
100087d8:	1c17      	adds	r7, r2, #0
100087da:	9d01      	ldr	r5, [sp, #4]
100087dc:	1c04      	adds	r4, r0, #0
100087de:	4698      	mov	r8, r3
100087e0:	e5a8      	b.n	10008334 <__aeabi_dsub+0x64>
100087e2:	2c00      	cmp	r4, #0
100087e4:	d128      	bne.n	10008838 <__aeabi_dsub+0x568>
100087e6:	1c3c      	adds	r4, r7, #0
100087e8:	432c      	orrs	r4, r5
100087ea:	d100      	bne.n	100087ee <__aeabi_dsub+0x51e>
100087ec:	e08a      	b.n	10008904 <__aeabi_dsub+0x634>
100087ee:	43db      	mvns	r3, r3
100087f0:	469a      	mov	sl, r3
100087f2:	2b00      	cmp	r3, #0
100087f4:	d000      	beq.n	100087f8 <__aeabi_dsub+0x528>
100087f6:	e082      	b.n	100088fe <__aeabi_dsub+0x62e>
100087f8:	9b01      	ldr	r3, [sp, #4]
100087fa:	19d2      	adds	r2, r2, r7
100087fc:	469c      	mov	ip, r3
100087fe:	4465      	add	r5, ip
10008800:	429d      	cmp	r5, r3
10008802:	4189      	sbcs	r1, r1
10008804:	4249      	negs	r1, r1
10008806:	1857      	adds	r7, r2, r1
10008808:	1c04      	adds	r4, r0, #0
1000880a:	e659      	b.n	100084c0 <__aeabi_dsub+0x1f0>
1000880c:	2800      	cmp	r0, #0
1000880e:	d15b      	bne.n	100088c8 <__aeabi_dsub+0x5f8>
10008810:	1c10      	adds	r0, r2, #0
10008812:	9901      	ldr	r1, [sp, #4]
10008814:	4308      	orrs	r0, r1
10008816:	d100      	bne.n	1000881a <__aeabi_dsub+0x54a>
10008818:	e0a4      	b.n	10008964 <__aeabi_dsub+0x694>
1000881a:	1c17      	adds	r7, r2, #0
1000881c:	1c0d      	adds	r5, r1, #0
1000881e:	4698      	mov	r8, r3
10008820:	4c5a      	ldr	r4, [pc, #360]	; (1000898c <__aeabi_dsub+0x6bc>)
10008822:	e587      	b.n	10008334 <__aeabi_dsub+0x64>
10008824:	433d      	orrs	r5, r7
10008826:	1e6f      	subs	r7, r5, #1
10008828:	41bd      	sbcs	r5, r7
1000882a:	2700      	movs	r7, #0
1000882c:	b2ed      	uxtb	r5, r5
1000882e:	e742      	b.n	100086b6 <__aeabi_dsub+0x3e6>
10008830:	1c04      	adds	r4, r0, #0
10008832:	2700      	movs	r7, #0
10008834:	2500      	movs	r5, #0
10008836:	e618      	b.n	1000846a <__aeabi_dsub+0x19a>
10008838:	4c54      	ldr	r4, [pc, #336]	; (1000898c <__aeabi_dsub+0x6bc>)
1000883a:	42a0      	cmp	r0, r4
1000883c:	d062      	beq.n	10008904 <__aeabi_dsub+0x634>
1000883e:	4653      	mov	r3, sl
10008840:	2480      	movs	r4, #128	; 0x80
10008842:	425b      	negs	r3, r3
10008844:	469a      	mov	sl, r3
10008846:	0424      	lsls	r4, r4, #16
10008848:	4327      	orrs	r7, r4
1000884a:	4653      	mov	r3, sl
1000884c:	2b38      	cmp	r3, #56	; 0x38
1000884e:	dd00      	ble.n	10008852 <__aeabi_dsub+0x582>
10008850:	e08e      	b.n	10008970 <__aeabi_dsub+0x6a0>
10008852:	2b1f      	cmp	r3, #31
10008854:	dd00      	ble.n	10008858 <__aeabi_dsub+0x588>
10008856:	e09d      	b.n	10008994 <__aeabi_dsub+0x6c4>
10008858:	2420      	movs	r4, #32
1000885a:	1ae3      	subs	r3, r4, r3
1000885c:	469b      	mov	fp, r3
1000885e:	1c3b      	adds	r3, r7, #0
10008860:	4659      	mov	r1, fp
10008862:	408b      	lsls	r3, r1
10008864:	4651      	mov	r1, sl
10008866:	4699      	mov	r9, r3
10008868:	1c2b      	adds	r3, r5, #0
1000886a:	40cb      	lsrs	r3, r1
1000886c:	469c      	mov	ip, r3
1000886e:	464b      	mov	r3, r9
10008870:	4664      	mov	r4, ip
10008872:	4323      	orrs	r3, r4
10008874:	469c      	mov	ip, r3
10008876:	465b      	mov	r3, fp
10008878:	409d      	lsls	r5, r3
1000887a:	4663      	mov	r3, ip
1000887c:	1e6c      	subs	r4, r5, #1
1000887e:	41a5      	sbcs	r5, r4
10008880:	40cf      	lsrs	r7, r1
10008882:	431d      	orrs	r5, r3
10008884:	9b01      	ldr	r3, [sp, #4]
10008886:	18bf      	adds	r7, r7, r2
10008888:	469c      	mov	ip, r3
1000888a:	4465      	add	r5, ip
1000888c:	429d      	cmp	r5, r3
1000888e:	4192      	sbcs	r2, r2
10008890:	4252      	negs	r2, r2
10008892:	18bf      	adds	r7, r7, r2
10008894:	1c04      	adds	r4, r0, #0
10008896:	e613      	b.n	100084c0 <__aeabi_dsub+0x1f0>
10008898:	1c10      	adds	r0, r2, #0
1000889a:	9901      	ldr	r1, [sp, #4]
1000889c:	4308      	orrs	r0, r1
1000889e:	d100      	bne.n	100088a2 <__aeabi_dsub+0x5d2>
100088a0:	e548      	b.n	10008334 <__aeabi_dsub+0x64>
100088a2:	1a68      	subs	r0, r5, r1
100088a4:	4684      	mov	ip, r0
100088a6:	4285      	cmp	r5, r0
100088a8:	4180      	sbcs	r0, r0
100088aa:	1abe      	subs	r6, r7, r2
100088ac:	4240      	negs	r0, r0
100088ae:	1a30      	subs	r0, r6, r0
100088b0:	0206      	lsls	r6, r0, #8
100088b2:	d400      	bmi.n	100088b6 <__aeabi_dsub+0x5e6>
100088b4:	e647      	b.n	10008546 <__aeabi_dsub+0x276>
100088b6:	468c      	mov	ip, r1
100088b8:	1b4d      	subs	r5, r1, r5
100088ba:	45ac      	cmp	ip, r5
100088bc:	4189      	sbcs	r1, r1
100088be:	1bd2      	subs	r2, r2, r7
100088c0:	4249      	negs	r1, r1
100088c2:	1a57      	subs	r7, r2, r1
100088c4:	4698      	mov	r8, r3
100088c6:	e535      	b.n	10008334 <__aeabi_dsub+0x64>
100088c8:	1c10      	adds	r0, r2, #0
100088ca:	9901      	ldr	r1, [sp, #4]
100088cc:	4308      	orrs	r0, r1
100088ce:	d034      	beq.n	1000893a <__aeabi_dsub+0x66a>
100088d0:	2480      	movs	r4, #128	; 0x80
100088d2:	0778      	lsls	r0, r7, #29
100088d4:	08ed      	lsrs	r5, r5, #3
100088d6:	08ff      	lsrs	r7, r7, #3
100088d8:	0324      	lsls	r4, r4, #12
100088da:	4328      	orrs	r0, r5
100088dc:	4227      	tst	r7, r4
100088de:	d008      	beq.n	100088f2 <__aeabi_dsub+0x622>
100088e0:	08d6      	lsrs	r6, r2, #3
100088e2:	4226      	tst	r6, r4
100088e4:	d105      	bne.n	100088f2 <__aeabi_dsub+0x622>
100088e6:	08c9      	lsrs	r1, r1, #3
100088e8:	0752      	lsls	r2, r2, #29
100088ea:	430a      	orrs	r2, r1
100088ec:	1c10      	adds	r0, r2, #0
100088ee:	1c37      	adds	r7, r6, #0
100088f0:	4698      	mov	r8, r3
100088f2:	00ff      	lsls	r7, r7, #3
100088f4:	0f42      	lsrs	r2, r0, #29
100088f6:	4317      	orrs	r7, r2
100088f8:	00c5      	lsls	r5, r0, #3
100088fa:	4c24      	ldr	r4, [pc, #144]	; (1000898c <__aeabi_dsub+0x6bc>)
100088fc:	e51a      	b.n	10008334 <__aeabi_dsub+0x64>
100088fe:	4c23      	ldr	r4, [pc, #140]	; (1000898c <__aeabi_dsub+0x6bc>)
10008900:	42a0      	cmp	r0, r4
10008902:	d1a2      	bne.n	1000884a <__aeabi_dsub+0x57a>
10008904:	1c17      	adds	r7, r2, #0
10008906:	9d01      	ldr	r5, [sp, #4]
10008908:	1c04      	adds	r4, r0, #0
1000890a:	e513      	b.n	10008334 <__aeabi_dsub+0x64>
1000890c:	2b00      	cmp	r3, #0
1000890e:	d035      	beq.n	1000897c <__aeabi_dsub+0x6ac>
10008910:	1c13      	adds	r3, r2, #0
10008912:	9901      	ldr	r1, [sp, #4]
10008914:	430b      	orrs	r3, r1
10008916:	d010      	beq.n	1000893a <__aeabi_dsub+0x66a>
10008918:	2480      	movs	r4, #128	; 0x80
1000891a:	0778      	lsls	r0, r7, #29
1000891c:	08ed      	lsrs	r5, r5, #3
1000891e:	08ff      	lsrs	r7, r7, #3
10008920:	0324      	lsls	r4, r4, #12
10008922:	4328      	orrs	r0, r5
10008924:	4227      	tst	r7, r4
10008926:	d0e4      	beq.n	100088f2 <__aeabi_dsub+0x622>
10008928:	08d3      	lsrs	r3, r2, #3
1000892a:	4223      	tst	r3, r4
1000892c:	d1e1      	bne.n	100088f2 <__aeabi_dsub+0x622>
1000892e:	08c9      	lsrs	r1, r1, #3
10008930:	0752      	lsls	r2, r2, #29
10008932:	430a      	orrs	r2, r1
10008934:	1c10      	adds	r0, r2, #0
10008936:	1c1f      	adds	r7, r3, #0
10008938:	e7db      	b.n	100088f2 <__aeabi_dsub+0x622>
1000893a:	4c14      	ldr	r4, [pc, #80]	; (1000898c <__aeabi_dsub+0x6bc>)
1000893c:	e4fa      	b.n	10008334 <__aeabi_dsub+0x64>
1000893e:	2200      	movs	r2, #0
10008940:	e73f      	b.n	100087c2 <__aeabi_dsub+0x4f2>
10008942:	464c      	mov	r4, r9
10008944:	1c3e      	adds	r6, r7, #0
10008946:	3c20      	subs	r4, #32
10008948:	40e6      	lsrs	r6, r4
1000894a:	4649      	mov	r1, r9
1000894c:	1c34      	adds	r4, r6, #0
1000894e:	2920      	cmp	r1, #32
10008950:	d032      	beq.n	100089b8 <__aeabi_dsub+0x6e8>
10008952:	2640      	movs	r6, #64	; 0x40
10008954:	1a76      	subs	r6, r6, r1
10008956:	40b7      	lsls	r7, r6
10008958:	433d      	orrs	r5, r7
1000895a:	1e6f      	subs	r7, r5, #1
1000895c:	41bd      	sbcs	r5, r7
1000895e:	2700      	movs	r7, #0
10008960:	4325      	orrs	r5, r4
10008962:	e6a8      	b.n	100086b6 <__aeabi_dsub+0x3e6>
10008964:	2780      	movs	r7, #128	; 0x80
10008966:	2600      	movs	r6, #0
10008968:	03ff      	lsls	r7, r7, #15
1000896a:	4c08      	ldr	r4, [pc, #32]	; (1000898c <__aeabi_dsub+0x6bc>)
1000896c:	2500      	movs	r5, #0
1000896e:	e57c      	b.n	1000846a <__aeabi_dsub+0x19a>
10008970:	433d      	orrs	r5, r7
10008972:	1e6f      	subs	r7, r5, #1
10008974:	41bd      	sbcs	r5, r7
10008976:	2700      	movs	r7, #0
10008978:	b2ed      	uxtb	r5, r5
1000897a:	e783      	b.n	10008884 <__aeabi_dsub+0x5b4>
1000897c:	1c17      	adds	r7, r2, #0
1000897e:	9d01      	ldr	r5, [sp, #4]
10008980:	4c02      	ldr	r4, [pc, #8]	; (1000898c <__aeabi_dsub+0x6bc>)
10008982:	e4d7      	b.n	10008334 <__aeabi_dsub+0x64>
10008984:	1c17      	adds	r7, r2, #0
10008986:	9d01      	ldr	r5, [sp, #4]
10008988:	e4d4      	b.n	10008334 <__aeabi_dsub+0x64>
1000898a:	46c0      	nop			; (mov r8, r8)
1000898c:	000007ff 	.word	0x000007ff
10008990:	ff7fffff 	.word	0xff7fffff
10008994:	4654      	mov	r4, sl
10008996:	1c3b      	adds	r3, r7, #0
10008998:	3c20      	subs	r4, #32
1000899a:	40e3      	lsrs	r3, r4
1000899c:	1c1c      	adds	r4, r3, #0
1000899e:	4653      	mov	r3, sl
100089a0:	2b20      	cmp	r3, #32
100089a2:	d00d      	beq.n	100089c0 <__aeabi_dsub+0x6f0>
100089a4:	2340      	movs	r3, #64	; 0x40
100089a6:	4651      	mov	r1, sl
100089a8:	1a5b      	subs	r3, r3, r1
100089aa:	409f      	lsls	r7, r3
100089ac:	433d      	orrs	r5, r7
100089ae:	1e6f      	subs	r7, r5, #1
100089b0:	41bd      	sbcs	r5, r7
100089b2:	2700      	movs	r7, #0
100089b4:	4325      	orrs	r5, r4
100089b6:	e765      	b.n	10008884 <__aeabi_dsub+0x5b4>
100089b8:	2700      	movs	r7, #0
100089ba:	e7cd      	b.n	10008958 <__aeabi_dsub+0x688>
100089bc:	1c0d      	adds	r5, r1, #0
100089be:	e5c8      	b.n	10008552 <__aeabi_dsub+0x282>
100089c0:	2700      	movs	r7, #0
100089c2:	e7f3      	b.n	100089ac <__aeabi_dsub+0x6dc>

100089c4 <__aeabi_d2iz>:
100089c4:	030b      	lsls	r3, r1, #12
100089c6:	b530      	push	{r4, r5, lr}
100089c8:	4c13      	ldr	r4, [pc, #76]	; (10008a18 <__aeabi_d2iz+0x54>)
100089ca:	0b1a      	lsrs	r2, r3, #12
100089cc:	004b      	lsls	r3, r1, #1
100089ce:	1c05      	adds	r5, r0, #0
100089d0:	0d5b      	lsrs	r3, r3, #21
100089d2:	0fc9      	lsrs	r1, r1, #31
100089d4:	2000      	movs	r0, #0
100089d6:	42a3      	cmp	r3, r4
100089d8:	dd10      	ble.n	100089fc <__aeabi_d2iz+0x38>
100089da:	4810      	ldr	r0, [pc, #64]	; (10008a1c <__aeabi_d2iz+0x58>)
100089dc:	4283      	cmp	r3, r0
100089de:	dc0e      	bgt.n	100089fe <__aeabi_d2iz+0x3a>
100089e0:	2080      	movs	r0, #128	; 0x80
100089e2:	4c0f      	ldr	r4, [pc, #60]	; (10008a20 <__aeabi_d2iz+0x5c>)
100089e4:	0340      	lsls	r0, r0, #13
100089e6:	4302      	orrs	r2, r0
100089e8:	1ae4      	subs	r4, r4, r3
100089ea:	2c1f      	cmp	r4, #31
100089ec:	dd0a      	ble.n	10008a04 <__aeabi_d2iz+0x40>
100089ee:	480d      	ldr	r0, [pc, #52]	; (10008a24 <__aeabi_d2iz+0x60>)
100089f0:	1ac3      	subs	r3, r0, r3
100089f2:	40da      	lsrs	r2, r3
100089f4:	1c13      	adds	r3, r2, #0
100089f6:	4248      	negs	r0, r1
100089f8:	4043      	eors	r3, r0
100089fa:	1858      	adds	r0, r3, r1
100089fc:	bd30      	pop	{r4, r5, pc}
100089fe:	4b0a      	ldr	r3, [pc, #40]	; (10008a28 <__aeabi_d2iz+0x64>)
10008a00:	18c8      	adds	r0, r1, r3
10008a02:	e7fb      	b.n	100089fc <__aeabi_d2iz+0x38>
10008a04:	1c28      	adds	r0, r5, #0
10008a06:	40e0      	lsrs	r0, r4
10008a08:	4c08      	ldr	r4, [pc, #32]	; (10008a2c <__aeabi_d2iz+0x68>)
10008a0a:	46a4      	mov	ip, r4
10008a0c:	4463      	add	r3, ip
10008a0e:	409a      	lsls	r2, r3
10008a10:	1c13      	adds	r3, r2, #0
10008a12:	4303      	orrs	r3, r0
10008a14:	e7ef      	b.n	100089f6 <__aeabi_d2iz+0x32>
10008a16:	46c0      	nop			; (mov r8, r8)
10008a18:	000003fe 	.word	0x000003fe
10008a1c:	0000041d 	.word	0x0000041d
10008a20:	00000433 	.word	0x00000433
10008a24:	00000413 	.word	0x00000413
10008a28:	7fffffff 	.word	0x7fffffff
10008a2c:	fffffbed 	.word	0xfffffbed

10008a30 <__aeabi_i2d>:
10008a30:	b538      	push	{r3, r4, r5, lr}
10008a32:	1e04      	subs	r4, r0, #0
10008a34:	d016      	beq.n	10008a64 <__aeabi_i2d+0x34>
10008a36:	0fc5      	lsrs	r5, r0, #31
10008a38:	d000      	beq.n	10008a3c <__aeabi_i2d+0xc>
10008a3a:	4244      	negs	r4, r0
10008a3c:	1c20      	adds	r0, r4, #0
10008a3e:	f7fa fbff 	bl	10003240 <__clzsi2>
10008a42:	4b17      	ldr	r3, [pc, #92]	; (10008aa0 <__aeabi_i2d+0x70>)
10008a44:	1a1b      	subs	r3, r3, r0
10008a46:	280a      	cmp	r0, #10
10008a48:	dc21      	bgt.n	10008a8e <__aeabi_i2d+0x5e>
10008a4a:	1c02      	adds	r2, r0, #0
10008a4c:	1c21      	adds	r1, r4, #0
10008a4e:	3215      	adds	r2, #21
10008a50:	4091      	lsls	r1, r2
10008a52:	1c0a      	adds	r2, r1, #0
10008a54:	210b      	movs	r1, #11
10008a56:	1a08      	subs	r0, r1, r0
10008a58:	40c4      	lsrs	r4, r0
10008a5a:	055b      	lsls	r3, r3, #21
10008a5c:	0324      	lsls	r4, r4, #12
10008a5e:	0b24      	lsrs	r4, r4, #12
10008a60:	0d5b      	lsrs	r3, r3, #21
10008a62:	e003      	b.n	10008a6c <__aeabi_i2d+0x3c>
10008a64:	2500      	movs	r5, #0
10008a66:	2300      	movs	r3, #0
10008a68:	2400      	movs	r4, #0
10008a6a:	2200      	movs	r2, #0
10008a6c:	2100      	movs	r1, #0
10008a6e:	1c10      	adds	r0, r2, #0
10008a70:	0324      	lsls	r4, r4, #12
10008a72:	0d0a      	lsrs	r2, r1, #20
10008a74:	0512      	lsls	r2, r2, #20
10008a76:	0b24      	lsrs	r4, r4, #12
10008a78:	4314      	orrs	r4, r2
10008a7a:	4a0a      	ldr	r2, [pc, #40]	; (10008aa4 <__aeabi_i2d+0x74>)
10008a7c:	051b      	lsls	r3, r3, #20
10008a7e:	4014      	ands	r4, r2
10008a80:	431c      	orrs	r4, r3
10008a82:	0064      	lsls	r4, r4, #1
10008a84:	07ed      	lsls	r5, r5, #31
10008a86:	0864      	lsrs	r4, r4, #1
10008a88:	432c      	orrs	r4, r5
10008a8a:	1c21      	adds	r1, r4, #0
10008a8c:	bd38      	pop	{r3, r4, r5, pc}
10008a8e:	380b      	subs	r0, #11
10008a90:	4084      	lsls	r4, r0
10008a92:	055b      	lsls	r3, r3, #21
10008a94:	0324      	lsls	r4, r4, #12
10008a96:	0b24      	lsrs	r4, r4, #12
10008a98:	0d5b      	lsrs	r3, r3, #21
10008a9a:	2200      	movs	r2, #0
10008a9c:	e7e6      	b.n	10008a6c <__aeabi_i2d+0x3c>
10008a9e:	46c0      	nop			; (mov r8, r8)
10008aa0:	0000041e 	.word	0x0000041e
10008aa4:	800fffff 	.word	0x800fffff

10008aa8 <__aeabi_ui2d>:
10008aa8:	b510      	push	{r4, lr}
10008aaa:	1e04      	subs	r4, r0, #0
10008aac:	d010      	beq.n	10008ad0 <__aeabi_ui2d+0x28>
10008aae:	f7fa fbc7 	bl	10003240 <__clzsi2>
10008ab2:	4a14      	ldr	r2, [pc, #80]	; (10008b04 <__aeabi_ui2d+0x5c>)
10008ab4:	1a12      	subs	r2, r2, r0
10008ab6:	280a      	cmp	r0, #10
10008ab8:	dc1a      	bgt.n	10008af0 <__aeabi_ui2d+0x48>
10008aba:	230b      	movs	r3, #11
10008abc:	1c21      	adds	r1, r4, #0
10008abe:	1a1b      	subs	r3, r3, r0
10008ac0:	40d9      	lsrs	r1, r3
10008ac2:	3015      	adds	r0, #21
10008ac4:	030b      	lsls	r3, r1, #12
10008ac6:	0552      	lsls	r2, r2, #21
10008ac8:	4084      	lsls	r4, r0
10008aca:	0b1b      	lsrs	r3, r3, #12
10008acc:	0d52      	lsrs	r2, r2, #21
10008ace:	e001      	b.n	10008ad4 <__aeabi_ui2d+0x2c>
10008ad0:	2200      	movs	r2, #0
10008ad2:	2300      	movs	r3, #0
10008ad4:	2100      	movs	r1, #0
10008ad6:	031b      	lsls	r3, r3, #12
10008ad8:	1c20      	adds	r0, r4, #0
10008ada:	0b1c      	lsrs	r4, r3, #12
10008adc:	0d0b      	lsrs	r3, r1, #20
10008ade:	051b      	lsls	r3, r3, #20
10008ae0:	4323      	orrs	r3, r4
10008ae2:	4c09      	ldr	r4, [pc, #36]	; (10008b08 <__aeabi_ui2d+0x60>)
10008ae4:	0512      	lsls	r2, r2, #20
10008ae6:	4023      	ands	r3, r4
10008ae8:	4313      	orrs	r3, r2
10008aea:	005b      	lsls	r3, r3, #1
10008aec:	0859      	lsrs	r1, r3, #1
10008aee:	bd10      	pop	{r4, pc}
10008af0:	1c03      	adds	r3, r0, #0
10008af2:	3b0b      	subs	r3, #11
10008af4:	409c      	lsls	r4, r3
10008af6:	0552      	lsls	r2, r2, #21
10008af8:	0323      	lsls	r3, r4, #12
10008afa:	0b1b      	lsrs	r3, r3, #12
10008afc:	0d52      	lsrs	r2, r2, #21
10008afe:	2400      	movs	r4, #0
10008b00:	e7e8      	b.n	10008ad4 <__aeabi_ui2d+0x2c>
10008b02:	46c0      	nop			; (mov r8, r8)
10008b04:	0000041e 	.word	0x0000041e
10008b08:	800fffff 	.word	0x800fffff

10008b0c <__aeabi_d2f>:
10008b0c:	b570      	push	{r4, r5, r6, lr}
10008b0e:	030b      	lsls	r3, r1, #12
10008b10:	004d      	lsls	r5, r1, #1
10008b12:	0f44      	lsrs	r4, r0, #29
10008b14:	0d6d      	lsrs	r5, r5, #21
10008b16:	0a5b      	lsrs	r3, r3, #9
10008b18:	4323      	orrs	r3, r4
10008b1a:	1c6c      	adds	r4, r5, #1
10008b1c:	0564      	lsls	r4, r4, #21
10008b1e:	0fc9      	lsrs	r1, r1, #31
10008b20:	00c2      	lsls	r2, r0, #3
10008b22:	0d64      	lsrs	r4, r4, #21
10008b24:	2c01      	cmp	r4, #1
10008b26:	dd2a      	ble.n	10008b7e <__aeabi_d2f+0x72>
10008b28:	4c3b      	ldr	r4, [pc, #236]	; (10008c18 <__aeabi_d2f+0x10c>)
10008b2a:	192c      	adds	r4, r5, r4
10008b2c:	2cfe      	cmp	r4, #254	; 0xfe
10008b2e:	dc1a      	bgt.n	10008b66 <__aeabi_d2f+0x5a>
10008b30:	2c00      	cmp	r4, #0
10008b32:	dd35      	ble.n	10008ba0 <__aeabi_d2f+0x94>
10008b34:	0180      	lsls	r0, r0, #6
10008b36:	1e45      	subs	r5, r0, #1
10008b38:	41a8      	sbcs	r0, r5
10008b3a:	00db      	lsls	r3, r3, #3
10008b3c:	4303      	orrs	r3, r0
10008b3e:	0f52      	lsrs	r2, r2, #29
10008b40:	4313      	orrs	r3, r2
10008b42:	075a      	lsls	r2, r3, #29
10008b44:	d004      	beq.n	10008b50 <__aeabi_d2f+0x44>
10008b46:	220f      	movs	r2, #15
10008b48:	401a      	ands	r2, r3
10008b4a:	2a04      	cmp	r2, #4
10008b4c:	d000      	beq.n	10008b50 <__aeabi_d2f+0x44>
10008b4e:	3304      	adds	r3, #4
10008b50:	2280      	movs	r2, #128	; 0x80
10008b52:	04d2      	lsls	r2, r2, #19
10008b54:	401a      	ands	r2, r3
10008b56:	d027      	beq.n	10008ba8 <__aeabi_d2f+0x9c>
10008b58:	3401      	adds	r4, #1
10008b5a:	2cff      	cmp	r4, #255	; 0xff
10008b5c:	d003      	beq.n	10008b66 <__aeabi_d2f+0x5a>
10008b5e:	019b      	lsls	r3, r3, #6
10008b60:	0a5b      	lsrs	r3, r3, #9
10008b62:	b2e4      	uxtb	r4, r4
10008b64:	e001      	b.n	10008b6a <__aeabi_d2f+0x5e>
10008b66:	24ff      	movs	r4, #255	; 0xff
10008b68:	2300      	movs	r3, #0
10008b6a:	025b      	lsls	r3, r3, #9
10008b6c:	05e4      	lsls	r4, r4, #23
10008b6e:	0a5b      	lsrs	r3, r3, #9
10008b70:	4323      	orrs	r3, r4
10008b72:	005b      	lsls	r3, r3, #1
10008b74:	07c9      	lsls	r1, r1, #31
10008b76:	085b      	lsrs	r3, r3, #1
10008b78:	430b      	orrs	r3, r1
10008b7a:	1c18      	adds	r0, r3, #0
10008b7c:	bd70      	pop	{r4, r5, r6, pc}
10008b7e:	2d00      	cmp	r5, #0
10008b80:	d106      	bne.n	10008b90 <__aeabi_d2f+0x84>
10008b82:	4313      	orrs	r3, r2
10008b84:	d10e      	bne.n	10008ba4 <__aeabi_d2f+0x98>
10008b86:	2400      	movs	r4, #0
10008b88:	025b      	lsls	r3, r3, #9
10008b8a:	0a5b      	lsrs	r3, r3, #9
10008b8c:	b2e4      	uxtb	r4, r4
10008b8e:	e7ec      	b.n	10008b6a <__aeabi_d2f+0x5e>
10008b90:	431a      	orrs	r2, r3
10008b92:	d0e8      	beq.n	10008b66 <__aeabi_d2f+0x5a>
10008b94:	2080      	movs	r0, #128	; 0x80
10008b96:	00db      	lsls	r3, r3, #3
10008b98:	0480      	lsls	r0, r0, #18
10008b9a:	4303      	orrs	r3, r0
10008b9c:	24ff      	movs	r4, #255	; 0xff
10008b9e:	e7d0      	b.n	10008b42 <__aeabi_d2f+0x36>
10008ba0:	3417      	adds	r4, #23
10008ba2:	da0c      	bge.n	10008bbe <__aeabi_d2f+0xb2>
10008ba4:	2305      	movs	r3, #5
10008ba6:	2400      	movs	r4, #0
10008ba8:	08db      	lsrs	r3, r3, #3
10008baa:	2cff      	cmp	r4, #255	; 0xff
10008bac:	d1ec      	bne.n	10008b88 <__aeabi_d2f+0x7c>
10008bae:	2b00      	cmp	r3, #0
10008bb0:	d02d      	beq.n	10008c0e <__aeabi_d2f+0x102>
10008bb2:	2280      	movs	r2, #128	; 0x80
10008bb4:	03d2      	lsls	r2, r2, #15
10008bb6:	4313      	orrs	r3, r2
10008bb8:	025b      	lsls	r3, r3, #9
10008bba:	0a5b      	lsrs	r3, r3, #9
10008bbc:	e7d5      	b.n	10008b6a <__aeabi_d2f+0x5e>
10008bbe:	2480      	movs	r4, #128	; 0x80
10008bc0:	4816      	ldr	r0, [pc, #88]	; (10008c1c <__aeabi_d2f+0x110>)
10008bc2:	0424      	lsls	r4, r4, #16
10008bc4:	4323      	orrs	r3, r4
10008bc6:	1b40      	subs	r0, r0, r5
10008bc8:	281f      	cmp	r0, #31
10008bca:	dc0d      	bgt.n	10008be8 <__aeabi_d2f+0xdc>
10008bcc:	4c14      	ldr	r4, [pc, #80]	; (10008c20 <__aeabi_d2f+0x114>)
10008bce:	46a4      	mov	ip, r4
10008bd0:	4465      	add	r5, ip
10008bd2:	40ab      	lsls	r3, r5
10008bd4:	1c1c      	adds	r4, r3, #0
10008bd6:	1c13      	adds	r3, r2, #0
10008bd8:	40ab      	lsls	r3, r5
10008bda:	1e5d      	subs	r5, r3, #1
10008bdc:	41ab      	sbcs	r3, r5
10008bde:	40c2      	lsrs	r2, r0
10008be0:	4323      	orrs	r3, r4
10008be2:	4313      	orrs	r3, r2
10008be4:	2400      	movs	r4, #0
10008be6:	e7ac      	b.n	10008b42 <__aeabi_d2f+0x36>
10008be8:	1c1e      	adds	r6, r3, #0
10008bea:	4c0e      	ldr	r4, [pc, #56]	; (10008c24 <__aeabi_d2f+0x118>)
10008bec:	1b64      	subs	r4, r4, r5
10008bee:	40e6      	lsrs	r6, r4
10008bf0:	1c34      	adds	r4, r6, #0
10008bf2:	2820      	cmp	r0, #32
10008bf4:	d00d      	beq.n	10008c12 <__aeabi_d2f+0x106>
10008bf6:	480c      	ldr	r0, [pc, #48]	; (10008c28 <__aeabi_d2f+0x11c>)
10008bf8:	4684      	mov	ip, r0
10008bfa:	4465      	add	r5, ip
10008bfc:	40ab      	lsls	r3, r5
10008bfe:	1c1d      	adds	r5, r3, #0
10008c00:	432a      	orrs	r2, r5
10008c02:	1e53      	subs	r3, r2, #1
10008c04:	419a      	sbcs	r2, r3
10008c06:	1c13      	adds	r3, r2, #0
10008c08:	4323      	orrs	r3, r4
10008c0a:	2400      	movs	r4, #0
10008c0c:	e799      	b.n	10008b42 <__aeabi_d2f+0x36>
10008c0e:	2300      	movs	r3, #0
10008c10:	e7ab      	b.n	10008b6a <__aeabi_d2f+0x5e>
10008c12:	2500      	movs	r5, #0
10008c14:	e7f4      	b.n	10008c00 <__aeabi_d2f+0xf4>
10008c16:	46c0      	nop			; (mov r8, r8)
10008c18:	fffffc80 	.word	0xfffffc80
10008c1c:	0000039e 	.word	0x0000039e
10008c20:	fffffc82 	.word	0xfffffc82
10008c24:	0000037e 	.word	0x0000037e
10008c28:	fffffca2 	.word	0xfffffca2
10008c2c:	00000000 	.word	0x00000000

10008c30 <__PMSM_FOC_MSM_veneer>:
10008c30:	b401      	push	{r0}
10008c32:	4802      	ldr	r0, [pc, #8]	; (10008c3c <__PMSM_FOC_MSM_veneer+0xc>)
10008c34:	4684      	mov	ip, r0
10008c36:	bc01      	pop	{r0}
10008c38:	4760      	bx	ip
10008c3a:	bf00      	nop
10008c3c:	20000f0d 	.word	0x20000f0d

10008c40 <CSWTCH.34>:
10008c40:	02020000 00000000 0c0c0a08              ............

10008c4c <CSWTCH.35>:
10008c4c:	00030003 000c000c 00000000 00000000     ................
10008c5c:	0c000300 30003000                       .....0.0

10008c64 <UART_0_config>:
10008c64:	10008cb0 10001d7d 00000000 00000000     ....}...........
	...
10008c88:	10008c9c 04000000 00000104              ............

10008c94 <UART_0_rx_pin_config>:
10008c94:	00000000 00000001                       ........

10008c9c <UART_0_tx_pin>:
10008c9c:	40040000 00000007 10008ca8              ...@........

10008ca8 <UART_0_tx_pin_config>:
10008ca8:	000000b8 00000001                       ........

10008cb0 <UART_0_channel_config>:
10008cb0:	00004b00 01080800 00000010              .K..........

10008cbc <PWM_SVM_0_PhVLoOutPinConf>:
10008cbc:	000000b8 00010000                       ........

10008cc4 <PWM_SVM_0_PhUHiOutPinConf>:
10008cc4:	000000a8 00010000                       ........

10008ccc <PWM_SVM_0_TimerInit_CurrentTrig>:
10008ccc:	20000001 0000000f 00000000 00000000     ... ............

10008cdc <PWM_SVM_0_PhWHighPin>:
10008cdc:	40040000 00000008                       ...@....

10008ce4 <PWM_SVM_0_PhWLowPin>:
10008ce4:	40040000 00000009                       ...@....

10008cec <PWM_SVM_0_PhU>:
10008cec:	50000100 00000000                       ...P....

10008cf4 <PWM_SVM_0_PhV>:
10008cf4:	50000200 00000001                       ...P....

10008cfc <PWM_SVM_0_PhW>:
10008cfc:	50000300 00000002                       ...P....

10008d04 <PWM_SVM_0_PhWHiOutPinConf>:
10008d04:	000000a8 00010000                       ........

10008d0c <PWM_SVM_0_AppConfig>:
10008d0c:	5000023c 5000033c 01000000 01000000     <..P<..P........
10008d1c:	01000002 00010101 00004e20 03d09000     ........ N......
10008d2c:	00000100 00001111 00001000 00000001     ................
10008d3c:	00000000 00000002 01e84800 000003d0     .........H......
10008d4c:	00630000 01000101 00000000              ..c.........

10008d58 <PWM_SVM_0_PhULoOutPinConf>:
10008d58:	000000a8 00010000                       ........

10008d60 <PWM_SVM_0_PhVHighPin>:
10008d60:	40040000 00000002                       ...@....

10008d68 <PWM_SVM_0_TrapConfig>:
10008d68:	00010000                                ....

10008d6c <PWM_SVM_0_CurrentTrig>:
10008d6c:	50000400 00000003                       ...P....

10008d74 <PWM_SVM_0_PhUHighPin>:
10008d74:	40040000 00000000                       ...@....

10008d7c <PWM_SVM_0_InvPinConf>:
10008d7c:	00000080 00010000                       ........

10008d84 <PWM_SVM_0_PhWLoOutPinConf>:
10008d84:	000000a8 00010000                       ........

10008d8c <PWM_SVM_0_TimerInitHandle>:
10008d8c:	00000001 0000000f 00000014 00000000     ................

10008d9c <PWM_SVM_0_PhULowPin>:
10008d9c:	40040000 00000001                       ...@....

10008da4 <PWM_SVM_0_TrapPinConf>:
10008da4:	00000000 00010000                       ........

10008dac <PWM_SVM_0_InverterPin>:
10008dac:	40040100 00000004                       ...@....

10008db4 <PWM_SVM_0_PhVHiOutPinConf>:
10008db4:	000000b8 00010000                       ........

10008dbc <PWM_SVM_0_TrapPin>:
10008dbc:	40040000 0000000c                       ...@....

10008dc4 <PWM_SVM_0_PhVLowPin>:
10008dc4:	40040000 00000003                       ...@....

10008dcc <PWM_SVM_0_StartConfig>:
10008dcc:	00000107                                ....

10008dd0 <Sinus60_tab>:
10008dd0:	00210000 00640043 00a70086 00ea00c9     ..!.C.d.........
10008de0:	012d010c 0170014f 01b30192 01f601d5     ..-.O.p.........
10008df0:	02390218 027c025b 02bf029e 030202e1     ..9.[.|.........
10008e00:	03450324 03880367 03cb03aa 040e03ed     $.E.g...........
10008e10:	04510430 04940473 04d704b6 051a04f9     0.Q.s...........
10008e20:	055d053b 05a0057e 05e305c1 06260604     ;.].~.........&.
10008e30:	06690647 06ac068a 06ef06cd 07320710     G.i...........2.
10008e40:	07740753 07b70796 07fa07d9 083d081c     S.t...........=.
10008e50:	0880085f 08c308a1 090608e4 09490927     _...........'.I.
10008e60:	098b096a 09ce09ad 0a1109f0 0a540a32     j...........2.T.
10008e70:	0a970a75 0ad90ab8 0b1c0afb 0b5f0b3e     u...........>._.
10008e80:	0ba20b80 0be40bc3 0c270c06 0c6a0c49     ..........'.I.j.
10008e90:	0cad0c8b 0cef0cce 0d320d11 0d750d53     ..........2.S.u.
10008ea0:	0db70d96 0dfa0dd9 0e3c0e1b 0e7f0e5e     ..........<.^...
10008eb0:	0ec20ea0 0f040ee3 0f470f25 0f890f68     ........%.G.h...
10008ec0:	0fcc0fab 100e0fed 10511030 10931072     ........0.Q.r...
10008ed0:	10d610b4 111810f7 115b1139 119d117c     ........9.[.|...
10008ee0:	11df11be 12221200 12641243 12a61285     ......".C.d.....
10008ef0:	12e912c7 132b130a 136d134c 13af138e     ......+.L.m.....
10008f00:	13f213d0 14341413 14761455 14b81497     ......4.U.v.....
10008f10:	14fa14d9 153c151b 157e155d 15c0159f     ......<.].~.....
10008f20:	160215e1 16441623 16861665 16c816a7     ....#.D.e.......
10008f30:	170a16e9 174c172b 178e176d 17d017af     ....+.L.m.......
10008f40:	181217f1 18541833 18951875 18d718b6     ....3.T.u.......
10008f50:	191918f8 195b193a 199c197b 19de19bd     ....:.[.{.......
10008f60:	1a2019ff 1a611a40 1aa31a82 1ae41ac3     .. .@.a.........
10008f70:	1b261b05 1b671b46 1ba91b88 1bea1bc9     ..&.F.g.........
10008f80:	1c2b1c0b 1c6d1c4c 1cae1c8e 1cef1ccf     ..+.L.m.........
10008f90:	1d311d10 1d721d51 1db31d93 1df41dd4     ..1.Q.r.........
10008fa0:	1e351e15 1e771e56 1eb81e97 1ef91ed8     ..5.V.w.........
10008fb0:	1f3a1f19 1f7b1f5a 1fbc1f9b 1ffd1fdc     ..:.Z.{.........
10008fc0:	203d201d 207e205e 20bf209f 210020df     . = ^ ~ . . . .!
10008fd0:	21412120 21812161 21c221a2 220321e2      !A!a!.!.!.!.!."
10008fe0:	22432223 22842263 22c422a4 230522e4     #"C"c".".".".".#
10008ff0:	23452325 23862365 23c623a6 240623e6     %#E#e#.#.#.#.#.$
10009000:	24472426 24872467 24c724a7 250724e7     &$G$g$.$.$.$.$.%
10009010:	25472527 25872567 25c725a7 260725e7     '%G%g%.%.%.%.%.&
10009020:	26472627 26872667 26c726a7 270726e7     '&G&g&.&.&.&.&.'
10009030:	27472727 27872767 27c627a7 280627e6     ''G'g'.'.'.'.'.(
10009040:	28462826 28852866 28c528a5 290428e5     &(F(f(.(.(.(.(.)
10009050:	29442924 29832964 29c329a3 2a0229e2     $)D)d).).).).).*
10009060:	2a412a22 2a802a61 2ac02aa0 2aff2adf     "*A*a*.*.*.*.*.*
10009070:	2b3e2b1e 2b7d2b5d 2bbc2b9c 2bfb2bdb     .+>+]+}+.+.+.+.+
10009080:	2c3a2c1a 2c792c59 2cb82c98 2cf62cd7     .,:,Y,y,.,.,.,.,
10009090:	2d352d16 2d742d54 2db22d93 2df12dd2     .-5-T-t-.-.-.-.-
100090a0:	2e2f2e10 2e6e2e4f 2eac2e8d 2eeb2ecc     ../.O.n.........
100090b0:	2f292f0a 2f672f48 2fa62f86 2fe42fc5     ./)/H/g/././././
100090c0:	30223003 30603041 309e307f 30dc30bd     .0"0A0`0.0.0.0.0
100090d0:	311a30fb 31583139 31963177 31d331b4     .0.191X1w1.1.1.1
100090e0:	321131f2 324f3230 328c326d 32ca32ab     .1.202O2m2.2.2.2
100090f0:	330732e9 33453326 33823363 33bf33a1     .2.3&3E3c3.3.3.3
10009100:	33fd33de 343a341b 34773458 34b43496     .3.3.4:4X4w4.4.4
10009110:	34f134d3 352e3510 356b354d 35a8358a     .4.4.5.5M5k5.5.5
10009120:	35e535c6 36223603 365e3640 369b367d     .5.5.6"6@6^6}6.6
10009130:	36d736b9 371436f6 37503732 378d376f     .6.6.6.727P7o7.7
10009140:	37c937ab 380637e7 38423824 387e3860     .7.7.7.8$8B8`8~8
10009150:	38ba389c 38f638d8 39323914 396e3950     .8.8.8.8.929P9n9
10009160:	39aa398c 39e639c8 3a213a04 3a5d3a3f     .9.9.9.9.:!:?:]:
10009170:	3a993a7b 3ad43ab6 3b103af2 3b4b3b2d     {:.:.:.:.:.;-;K;
10009180:	3b863b69 3bc23ba4 3bfd3bdf 3c383c1b     i;.;.;.;.;.;.<8<
10009190:	3c733c56 3cae3c91 3ce93ccc 3d243d07     V<s<.<.<.<.<.=$=
100091a0:	3d5f3d42 3d9a3d7c 3dd53db7 3e0f3df2     B=_=|=.=.=.=.=.>
100091b0:	3e4a3e2c 3e843e67 3ebf3ea2 3ef93edc     ,>J>g>.>.>.>.>.>
100091c0:	3f333f16 3f6e3f51 3fa83f8b 3fe23fc5     .?3?Q?n?.?.?.?.?
100091d0:	401c3fff 40564039 40904073 40ca40ad     .?.@9@V@s@.@.@.@
100091e0:	410340e7 413d4120 4177415a 41b04194     .@.A A=AZAwA.A.A
100091f0:	41ea41cd 42234207 425d4240 42964279     .A.A.B#B@B]ByB.B
10009200:	42cf42b2 430842ec 43414325 437a435e     .B.B.B.C%CAC^CzC
10009210:	43b34397 43ec43d0 44254408 445d4441     .C.C.C.C.D%DAD]D
10009220:	4496447a 44cf44b2 450744eb 453f4523     zD.D.D.D.D.E#E?E
10009230:	4578455c 45b04594 45e845cc 46204604     \ExE.E.E.E.E.F F
10009240:	4658463c 46904674 46c846ac 470046e4     <FXFtF.F.F.F.F.G
10009250:	4738471c 476f4754 47a7478b 47de47c3     .G8GTGoG.G.G.G.G
10009260:	481647fa 484d4832 48844869 48bc48a0     .G.H2HMHiH.H.H.H
10009270:	48f348d7 492a490e 49614945 4998497c     .H.H.I*IEIaI|I.I
10009280:	49ce49b3 4a0549ea 4a3c4a20 4a724a57     .I.I.I.J J<JWJrJ
10009290:	4aa94a8e 4adf4ac4 4b154afa 4b4c4b31     .J.J.J.J.J.K1KLK
100092a0:	4b824b67 4bb84b9d 4bee4bd3 4c244c09     gK.K.K.K.K.K.L$L
100092b0:	4c5a4c3f 4c8f4c75 4cc54caa 4cfb4ce0     ?LZLuL.L.L.L.L.L
100092c0:	4d304d15 4d664d4b 4d9b4d80 4dd04db6     .M0MKMfM.M.M.M.M
100092d0:	4e054deb 4e3a4e20 4e6f4e55 4ea44e8a     .M.N N:NUNoN.N.N
100092e0:	4ed94ebf 4f0e4ef4 4f434f28 4f774f5d     .N.N.N.O(OCO]OwO
100092f0:	4fac4f91 4fe04fc6 50144ffa 5049502f     .O.O.O.O.O.P/PIP
10009300:	507d5063 50b15097 50e550cb 511950ff     cP}P.P.P.P.P.P.Q
10009310:	514d5133 51805166 51b4519a 51e751ce     3QMQfQ.Q.Q.Q.Q.Q
10009320:	521b5201 524e5235 52825268 52b5529b     .R.R5RNRhR.R.R.R
10009330:	52e852ce 531b5301 534e5334 53815367     .R.R.S.S4SNSgS.S
10009340:	53b3539a 53e653cd 541953ff 544b5432     .S.S.S.S.S.T2TKT
10009350:	547d5464 54b05497 54e254c9 551454fb     dT}T.T.T.T.T.T.U
10009360:	5546552d 5578555f 55aa5591 55dc55c3     -UFU_UxU.U.U.U.U
10009370:	560d55f4 563f5626 56705658 56a25689     .U.V&V?VXVpV.V.V
10009380:	56d356ba 570456ec 5735571d 5766574e     .V.V.V.W.W5WNWfW
10009390:	5797577f 57c857b0 57f957e0 58295811     .W.W.W.W.W.W.X)X
100093a0:	585a5842 588a5872 58bb58a3 58eb58d3     BXZXrX.X.X.X.X.X
100093b0:	591b5903 594b5933 597b5963 59ab5993     .Y.Y3YKYcY{Y.Y.Y
100093c0:	59db59c3 5a0a59f3 5a3a5a22 5a6a5a52     .Y.Y.Y.Z"Z:ZRZjZ
100093d0:	5a995a81 5ac85ab1 5af75ae0 5b275b0f     .Z.Z.Z.Z.Z.Z.['[
100093e0:	5b565b3e 5b845b6d 5bb35b9c 5be25bcb     >[V[m[.[.[.[.[.[
100093f0:	5c115bf9 5c3f5c28 5c6d5c56 5c9c5c85     .[.\(\?\V\m\.\.\
10009400:	5cca5cb3 5cf85ce1 5d265d0f 5d545d3d     .\.\.\.\.]&]=]T]
10009410:	5d825d6b 5db05d99 5ddd5dc6 5e0b5df4     k].].].].].].].^
10009420:	5e385e21 5e655e4f 5e935e7c 5ec05ea9     !^8^O^e^|^.^.^.^
10009430:	5eed5ed6 5f1a5f03 5f465f30 5f735f5d     .^.^._._0_F_]_s_
10009440:	5fa05f89 5fcc5fb6 5ff95fe2 6025600f     ._._._._._._.`%`
10009450:	6051603b 607d6067 60a96093 60d560bf     ;`Q`g`}`.`.`.`.`
10009460:	610160eb 612c6117 61586142 6184616e     .`.a.a,aBaXana.a
10009470:	61af6199 61da61c5 620561f0 6230621b     .a.a.a.a.a.b.b0b
10009480:	625b6246 62866271 62b1629b 62db62c6     Fb[bqb.b.b.b.b.b
10009490:	630662f1 6330631b 635b6346 63856370     .b.c.c0cFc[cpc.c
100094a0:	63af639a 63d963c4 640363ee 642d6418     .c.c.c.c.c.d.d-d
100094b0:	64566441 6480646b 64a96495 64d364be     AdVdkd.d.d.d.d.d
100094c0:	64fc64e7 65256510 654e6539 65776562     .d.d.e%e9eNebewe
100094d0:	65a0658b 65c865b4 65f165dd 66196605     .e.e.e.e.e.e.f.f
100094e0:	6642662e 666a6656 6692667e 66ba66a6     .fBfVfjf~f.f.f.f
100094f0:	66e266ce 670a66f6 6732671e 67596745     .f.f.f.g.g2gEgYg
10009500:	6781676d 67a86794 67cf67bc 67f667e3     mg.g.g.g.g.g.g.g
10009510:	681e680a 68446831 686b6858 6892687f     .h.h1hDhXhkh.h.h
10009520:	68b968a5 68df68cc 690568f2 692c6919     .h.h.h.h.h.i.i,i
10009530:	6952693f 69786965 699e698b 69c469b1     ?iRieixi.i.i.i.i
10009540:	69e969d6 6a0f69fc 6a346a22 6a5a6a47     .i.i.i.j"j4jGjZj
10009550:	6a7f6a6c 6aa46a91 6ac96ab6 6aee6adb     lj.j.j.j.j.j.j.j
10009560:	6b136b00 6b376b25 6b5c6b4a 6b806b6e     .k.k%k7kJk\knk.k
10009570:	6ba56b92 6bc96bb7 6bed6bdb 6c116bff     .k.k.k.k.k.k.k.l
10009580:	6c356c23 6c586c47 6c7c6c6a 6ca06c8e     #l5lGlXljl|l.l.l
10009590:	6cc36cb1 6ce66cd5 6d096cf8 6d2c6d1b     .l.l.l.l.l.m.m,m
100095a0:	6d4f6d3e 6d726d61 6d956d84 6db76da6     >mOmamrm.m.m.m.m
100095b0:	6dda6dc9 6dfc6deb 6e1e6e0d 6e416e30     .m.m.m.m.n.n0nAn
100095c0:	6e636e52 6e846e73 6ea66e95 6ec86eb7     Rncnsn.n.n.n.n.n
100095d0:	00006ed9                                .n..

100095d4 <PI_Torque>:
100095d4:	20000664                                d.. 

100095d8 <PMSM_FOC_0_Config>:
100095d8:	0000440b 0001eee5 0001bf5f 0000249e     .D......_....$..
100095e8:	0002afb9 000017d2 0000072e 000002a7     ................
100095f8:	0000001c 0000000b 0000000b 0000005a     ............Z...
10009608:	0000062f 00000c5e 0000009e 00001fff     /...^...........
10009618:	66659998 13010401 00000001              ..ef........

10009624 <PI_Flux>:
10009624:	2000062c                                ,.. 

10009628 <FOCOutput>:
10009628:	20001934                                4.. 

1000962c <FOCInput>:
1000962c:	20000790                                ... 

10009630 <PI_Speed>:
10009630:	2000075c                                \.. 

10009634 <PI_PLL>:
10009634:	200008f0                                ... 

10009638 <group_init_handle0>:
	...

1000964c <group_init_handle1>:
	...

10009660 <global_config>:
	...
10009678:	00000100 00010000 00000000              ............

10009684 <ADC_QUEUE_0_reqsrc_config_0>:
	...

10009694 <ADC_QUEUE_0_init_config_0>:
10009694:	0000000c 00004800 00000004 4e490043     .....H......C.IN
100096a4:	6e690046 414e0066 616e004e 0030006e     F.inf.NAN.nan.0.
100096b4:	33323130 37363534 42413938 46454443     0123456789ABCDEF
100096c4:	32313000 36353433 61393837 65646362     .0123456789abcde
100096d4:	25650066 0000646c                       f.e%ld..

100096dc <fpi.5242>:
100096dc:	00000035 fffffbce 000003cb 00000001     5...............
100096ec:	00000000                                ....

100096f0 <tinytens>:
100096f0:	97d889bc 3c9cd2b2 d5a8a733 3949f623     .......<3...#.I9
10009700:	44f4a73d 32a50ffd cf8c979d 255bba08     =..D...2......[%
10009710:	64ac6f43 11680628                       Co.d(.h.

10009718 <fpinan.5278>:
10009718:	00000034 fffffbce 000003cb 00000001     4...............
10009728:	00000000                                ....

1000972c <_ctype_>:
1000972c:	20202000 20202020 28282020 20282828     .         ((((( 
1000973c:	20202020 20202020 20202020 20202020                     
1000974c:	10108820 10101010 10101010 10101010      ...............
1000975c:	04040410 04040404 10040404 10101010     ................
1000976c:	41411010 41414141 01010101 01010101     ..AAAAAA........
1000977c:	01010101 01010101 01010101 10101010     ................
1000978c:	42421010 42424242 02020202 02020202     ..BBBBBB........
1000979c:	02020202 02020202 02020202 10101010     ................
100097ac:	00000020 00000000 00000000 00000000      ...............
	...
1000982c:	666e4900 74696e69 614e0079 4f50004e     .Infinity.NaN.PO
1000983c:	00584953 0000002e 00000000              SIX.........

10009848 <__mprec_tens>:
10009848:	00000000 3ff00000 00000000 40240000     .......?......$@
10009858:	00000000 40590000 00000000 408f4000     ......Y@.....@.@
10009868:	00000000 40c38800 00000000 40f86a00     .......@.....j.@
10009878:	00000000 412e8480 00000000 416312d0     .......A......cA
10009888:	00000000 4197d784 00000000 41cdcd65     .......A....e..A
10009898:	20000000 4202a05f e8000000 42374876     ... _..B....vH7B
100098a8:	a2000000 426d1a94 e5400000 42a2309c     ......mB..@..0.B
100098b8:	1e900000 42d6bcc4 26340000 430c6bf5     .......B..4&.k.C
100098c8:	37e08000 4341c379 85d8a000 43763457     ...7y.AC....W4vC
100098d8:	674ec800 43abc16d 60913d00 43e158e4     ..Ngm..C.=.`.X.C
100098e8:	78b58c40 4415af1d d6e2ef50 444b1ae4     @..x...DP.....KD
100098f8:	064dd592 4480f0cf c7e14af6 44b52d02     ..M....D.J...-.D
10009908:	79d99db4 44ea7843                       ...yCx.D

10009910 <__mprec_bigtens>:
10009910:	37e08000 4341c379 b5056e17 4693b8b5     ...7y.AC.n.....F
10009920:	e93ff9f5 4d384f03 f9301d32 5a827748     ..?..O8M2.0.Hw.Z
10009930:	7f73bf3c 75154fdd                       <.s..O.u

10009938 <p05.5277>:
10009938:	00000005 00000019 0000007d 2b302d23     ........}...#-0+
10009948:	6c680020 6665004c 47464567 00000000      .hlL.efgEFG....
10009958:	100076f4 100075e2 100076c8 100075ce     .v...u...v...u..
10009968:	100076c8 100076d2 100076c8 100075ce     .v...v...v...u..
10009978:	100075e2 100075e2 100076d2 100075ce     .u...u...v...u..
10009988:	100075d8 100075d8 100075d8 1000793a     .u...u...u..:y..
10009998:	10007f88 10007f66 10007f66 10007f5a     ....f...f...Z...
100099a8:	10007e4e 10007e4e 10007f4e 10007f5a     N~..N~..N...Z...
100099b8:	10007e4e 10007f4e 10007e4e 10007f5a     N~..N...N~..Z...
100099c8:	10007e52 10007e52 10007e52 10008168     R~..R~..R~..h...

Disassembly of section .VENEER_Code:

2000000c <HardFault_Veneer>:
2000000c:	482c      	ldr	r0, [pc, #176]	; (200000c0 <BCCU0_0_Veneer+0x4>)
2000000e:	4687      	mov	pc, r0
	...

2000002c <SVC_Veneer>:
2000002c:	4825      	ldr	r0, [pc, #148]	; (200000c4 <BCCU0_0_Veneer+0x8>)
2000002e:	4687      	mov	pc, r0
	...

20000038 <PendSV_Veneer>:
20000038:	4823      	ldr	r0, [pc, #140]	; (200000c8 <BCCU0_0_Veneer+0xc>)
2000003a:	4687      	mov	pc, r0

2000003c <SysTick_Veneer>:
2000003c:	4823      	ldr	r0, [pc, #140]	; (200000cc <BCCU0_0_Veneer+0x10>)
2000003e:	4687      	mov	pc, r0

20000040 <SCU_0_Veneer>:
20000040:	4823      	ldr	r0, [pc, #140]	; (200000d0 <BCCU0_0_Veneer+0x14>)
20000042:	4687      	mov	pc, r0

20000044 <SCU_1_Veneer>:
20000044:	4823      	ldr	r0, [pc, #140]	; (200000d4 <BCCU0_0_Veneer+0x18>)
20000046:	4687      	mov	pc, r0

20000048 <SCU_2_Veneer>:
20000048:	4823      	ldr	r0, [pc, #140]	; (200000d8 <BCCU0_0_Veneer+0x1c>)
2000004a:	4687      	mov	pc, r0

2000004c <SCU_3_Veneer>:
2000004c:	4823      	ldr	r0, [pc, #140]	; (200000dc <BCCU0_0_Veneer+0x20>)
2000004e:	4687      	mov	pc, r0

20000050 <SCU_4_Veneer>:
20000050:	4823      	ldr	r0, [pc, #140]	; (200000e0 <BCCU0_0_Veneer+0x24>)
20000052:	4687      	mov	pc, r0

20000054 <SCU_5_Veneer>:
20000054:	4823      	ldr	r0, [pc, #140]	; (200000e4 <BCCU0_0_Veneer+0x28>)
20000056:	4687      	mov	pc, r0

20000058 <SCU_6_Veneer>:
20000058:	4823      	ldr	r0, [pc, #140]	; (200000e8 <BCCU0_0_Veneer+0x2c>)
2000005a:	4687      	mov	pc, r0

2000005c <MATH_Veneer>:
2000005c:	4823      	ldr	r0, [pc, #140]	; (200000ec <BCCU0_0_Veneer+0x30>)
2000005e:	4687      	mov	pc, r0
20000060:	00000000 	.word	0x00000000

20000064 <USIC0_0_Veneer>:
20000064:	4822      	ldr	r0, [pc, #136]	; (200000f0 <BCCU0_0_Veneer+0x34>)
20000066:	4687      	mov	pc, r0

20000068 <USIC0_1_Veneer>:
20000068:	4822      	ldr	r0, [pc, #136]	; (200000f4 <BCCU0_0_Veneer+0x38>)
2000006a:	4687      	mov	pc, r0

2000006c <USIC0_2_Veneer>:
2000006c:	4822      	ldr	r0, [pc, #136]	; (200000f8 <BCCU0_0_Veneer+0x3c>)
2000006e:	4687      	mov	pc, r0

20000070 <USIC0_3_Veneer>:
20000070:	4822      	ldr	r0, [pc, #136]	; (200000fc <BCCU0_0_Veneer+0x40>)
20000072:	4687      	mov	pc, r0

20000074 <USIC0_4_Veneer>:
20000074:	4822      	ldr	r0, [pc, #136]	; (20000100 <BCCU0_0_Veneer+0x44>)
20000076:	4687      	mov	pc, r0

20000078 <USIC0_5_Veneer>:
20000078:	4822      	ldr	r0, [pc, #136]	; (20000104 <BCCU0_0_Veneer+0x48>)
2000007a:	4687      	mov	pc, r0

2000007c <VADC0_C0_0_Veneer>:
2000007c:	4822      	ldr	r0, [pc, #136]	; (20000108 <BCCU0_0_Veneer+0x4c>)
2000007e:	4687      	mov	pc, r0

20000080 <VADC0_C0_1_Veneer>:
20000080:	4822      	ldr	r0, [pc, #136]	; (2000010c <BCCU0_0_Veneer+0x50>)
20000082:	4687      	mov	pc, r0

20000084 <VADC0_G0_0_Veneer>:
20000084:	4822      	ldr	r0, [pc, #136]	; (20000110 <BCCU0_0_Veneer+0x54>)
20000086:	4687      	mov	pc, r0

20000088 <VADC0_G0_1_Veneer>:
20000088:	4822      	ldr	r0, [pc, #136]	; (20000114 <BCCU0_0_Veneer+0x58>)
2000008a:	4687      	mov	pc, r0

2000008c <VADC0_G1_0_Veneer>:
2000008c:	4822      	ldr	r0, [pc, #136]	; (20000118 <BCCU0_0_Veneer+0x5c>)
2000008e:	4687      	mov	pc, r0

20000090 <VADC0_G1_1_Veneer>:
20000090:	4822      	ldr	r0, [pc, #136]	; (2000011c <BCCU0_0_Veneer+0x60>)
20000092:	4687      	mov	pc, r0

20000094 <CCU40_0_Veneer>:
20000094:	4822      	ldr	r0, [pc, #136]	; (20000120 <BCCU0_0_Veneer+0x64>)
20000096:	4687      	mov	pc, r0

20000098 <CCU40_1_Veneer>:
20000098:	4822      	ldr	r0, [pc, #136]	; (20000124 <BCCU0_0_Veneer+0x68>)
2000009a:	4687      	mov	pc, r0

2000009c <CCU40_2_Veneer>:
2000009c:	4822      	ldr	r0, [pc, #136]	; (20000128 <BCCU0_0_Veneer+0x6c>)
2000009e:	4687      	mov	pc, r0

200000a0 <CCU40_3_Veneer>:
200000a0:	4822      	ldr	r0, [pc, #136]	; (2000012c <BCCU0_0_Veneer+0x70>)
200000a2:	4687      	mov	pc, r0

200000a4 <CCU80_0_Veneer>:
200000a4:	4822      	ldr	r0, [pc, #136]	; (20000130 <BCCU0_0_Veneer+0x74>)
200000a6:	4687      	mov	pc, r0

200000a8 <CCU80_1_Veneer>:
200000a8:	4822      	ldr	r0, [pc, #136]	; (20000134 <BCCU0_0_Veneer+0x78>)
200000aa:	4687      	mov	pc, r0

200000ac <POSIF0_0_Veneer>:
200000ac:	4822      	ldr	r0, [pc, #136]	; (20000138 <BCCU0_0_Veneer+0x7c>)
200000ae:	4687      	mov	pc, r0

200000b0 <POSIF0_1_Veneer>:
200000b0:	4822      	ldr	r0, [pc, #136]	; (2000013c <BCCU0_0_Veneer+0x80>)
200000b2:	4687      	mov	pc, r0
	...

200000bc <BCCU0_0_Veneer>:
200000bc:	4820      	ldr	r0, [pc, #128]	; (20000140 <BCCU0_0_Veneer+0x84>)
200000be:	4687      	mov	pc, r0
200000c0:	10001099 	.word	0x10001099
200000c4:	10001099 	.word	0x10001099
200000c8:	10001099 	.word	0x10001099
200000cc:	10001099 	.word	0x10001099
200000d0:	10001099 	.word	0x10001099
200000d4:	10001099 	.word	0x10001099
200000d8:	10001099 	.word	0x10001099
200000dc:	10001099 	.word	0x10001099
200000e0:	10001099 	.word	0x10001099
200000e4:	10001099 	.word	0x10001099
200000e8:	10001099 	.word	0x10001099
200000ec:	10001099 	.word	0x10001099
200000f0:	10001e65 	.word	0x10001e65
200000f4:	10001e55 	.word	0x10001e55
200000f8:	10001099 	.word	0x10001099
200000fc:	10001099 	.word	0x10001099
20000100:	10001099 	.word	0x10001099
20000104:	10001099 	.word	0x10001099
20000108:	10001099 	.word	0x10001099
2000010c:	10001099 	.word	0x10001099
20000110:	10001099 	.word	0x10001099
20000114:	10001099 	.word	0x10001099
20000118:	10001099 	.word	0x10001099
2000011c:	10001099 	.word	0x10001099
20000120:	10001099 	.word	0x10001099
20000124:	10001099 	.word	0x10001099
20000128:	10001099 	.word	0x10001099
2000012c:	10001099 	.word	0x10001099
20000130:	200011a3 	.word	0x200011a3
20000134:	20000ee1 	.word	0x20000ee1
20000138:	10001099 	.word	0x10001099
2000013c:	10001099 	.word	0x10001099
20000140:	10001099 	.word	0x10001099

Disassembly of section .ram_code:

20000b50 <PWM_SVM_lSymCompValUpdate>:
20000b50:	1c02      	adds	r2, r0, #0
20000b52:	1c03      	adds	r3, r0, #0
20000b54:	32a4      	adds	r2, #164	; 0xa4
20000b56:	b570      	push	{r4, r5, r6, lr}
20000b58:	6810      	ldr	r0, [r2, #0]
20000b5a:	1c1e      	adds	r6, r3, #0
20000b5c:	2207      	movs	r2, #7
20000b5e:	1c1c      	adds	r4, r3, #0
20000b60:	4010      	ands	r0, r2
20000b62:	6f1d      	ldr	r5, [r3, #112]	; 0x70
20000b64:	36b8      	adds	r6, #184	; 0xb8
20000b66:	6f59      	ldr	r1, [r3, #116]	; 0x74
20000b68:	6f9a      	ldr	r2, [r3, #120]	; 0x78
20000b6a:	34b6      	adds	r4, #182	; 0xb6
20000b6c:	2804      	cmp	r0, #4
20000b6e:	d82b      	bhi.n	20000bc8 <PWM_SVM_lSymCompValUpdate+0x78>
20000b70:	f000 fe0a 	bl	20001788 <____gnu_thumb1_case_uqi_veneer>
20000b74:	1b120a03 	.word	0x1b120a03
20000b78:	22          	.byte	0x22
20000b79:	00          	.byte	0x00
20000b7a:	8830      	ldrh	r0, [r6, #0]
20000b7c:	33b0      	adds	r3, #176	; 0xb0
20000b7e:	6028      	str	r0, [r5, #0]
20000b80:	881b      	ldrh	r3, [r3, #0]
20000b82:	18c3      	adds	r3, r0, r3
20000b84:	600b      	str	r3, [r1, #0]
20000b86:	e005      	b.n	20000b94 <PWM_SVM_lSymCompValUpdate+0x44>
20000b88:	33ae      	adds	r3, #174	; 0xae
20000b8a:	8830      	ldrh	r0, [r6, #0]
20000b8c:	881b      	ldrh	r3, [r3, #0]
20000b8e:	18c3      	adds	r3, r0, r3
20000b90:	602b      	str	r3, [r5, #0]
20000b92:	6008      	str	r0, [r1, #0]
20000b94:	8823      	ldrh	r3, [r4, #0]
20000b96:	e006      	b.n	20000ba6 <PWM_SVM_lSymCompValUpdate+0x56>
20000b98:	8820      	ldrh	r0, [r4, #0]
20000b9a:	33b0      	adds	r3, #176	; 0xb0
20000b9c:	6028      	str	r0, [r5, #0]
20000b9e:	8830      	ldrh	r0, [r6, #0]
20000ba0:	6008      	str	r0, [r1, #0]
20000ba2:	881b      	ldrh	r3, [r3, #0]
20000ba4:	18c3      	adds	r3, r0, r3
20000ba6:	6013      	str	r3, [r2, #0]
20000ba8:	e016      	b.n	20000bd8 <PWM_SVM_lSymCompValUpdate+0x88>
20000baa:	8820      	ldrh	r0, [r4, #0]
20000bac:	33ae      	adds	r3, #174	; 0xae
20000bae:	6028      	str	r0, [r5, #0]
20000bb0:	8830      	ldrh	r0, [r6, #0]
20000bb2:	881b      	ldrh	r3, [r3, #0]
20000bb4:	18c3      	adds	r3, r0, r3
20000bb6:	e005      	b.n	20000bc4 <PWM_SVM_lSymCompValUpdate+0x74>
20000bb8:	33b0      	adds	r3, #176	; 0xb0
20000bba:	8830      	ldrh	r0, [r6, #0]
20000bbc:	881b      	ldrh	r3, [r3, #0]
20000bbe:	181b      	adds	r3, r3, r0
20000bc0:	602b      	str	r3, [r5, #0]
20000bc2:	8823      	ldrh	r3, [r4, #0]
20000bc4:	600b      	str	r3, [r1, #0]
20000bc6:	e006      	b.n	20000bd6 <PWM_SVM_lSymCompValUpdate+0x86>
20000bc8:	8830      	ldrh	r0, [r6, #0]
20000bca:	33ae      	adds	r3, #174	; 0xae
20000bcc:	6028      	str	r0, [r5, #0]
20000bce:	8824      	ldrh	r4, [r4, #0]
20000bd0:	600c      	str	r4, [r1, #0]
20000bd2:	881b      	ldrh	r3, [r3, #0]
20000bd4:	1818      	adds	r0, r3, r0
20000bd6:	6010      	str	r0, [r2, #0]
20000bd8:	bd70      	pop	{r4, r5, r6, pc}

20000bda <PWM_SVM_CalCmpValueSym7>:
20000bda:	b538      	push	{r3, r4, r5, lr}
20000bdc:	1c01      	adds	r1, r0, #0
20000bde:	1c03      	adds	r3, r0, #0
20000be0:	31ae      	adds	r1, #174	; 0xae
20000be2:	33c2      	adds	r3, #194	; 0xc2
20000be4:	881b      	ldrh	r3, [r3, #0]
20000be6:	880a      	ldrh	r2, [r1, #0]
20000be8:	429a      	cmp	r2, r3
20000bea:	d200      	bcs.n	20000bee <PWM_SVM_CalCmpValueSym7+0x14>
20000bec:	800b      	strh	r3, [r1, #0]
20000bee:	1c02      	adds	r2, r0, #0
20000bf0:	32b0      	adds	r2, #176	; 0xb0
20000bf2:	8814      	ldrh	r4, [r2, #0]
20000bf4:	429c      	cmp	r4, r3
20000bf6:	d200      	bcs.n	20000bfa <PWM_SVM_CalCmpValueSym7+0x20>
20000bf8:	8013      	strh	r3, [r2, #0]
20000bfa:	1c03      	adds	r3, r0, #0
20000bfc:	1c05      	adds	r5, r0, #0
20000bfe:	339c      	adds	r3, #156	; 0x9c
20000c00:	880c      	ldrh	r4, [r1, #0]
20000c02:	681b      	ldr	r3, [r3, #0]
20000c04:	8811      	ldrh	r1, [r2, #0]
20000c06:	b29b      	uxth	r3, r3
20000c08:	190a      	adds	r2, r1, r4
20000c0a:	189a      	adds	r2, r3, r2
20000c0c:	b292      	uxth	r2, r2
20000c0e:	35b6      	adds	r5, #182	; 0xb6
20000c10:	0852      	lsrs	r2, r2, #1
20000c12:	802a      	strh	r2, [r5, #0]
20000c14:	1c02      	adds	r2, r0, #0
20000c16:	1b1b      	subs	r3, r3, r4
20000c18:	1a5b      	subs	r3, r3, r1
20000c1a:	b29b      	uxth	r3, r3
20000c1c:	085b      	lsrs	r3, r3, #1
20000c1e:	32b8      	adds	r2, #184	; 0xb8
20000c20:	8013      	strh	r3, [r2, #0]
20000c22:	f7ff ff95 	bl	20000b50 <PWM_SVM_lSymCompValUpdate>
20000c26:	bd38      	pop	{r3, r4, r5, pc}

20000c28 <PWM_SVM_CalCmpValueSym5>:
20000c28:	b538      	push	{r3, r4, r5, lr}
20000c2a:	1c01      	adds	r1, r0, #0
20000c2c:	1c03      	adds	r3, r0, #0
20000c2e:	31ae      	adds	r1, #174	; 0xae
20000c30:	33c2      	adds	r3, #194	; 0xc2
20000c32:	881b      	ldrh	r3, [r3, #0]
20000c34:	880a      	ldrh	r2, [r1, #0]
20000c36:	429a      	cmp	r2, r3
20000c38:	d200      	bcs.n	20000c3c <PWM_SVM_CalCmpValueSym5+0x14>
20000c3a:	800b      	strh	r3, [r1, #0]
20000c3c:	1c02      	adds	r2, r0, #0
20000c3e:	32b0      	adds	r2, #176	; 0xb0
20000c40:	8814      	ldrh	r4, [r2, #0]
20000c42:	429c      	cmp	r4, r3
20000c44:	d200      	bcs.n	20000c48 <PWM_SVM_CalCmpValueSym5+0x20>
20000c46:	8013      	strh	r3, [r2, #0]
20000c48:	1c03      	adds	r3, r0, #0
20000c4a:	1c04      	adds	r4, r0, #0
20000c4c:	339c      	adds	r3, #156	; 0x9c
20000c4e:	681b      	ldr	r3, [r3, #0]
20000c50:	34b6      	adds	r4, #182	; 0xb6
20000c52:	b29b      	uxth	r3, r3
20000c54:	1c5d      	adds	r5, r3, #1
20000c56:	8025      	strh	r5, [r4, #0]
20000c58:	8809      	ldrh	r1, [r1, #0]
20000c5a:	8812      	ldrh	r2, [r2, #0]
20000c5c:	1a5b      	subs	r3, r3, r1
20000c5e:	1a9b      	subs	r3, r3, r2
20000c60:	1c02      	adds	r2, r0, #0
20000c62:	32b8      	adds	r2, #184	; 0xb8
20000c64:	8013      	strh	r3, [r2, #0]
20000c66:	f7ff ff73 	bl	20000b50 <PWM_SVM_lSymCompValUpdate>
20000c6a:	bd38      	pop	{r3, r4, r5, pc}

20000c6c <PWM_SVM_TimecalcUsingCORDIC>:
20000c6c:	0212      	lsls	r2, r2, #8
20000c6e:	0a13      	lsrs	r3, r2, #8
20000c70:	2206      	movs	r2, #6
20000c72:	b5f0      	push	{r4, r5, r6, r7, lr}
20000c74:	1c04      	adds	r4, r0, #0
20000c76:	435a      	muls	r2, r3
20000c78:	34a4      	adds	r4, #164	; 0xa4
20000c7a:	0e12      	lsrs	r2, r2, #24
20000c7c:	6022      	str	r2, [r4, #0]
20000c7e:	4c3d      	ldr	r4, [pc, #244]	; (20000d74 <PWM_SVM_TimecalcUsingCORDIC+0x108>)
20000c80:	252a      	movs	r5, #42	; 0x2a
20000c82:	4362      	muls	r2, r4
20000c84:	1a9a      	subs	r2, r3, r2
20000c86:	1c03      	adds	r3, r0, #0
20000c88:	33a8      	adds	r3, #168	; 0xa8
20000c8a:	601a      	str	r2, [r3, #0]
20000c8c:	2300      	movs	r3, #0
20000c8e:	4c3a      	ldr	r4, [pc, #232]	; (20000d78 <PWM_SVM_TimecalcUsingCORDIC+0x10c>)
20000c90:	0212      	lsls	r2, r2, #8
20000c92:	6423      	str	r3, [r4, #64]	; 0x40
20000c94:	6465      	str	r5, [r4, #68]	; 0x44
20000c96:	6522      	str	r2, [r4, #80]	; 0x50
20000c98:	64e3      	str	r3, [r4, #76]	; 0x4c
20000c9a:	2380      	movs	r3, #128	; 0x80
20000c9c:	b085      	sub	sp, #20
20000c9e:	02db      	lsls	r3, r3, #11
20000ca0:	64a3      	str	r3, [r4, #72]	; 0x48
20000ca2:	9403      	str	r4, [sp, #12]
20000ca4:	9b03      	ldr	r3, [sp, #12]
20000ca6:	4e34      	ldr	r6, [pc, #208]	; (20000d78 <PWM_SVM_TimecalcUsingCORDIC+0x10c>)
20000ca8:	6c1a      	ldr	r2, [r3, #64]	; 0x40
20000caa:	2301      	movs	r3, #1
20000cac:	401a      	ands	r2, r3
20000cae:	9201      	str	r2, [sp, #4]
20000cb0:	d1f8      	bne.n	20000ca4 <PWM_SVM_TimecalcUsingCORDIC+0x38>
20000cb2:	24ae      	movs	r4, #174	; 0xae
20000cb4:	46a4      	mov	ip, r4
20000cb6:	6d77      	ldr	r7, [r6, #84]	; 0x54
20000cb8:	4b30      	ldr	r3, [pc, #192]	; (20000d7c <PWM_SVM_TimecalcUsingCORDIC+0x110>)
20000cba:	0a3f      	lsrs	r7, r7, #8
20000cbc:	435f      	muls	r7, r3
20000cbe:	0abb      	lsrs	r3, r7, #10
20000cc0:	9300      	str	r3, [sp, #0]
20000cc2:	6db3      	ldr	r3, [r6, #88]	; 0x58
20000cc4:	4a2e      	ldr	r2, [pc, #184]	; (20000d80 <PWM_SVM_TimecalcUsingCORDIC+0x114>)
20000cc6:	0a1b      	lsrs	r3, r3, #8
20000cc8:	435a      	muls	r2, r3
20000cca:	1c0b      	adds	r3, r1, #0
20000ccc:	4484      	add	ip, r0
20000cce:	4664      	mov	r4, ip
20000cd0:	0a97      	lsrs	r7, r2, #10
20000cd2:	9202      	str	r2, [sp, #8]
20000cd4:	437b      	muls	r3, r7
20000cd6:	6802      	ldr	r2, [r0, #0]
20000cd8:	3204      	adds	r2, #4
20000cda:	8fd5      	ldrh	r5, [r2, #62]	; 0x3e
20000cdc:	0b9a      	lsrs	r2, r3, #14
20000cde:	436a      	muls	r2, r5
20000ce0:	0a92      	lsrs	r2, r2, #10
20000ce2:	b292      	uxth	r2, r2
20000ce4:	8022      	strh	r2, [r4, #0]
20000ce6:	9c00      	ldr	r4, [sp, #0]
20000ce8:	4361      	muls	r1, r4
20000cea:	1acb      	subs	r3, r1, r3
20000cec:	1c01      	adds	r1, r0, #0
20000cee:	0bdb      	lsrs	r3, r3, #15
20000cf0:	436b      	muls	r3, r5
20000cf2:	0a9b      	lsrs	r3, r3, #10
20000cf4:	b29b      	uxth	r3, r3
20000cf6:	31b0      	adds	r1, #176	; 0xb0
20000cf8:	800b      	strh	r3, [r1, #0]
20000cfa:	189b      	adds	r3, r3, r2
20000cfc:	1c02      	adds	r2, r0, #0
20000cfe:	1c05      	adds	r5, r0, #0
20000d00:	329c      	adds	r2, #156	; 0x9c
20000d02:	6812      	ldr	r2, [r2, #0]
20000d04:	b29b      	uxth	r3, r3
20000d06:	b291      	uxth	r1, r2
20000d08:	1acc      	subs	r4, r1, r3
20000d0a:	35ac      	adds	r5, #172	; 0xac
20000d0c:	802c      	strh	r4, [r5, #0]
20000d0e:	4293      	cmp	r3, r2
20000d10:	d921      	bls.n	20000d56 <PWM_SVM_TimecalcUsingCORDIC+0xea>
20000d12:	1c03      	adds	r3, r0, #0
20000d14:	33c8      	adds	r3, #200	; 0xc8
20000d16:	881b      	ldrh	r3, [r3, #0]
20000d18:	2b01      	cmp	r3, #1
20000d1a:	d11c      	bne.n	20000d56 <PWM_SVM_TimecalcUsingCORDIC+0xea>
20000d1c:	9b02      	ldr	r3, [sp, #8]
20000d1e:	9c00      	ldr	r4, [sp, #0]
20000d20:	0e1b      	lsrs	r3, r3, #24
20000d22:	4353      	muls	r3, r2
20000d24:	1be4      	subs	r4, r4, r7
20000d26:	0be4      	lsrs	r4, r4, #15
20000d28:	46a4      	mov	ip, r4
20000d2a:	4c16      	ldr	r4, [pc, #88]	; (20000d84 <PWM_SVM_TimecalcUsingCORDIC+0x118>)
20000d2c:	4467      	add	r7, ip
20000d2e:	6374      	str	r4, [r6, #52]	; 0x34
20000d30:	6233      	str	r3, [r6, #32]
20000d32:	466b      	mov	r3, sp
20000d34:	889b      	ldrh	r3, [r3, #4]
20000d36:	6277      	str	r7, [r6, #36]	; 0x24
20000d38:	802b      	strh	r3, [r5, #0]
20000d3a:	9b03      	ldr	r3, [sp, #12]
20000d3c:	6b1b      	ldr	r3, [r3, #48]	; 0x30
20000d3e:	2b00      	cmp	r3, #0
20000d40:	d1fb      	bne.n	20000d3a <PWM_SVM_TimecalcUsingCORDIC+0xce>
20000d42:	1c04      	adds	r4, r0, #0
20000d44:	4b0c      	ldr	r3, [pc, #48]	; (20000d78 <PWM_SVM_TimecalcUsingCORDIC+0x10c>)
20000d46:	34ae      	adds	r4, #174	; 0xae
20000d48:	6a9b      	ldr	r3, [r3, #40]	; 0x28
20000d4a:	b29b      	uxth	r3, r3
20000d4c:	8023      	strh	r3, [r4, #0]
20000d4e:	1ac9      	subs	r1, r1, r3
20000d50:	1c03      	adds	r3, r0, #0
20000d52:	33b0      	adds	r3, #176	; 0xb0
20000d54:	8019      	strh	r1, [r3, #0]
20000d56:	1c03      	adds	r3, r0, #0
20000d58:	33ae      	adds	r3, #174	; 0xae
20000d5a:	8819      	ldrh	r1, [r3, #0]
20000d5c:	4291      	cmp	r1, r2
20000d5e:	d901      	bls.n	20000d64 <PWM_SVM_TimecalcUsingCORDIC+0xf8>
20000d60:	2100      	movs	r1, #0
20000d62:	8019      	strh	r1, [r3, #0]
20000d64:	30b0      	adds	r0, #176	; 0xb0
20000d66:	8803      	ldrh	r3, [r0, #0]
20000d68:	4293      	cmp	r3, r2
20000d6a:	d901      	bls.n	20000d70 <PWM_SVM_TimecalcUsingCORDIC+0x104>
20000d6c:	2300      	movs	r3, #0
20000d6e:	8003      	strh	r3, [r0, #0]
20000d70:	b005      	add	sp, #20
20000d72:	bdf0      	pop	{r4, r5, r6, r7, pc}
20000d74:	002aaaaa 	.word	0x002aaaaa
20000d78:	40030000 	.word	0x40030000
20000d7c:	0000434f 	.word	0x0000434f
20000d80:	000026dd 	.word	0x000026dd
20000d84:	00038304 	.word	0x00038304

20000d88 <PWM_SVM_TimecalcUsingLUT>:
20000d88:	2306      	movs	r3, #6
20000d8a:	b5f7      	push	{r0, r1, r2, r4, r5, r6, r7, lr}
20000d8c:	0212      	lsls	r2, r2, #8
20000d8e:	0d92      	lsrs	r2, r2, #22
20000d90:	435a      	muls	r2, r3
20000d92:	1c03      	adds	r3, r0, #0
20000d94:	0595      	lsls	r5, r2, #22
20000d96:	33a8      	adds	r3, #168	; 0xa8
20000d98:	0dad      	lsrs	r5, r5, #22
20000d9a:	601d      	str	r5, [r3, #0]
20000d9c:	0a92      	lsrs	r2, r2, #10
20000d9e:	3b04      	subs	r3, #4
20000da0:	601a      	str	r2, [r3, #0]
20000da2:	3322      	adds	r3, #34	; 0x22
20000da4:	881b      	ldrh	r3, [r3, #0]
20000da6:	1c0e      	adds	r6, r1, #0
20000da8:	4299      	cmp	r1, r3
20000daa:	d900      	bls.n	20000dae <PWM_SVM_TimecalcUsingLUT+0x26>
20000dac:	1c1e      	adds	r6, r3, #0
20000dae:	4b23      	ldr	r3, [pc, #140]	; (20000e3c <PWM_SVM_TimecalcUsingLUT+0xb4>)
20000db0:	4f23      	ldr	r7, [pc, #140]	; (20000e40 <PWM_SVM_TimecalcUsingLUT+0xb8>)
20000db2:	1b5b      	subs	r3, r3, r5
20000db4:	005b      	lsls	r3, r3, #1
20000db6:	5bdc      	ldrh	r4, [r3, r7]
20000db8:	6803      	ldr	r3, [r0, #0]
20000dba:	1c22      	adds	r2, r4, #0
20000dbc:	3304      	adds	r3, #4
20000dbe:	8fd9      	ldrh	r1, [r3, #62]	; 0x3e
20000dc0:	23b0      	movs	r3, #176	; 0xb0
20000dc2:	469c      	mov	ip, r3
20000dc4:	4484      	add	ip, r0
20000dc6:	4663      	mov	r3, ip
20000dc8:	b2b6      	uxth	r6, r6
20000dca:	4372      	muls	r2, r6
20000dcc:	006d      	lsls	r5, r5, #1
20000dce:	13d2      	asrs	r2, r2, #15
20000dd0:	5bed      	ldrh	r5, [r5, r7]
20000dd2:	b292      	uxth	r2, r2
20000dd4:	434a      	muls	r2, r1
20000dd6:	436e      	muls	r6, r5
20000dd8:	1292      	asrs	r2, r2, #10
20000dda:	b292      	uxth	r2, r2
20000ddc:	13f6      	asrs	r6, r6, #15
20000dde:	801a      	strh	r2, [r3, #0]
20000de0:	b2b3      	uxth	r3, r6
20000de2:	1c06      	adds	r6, r0, #0
20000de4:	4359      	muls	r1, r3
20000de6:	1289      	asrs	r1, r1, #10
20000de8:	b28b      	uxth	r3, r1
20000dea:	36ae      	adds	r6, #174	; 0xae
20000dec:	8033      	strh	r3, [r6, #0]
20000dee:	18d3      	adds	r3, r2, r3
20000df0:	1c02      	adds	r2, r0, #0
20000df2:	329c      	adds	r2, #156	; 0x9c
20000df4:	6812      	ldr	r2, [r2, #0]
20000df6:	b29b      	uxth	r3, r3
20000df8:	b291      	uxth	r1, r2
20000dfa:	1acf      	subs	r7, r1, r3
20000dfc:	9301      	str	r3, [sp, #4]
20000dfe:	1c3b      	adds	r3, r7, #0
20000e00:	1c07      	adds	r7, r0, #0
20000e02:	37ac      	adds	r7, #172	; 0xac
20000e04:	803b      	strh	r3, [r7, #0]
20000e06:	9b01      	ldr	r3, [sp, #4]
20000e08:	4293      	cmp	r3, r2
20000e0a:	d916      	bls.n	20000e3a <PWM_SVM_TimecalcUsingLUT+0xb2>
20000e0c:	30c8      	adds	r0, #200	; 0xc8
20000e0e:	8803      	ldrh	r3, [r0, #0]
20000e10:	2b01      	cmp	r3, #1
20000e12:	d112      	bne.n	20000e3a <PWM_SVM_TimecalcUsingLUT+0xb2>
20000e14:	436a      	muls	r2, r5
20000e16:	4b0b      	ldr	r3, [pc, #44]	; (20000e44 <PWM_SVM_TimecalcUsingLUT+0xbc>)
20000e18:	480b      	ldr	r0, [pc, #44]	; (20000e48 <PWM_SVM_TimecalcUsingLUT+0xc0>)
20000e1a:	192c      	adds	r4, r5, r4
20000e1c:	6358      	str	r0, [r3, #52]	; 0x34
20000e1e:	621a      	str	r2, [r3, #32]
20000e20:	2200      	movs	r2, #0
20000e22:	625c      	str	r4, [r3, #36]	; 0x24
20000e24:	803a      	strh	r2, [r7, #0]
20000e26:	6b1a      	ldr	r2, [r3, #48]	; 0x30
20000e28:	2a00      	cmp	r2, #0
20000e2a:	d1fc      	bne.n	20000e26 <PWM_SVM_TimecalcUsingLUT+0x9e>
20000e2c:	4b05      	ldr	r3, [pc, #20]	; (20000e44 <PWM_SVM_TimecalcUsingLUT+0xbc>)
20000e2e:	6a9b      	ldr	r3, [r3, #40]	; 0x28
20000e30:	b29b      	uxth	r3, r3
20000e32:	8033      	strh	r3, [r6, #0]
20000e34:	1ac9      	subs	r1, r1, r3
20000e36:	4663      	mov	r3, ip
20000e38:	8019      	strh	r1, [r3, #0]
20000e3a:	bdf7      	pop	{r0, r1, r2, r4, r5, r6, r7, pc}
20000e3c:	000003ff 	.word	0x000003ff
20000e40:	10008dd0 	.word	0x10008dd0
20000e44:	40030000 	.word	0x40030000
20000e48:	00038304 	.word	0x00038304

20000e4c <PWM_SVM_SVMUpdate>:
20000e4c:	b538      	push	{r3, r4, r5, lr}
20000e4e:	1c03      	adds	r3, r0, #0
20000e50:	1c04      	adds	r4, r0, #0
20000e52:	338c      	adds	r3, #140	; 0x8c
20000e54:	681b      	ldr	r3, [r3, #0]
20000e56:	6805      	ldr	r5, [r0, #0]
20000e58:	4798      	blx	r3
20000e5a:	1c23      	adds	r3, r4, #0
20000e5c:	3388      	adds	r3, #136	; 0x88
20000e5e:	681b      	ldr	r3, [r3, #0]
20000e60:	1c20      	adds	r0, r4, #0
20000e62:	4798      	blx	r3
20000e64:	6862      	ldr	r2, [r4, #4]
20000e66:	6a6b      	ldr	r3, [r5, #36]	; 0x24
20000e68:	6911      	ldr	r1, [r2, #16]
20000e6a:	430b      	orrs	r3, r1
20000e6c:	6113      	str	r3, [r2, #16]
20000e6e:	bd38      	pop	{r3, r4, r5, pc}

20000e70 <PMSM_FOC_SpeedLowLimit>:
20000e70:	2300      	movs	r3, #0
20000e72:	6bc2      	ldr	r2, [r0, #60]	; 0x3c
20000e74:	b510      	push	{r4, lr}
20000e76:	6383      	str	r3, [r0, #56]	; 0x38
20000e78:	428a      	cmp	r2, r1
20000e7a:	da2e      	bge.n	20000eda <PMSM_FOC_SpeedLowLimit+0x6a>
20000e7c:	1c02      	adds	r2, r0, #0
20000e7e:	210d      	movs	r1, #13
20000e80:	1c04      	adds	r4, r0, #0
20000e82:	3230      	adds	r2, #48	; 0x30
20000e84:	7011      	strb	r1, [r2, #0]
20000e86:	6543      	str	r3, [r0, #84]	; 0x54
20000e88:	65c3      	str	r3, [r0, #92]	; 0x5c
20000e8a:	63c3      	str	r3, [r0, #60]	; 0x3c
20000e8c:	6840      	ldr	r0, [r0, #4]
20000e8e:	f000 fc9b 	bl	200017c8 <__PWM_SVM_Stop_veneer>
20000e92:	6863      	ldr	r3, [r4, #4]
20000e94:	4a11      	ldr	r2, [pc, #68]	; (20000edc <PMSM_FOC_SpeedLowLimit+0x6c>)
20000e96:	6f19      	ldr	r1, [r3, #112]	; 0x70
20000e98:	600a      	str	r2, [r1, #0]
20000e9a:	6f59      	ldr	r1, [r3, #116]	; 0x74
20000e9c:	600a      	str	r2, [r1, #0]
20000e9e:	6f99      	ldr	r1, [r3, #120]	; 0x78
20000ea0:	689b      	ldr	r3, [r3, #8]
20000ea2:	600a      	str	r2, [r1, #0]
20000ea4:	21f0      	movs	r1, #240	; 0xf0
20000ea6:	6818      	ldr	r0, [r3, #0]
20000ea8:	0349      	lsls	r1, r1, #13
20000eaa:	f000 fc85 	bl	200017b8 <__XMC_CCU8_SLICE_SetOutPath_veneer>
20000eae:	21f0      	movs	r1, #240	; 0xf0
20000eb0:	6863      	ldr	r3, [r4, #4]
20000eb2:	0349      	lsls	r1, r1, #13
20000eb4:	68db      	ldr	r3, [r3, #12]
20000eb6:	6818      	ldr	r0, [r3, #0]
20000eb8:	f000 fc7e 	bl	200017b8 <__XMC_CCU8_SLICE_SetOutPath_veneer>
20000ebc:	21f0      	movs	r1, #240	; 0xf0
20000ebe:	6863      	ldr	r3, [r4, #4]
20000ec0:	0349      	lsls	r1, r1, #13
20000ec2:	691b      	ldr	r3, [r3, #16]
20000ec4:	6818      	ldr	r0, [r3, #0]
20000ec6:	f000 fc77 	bl	200017b8 <__XMC_CCU8_SLICE_SetOutPath_veneer>
20000eca:	6863      	ldr	r3, [r4, #4]
20000ecc:	1c20      	adds	r0, r4, #0
20000ece:	685a      	ldr	r2, [r3, #4]
20000ed0:	681b      	ldr	r3, [r3, #0]
20000ed2:	6a5b      	ldr	r3, [r3, #36]	; 0x24
20000ed4:	6113      	str	r3, [r2, #16]
20000ed6:	f000 fc87 	bl	200017e8 <__PMSM_FOC_StartPWMTimer_veneer>
20000eda:	bd10      	pop	{r4, pc}
20000edc:	0000ffff 	.word	0x0000ffff

20000ee0 <CCU80_1_IRQHandler>:
20000ee0:	4809      	ldr	r0, [pc, #36]	; (20000f08 <CCU80_1_IRQHandler+0x28>)
20000ee2:	b508      	push	{r3, lr}
20000ee4:	6843      	ldr	r3, [r0, #4]
20000ee6:	689b      	ldr	r3, [r3, #8]
20000ee8:	681b      	ldr	r3, [r3, #0]
20000eea:	33a0      	adds	r3, #160	; 0xa0
20000eec:	681b      	ldr	r3, [r3, #0]
20000eee:	055b      	lsls	r3, r3, #21
20000ef0:	d509      	bpl.n	20000f06 <CCU80_1_IRQHandler+0x26>
20000ef2:	2302      	movs	r3, #2
20000ef4:	6c02      	ldr	r2, [r0, #64]	; 0x40
20000ef6:	4313      	orrs	r3, r2
20000ef8:	6403      	str	r3, [r0, #64]	; 0x40
20000efa:	1c03      	adds	r3, r0, #0
20000efc:	220f      	movs	r2, #15
20000efe:	3330      	adds	r3, #48	; 0x30
20000f00:	701a      	strb	r2, [r3, #0]
20000f02:	f000 fc51 	bl	200017a8 <__PMSM_FOC_MotorStop_veneer>
20000f06:	bd08      	pop	{r3, pc}
20000f08:	200006a0 	.word	0x200006a0

20000f0c <PMSM_FOC_MSM>:
20000f0c:	b5f8      	push	{r3, r4, r5, r6, r7, lr}
20000f0e:	1c05      	adds	r5, r0, #0
20000f10:	3530      	adds	r5, #48	; 0x30
20000f12:	782b      	ldrb	r3, [r5, #0]
20000f14:	2b0d      	cmp	r3, #13
20000f16:	d900      	bls.n	20000f1a <PMSM_FOC_MSM+0xe>
20000f18:	e142      	b.n	200011a0 <PMSM_FOC_MSM+0x294>
20000f1a:	1c04      	adds	r4, r0, #0
20000f1c:	1c18      	adds	r0, r3, #0
20000f1e:	f000 fcb3 	bl	20001888 <____gnu_thumb1_case_uhi_veneer>
20000f22:	013c      	.short	0x013c
20000f24:	00e200af 	.word	0x00e200af
20000f28:	00a2013f 	.word	0x00a2013f
20000f2c:	013f000e 	.word	0x013f000e
20000f30:	013f013f 	.word	0x013f013f
20000f34:	009800db 	.word	0x009800db
20000f38:	0105008e 	.word	0x0105008e
20000f3c:	011d      	.short	0x011d
20000f3e:	6ae3      	ldr	r3, [r4, #44]	; 0x2c
20000f40:	691b      	ldr	r3, [r3, #16]
20000f42:	6563      	str	r3, [r4, #84]	; 0x54
20000f44:	6863      	ldr	r3, [r4, #4]
20000f46:	33ac      	adds	r3, #172	; 0xac
20000f48:	8819      	ldrh	r1, [r3, #0]
20000f4a:	1c23      	adds	r3, r4, #0
20000f4c:	33b0      	adds	r3, #176	; 0xb0
20000f4e:	881a      	ldrh	r2, [r3, #0]
20000f50:	6aa3      	ldr	r3, [r4, #40]	; 0x28
20000f52:	3370      	adds	r3, #112	; 0x70
20000f54:	4291      	cmp	r1, r2
20000f56:	d201      	bcs.n	20000f5c <PMSM_FOC_MSM+0x50>
20000f58:	2201      	movs	r2, #1
20000f5a:	e000      	b.n	20000f5e <PMSM_FOC_MSM+0x52>
20000f5c:	2200      	movs	r2, #0
20000f5e:	701a      	strb	r2, [r3, #0]
20000f60:	6be3      	ldr	r3, [r4, #60]	; 0x3c
20000f62:	6ba0      	ldr	r0, [r4, #56]	; 0x38
20000f64:	4283      	cmp	r3, r0
20000f66:	d113      	bne.n	20000f90 <PMSM_FOC_MSM+0x84>
20000f68:	2300      	movs	r3, #0
20000f6a:	67a3      	str	r3, [r4, #120]	; 0x78
20000f6c:	1c23      	adds	r3, r4, #0
20000f6e:	2201      	movs	r2, #1
20000f70:	6821      	ldr	r1, [r4, #0]
20000f72:	33b4      	adds	r3, #180	; 0xb4
20000f74:	701a      	strb	r2, [r3, #0]
20000f76:	3b2c      	subs	r3, #44	; 0x2c
20000f78:	681b      	ldr	r3, [r3, #0]
20000f7a:	6a4a      	ldr	r2, [r1, #36]	; 0x24
20000f7c:	1d25      	adds	r5, r4, #4
20000f7e:	409a      	lsls	r2, r3
20000f80:	67ea      	str	r2, [r5, #124]	; 0x7c
20000f82:	6a8a      	ldr	r2, [r1, #40]	; 0x28
20000f84:	1c20      	adds	r0, r4, #0
20000f86:	3b01      	subs	r3, #1
20000f88:	409a      	lsls	r2, r3
20000f8a:	3008      	adds	r0, #8
20000f8c:	67c2      	str	r2, [r0, #124]	; 0x7c
20000f8e:	e041      	b.n	20001014 <PMSM_FOC_MSM+0x108>
20000f90:	6fa1      	ldr	r1, [r4, #120]	; 0x78
20000f92:	3101      	adds	r1, #1
20000f94:	67a1      	str	r1, [r4, #120]	; 0x78
20000f96:	4283      	cmp	r3, r0
20000f98:	da18      	bge.n	20000fcc <PMSM_FOC_MSM+0xc0>
20000f9a:	1d25      	adds	r5, r4, #4
20000f9c:	6fea      	ldr	r2, [r5, #124]	; 0x7c
20000f9e:	4291      	cmp	r1, r2
20000fa0:	d938      	bls.n	20001014 <PMSM_FOC_MSM+0x108>
20000fa2:	6821      	ldr	r1, [r4, #0]
20000fa4:	1ac0      	subs	r0, r0, r3
20000fa6:	6b0e      	ldr	r6, [r1, #48]	; 0x30
20000fa8:	6a49      	ldr	r1, [r1, #36]	; 0x24
20000faa:	10f6      	asrs	r6, r6, #3
20000fac:	42b0      	cmp	r0, r6
20000fae:	dd03      	ble.n	20000fb8 <PMSM_FOC_MSM+0xac>
20000fb0:	428a      	cmp	r2, r1
20000fb2:	d909      	bls.n	20000fc8 <PMSM_FOC_MSM+0xbc>
20000fb4:	3a01      	subs	r2, #1
20000fb6:	e006      	b.n	20000fc6 <PMSM_FOC_MSM+0xba>
20000fb8:	1c20      	adds	r0, r4, #0
20000fba:	3088      	adds	r0, #136	; 0x88
20000fbc:	6800      	ldr	r0, [r0, #0]
20000fbe:	4081      	lsls	r1, r0
20000fc0:	428a      	cmp	r2, r1
20000fc2:	d201      	bcs.n	20000fc8 <PMSM_FOC_MSM+0xbc>
20000fc4:	3201      	adds	r2, #1
20000fc6:	67ea      	str	r2, [r5, #124]	; 0x7c
20000fc8:	3301      	adds	r3, #1
20000fca:	e020      	b.n	2000100e <PMSM_FOC_MSM+0x102>
20000fcc:	1c25      	adds	r5, r4, #0
20000fce:	3508      	adds	r5, #8
20000fd0:	6fea      	ldr	r2, [r5, #124]	; 0x7c
20000fd2:	4291      	cmp	r1, r2
20000fd4:	d91e      	bls.n	20001014 <PMSM_FOC_MSM+0x108>
20000fd6:	6821      	ldr	r1, [r4, #0]
20000fd8:	1a18      	subs	r0, r3, r0
20000fda:	6b0e      	ldr	r6, [r1, #48]	; 0x30
20000fdc:	10f7      	asrs	r7, r6, #3
20000fde:	6a8e      	ldr	r6, [r1, #40]	; 0x28
20000fe0:	42b8      	cmp	r0, r7
20000fe2:	dd03      	ble.n	20000fec <PMSM_FOC_MSM+0xe0>
20000fe4:	42b2      	cmp	r2, r6
20000fe6:	d90a      	bls.n	20000ffe <PMSM_FOC_MSM+0xf2>
20000fe8:	3a01      	subs	r2, #1
20000fea:	e007      	b.n	20000ffc <PMSM_FOC_MSM+0xf0>
20000fec:	1c20      	adds	r0, r4, #0
20000fee:	3088      	adds	r0, #136	; 0x88
20000ff0:	6800      	ldr	r0, [r0, #0]
20000ff2:	3801      	subs	r0, #1
20000ff4:	4086      	lsls	r6, r0
20000ff6:	42b2      	cmp	r2, r6
20000ff8:	d201      	bcs.n	20000ffe <PMSM_FOC_MSM+0xf2>
20000ffa:	3201      	adds	r2, #1
20000ffc:	67ea      	str	r2, [r5, #124]	; 0x7c
20000ffe:	1c22      	adds	r2, r4, #0
20001000:	3102      	adds	r1, #2
20001002:	32a8      	adds	r2, #168	; 0xa8
20001004:	8810      	ldrh	r0, [r2, #0]
20001006:	8fca      	ldrh	r2, [r1, #62]	; 0x3e
20001008:	4290      	cmp	r0, r2
2000100a:	d801      	bhi.n	20001010 <PMSM_FOC_MSM+0x104>
2000100c:	3b01      	subs	r3, #1
2000100e:	63e3      	str	r3, [r4, #60]	; 0x3c
20001010:	2300      	movs	r3, #0
20001012:	67a3      	str	r3, [r4, #120]	; 0x78
20001014:	6aa3      	ldr	r3, [r4, #40]	; 0x28
20001016:	6be2      	ldr	r2, [r4, #60]	; 0x3c
20001018:	1c20      	adds	r0, r4, #0
2000101a:	639a      	str	r2, [r3, #56]	; 0x38
2000101c:	f000 f90a 	bl	20001234 <FOC_Controller_LIB>
20001020:	6860      	ldr	r0, [r4, #4]
20001022:	1c03      	adds	r3, r0, #0
20001024:	33a4      	adds	r3, #164	; 0xa4
20001026:	681a      	ldr	r2, [r3, #0]
20001028:	6aa3      	ldr	r3, [r4, #40]	; 0x28
2000102a:	336e      	adds	r3, #110	; 0x6e
2000102c:	801a      	strh	r2, [r3, #0]
2000102e:	6de3      	ldr	r3, [r4, #92]	; 0x5c
20001030:	6da2      	ldr	r2, [r4, #88]	; 0x58
20001032:	b299      	uxth	r1, r3
20001034:	f7ff ff0a 	bl	20000e4c <PWM_SVM_SVMUpdate>
20001038:	6823      	ldr	r3, [r4, #0]
2000103a:	6b19      	ldr	r1, [r3, #48]	; 0x30
2000103c:	e087      	b.n	2000114e <PMSM_FOC_MSM+0x242>
2000103e:	6823      	ldr	r3, [r4, #0]
20001040:	1c20      	adds	r0, r4, #0
20001042:	6b19      	ldr	r1, [r3, #48]	; 0x30
20001044:	6ba3      	ldr	r3, [r4, #56]	; 0x38
20001046:	428b      	cmp	r3, r1
20001048:	da00      	bge.n	2000104c <PMSM_FOC_MSM+0x140>
2000104a:	e084      	b.n	20001156 <PMSM_FOC_MSM+0x24a>
2000104c:	f000 fb94 	bl	20001778 <__PMSM_FOC_Vf_RampUp_veneer>
20001050:	e002      	b.n	20001058 <PMSM_FOC_MSM+0x14c>
20001052:	1c20      	adds	r0, r4, #0
20001054:	f000 fba0 	bl	20001798 <__PMSM_FOC_Rotor_Pre_Positioning_veneer>
20001058:	6de3      	ldr	r3, [r4, #92]	; 0x5c
2000105a:	6860      	ldr	r0, [r4, #4]
2000105c:	b299      	uxth	r1, r3
2000105e:	6da2      	ldr	r2, [r4, #88]	; 0x58
20001060:	f7ff fef4 	bl	20000e4c <PWM_SVM_SVMUpdate>
20001064:	e09c      	b.n	200011a0 <PMSM_FOC_MSM+0x294>
20001066:	6aa3      	ldr	r3, [r4, #40]	; 0x28
20001068:	6d62      	ldr	r2, [r4, #84]	; 0x54
2000106a:	1c20      	adds	r0, r4, #0
2000106c:	639a      	str	r2, [r3, #56]	; 0x38
2000106e:	f000 fbb3 	bl	200017d8 <__VF_Smooth_Transition_To_FOC_veneer>
20001072:	1c23      	adds	r3, r4, #0
20001074:	33b4      	adds	r3, #180	; 0xb4
20001076:	7018      	strb	r0, [r3, #0]
20001078:	1c20      	adds	r0, r4, #0
2000107a:	f000 fbd5 	bl	20001828 <__PMSM_FOC_METTransition_veneer>
2000107e:	e7eb      	b.n	20001058 <PMSM_FOC_MSM+0x14c>
20001080:	1c20      	adds	r0, r4, #0
20001082:	f000 fbc9 	bl	20001818 <__PMSM_FOC_MotorParamInit_veneer>
20001086:	1c20      	adds	r0, r4, #0
20001088:	f000 fbde 	bl	20001848 <__PMSM_FOC_AmpBiasVoltCalibration_veneer>
2000108c:	1c20      	adds	r0, r4, #0
2000108e:	f000 fbbb 	bl	20001808 <__PMSM_FOC_StopPWMTimer_veneer>
20001092:	1c20      	adds	r0, r4, #0
20001094:	f000 fba8 	bl	200017e8 <__PMSM_FOC_StartPWMTimer_veneer>
20001098:	6860      	ldr	r0, [r4, #4]
2000109a:	f000 fbad 	bl	200017f8 <__PWM_SVM_InverterEnable_veneer>
2000109e:	21f0      	movs	r1, #240	; 0xf0
200010a0:	6863      	ldr	r3, [r4, #4]
200010a2:	0349      	lsls	r1, r1, #13
200010a4:	689b      	ldr	r3, [r3, #8]
200010a6:	6818      	ldr	r0, [r3, #0]
200010a8:	f000 fb86 	bl	200017b8 <__XMC_CCU8_SLICE_SetOutPath_veneer>
200010ac:	21f0      	movs	r1, #240	; 0xf0
200010ae:	6863      	ldr	r3, [r4, #4]
200010b0:	0349      	lsls	r1, r1, #13
200010b2:	68db      	ldr	r3, [r3, #12]
200010b4:	6818      	ldr	r0, [r3, #0]
200010b6:	f000 fb7f 	bl	200017b8 <__XMC_CCU8_SLICE_SetOutPath_veneer>
200010ba:	21f0      	movs	r1, #240	; 0xf0
200010bc:	6863      	ldr	r3, [r4, #4]
200010be:	0349      	lsls	r1, r1, #13
200010c0:	691b      	ldr	r3, [r3, #16]
200010c2:	6818      	ldr	r0, [r3, #0]
200010c4:	f000 fb78 	bl	200017b8 <__XMC_CCU8_SLICE_SetOutPath_veneer>
200010c8:	6ca3      	ldr	r3, [r4, #72]	; 0x48
200010ca:	2b00      	cmp	r3, #0
200010cc:	d009      	beq.n	200010e2 <PMSM_FOC_MSM+0x1d6>
200010ce:	1c20      	adds	r0, r4, #0
200010d0:	f000 fbc2 	bl	20001858 <__PMSM_FOC_BootstrapConfiguration_veneer>
200010d4:	2309      	movs	r3, #9
200010d6:	e05e      	b.n	20001196 <PMSM_FOC_MSM+0x28a>
200010d8:	1c20      	adds	r0, r4, #0
200010da:	f000 fbc5 	bl	20001868 <__PMSM_FOC_Bootstrap_veneer>
200010de:	2801      	cmp	r0, #1
200010e0:	d15e      	bne.n	200011a0 <PMSM_FOC_MSM+0x294>
200010e2:	2302      	movs	r3, #2
200010e4:	e057      	b.n	20001196 <PMSM_FOC_MSM+0x28a>
200010e6:	1c20      	adds	r0, r4, #0
200010e8:	f000 fb8e 	bl	20001808 <__PMSM_FOC_StopPWMTimer_veneer>
200010ec:	6822      	ldr	r2, [r4, #0]
200010ee:	1c13      	adds	r3, r2, #0
200010f0:	3347      	adds	r3, #71	; 0x47
200010f2:	781b      	ldrb	r3, [r3, #0]
200010f4:	09db      	lsrs	r3, r3, #7
200010f6:	d001      	beq.n	200010fc <PMSM_FOC_MSM+0x1f0>
200010f8:	230a      	movs	r3, #10
200010fa:	e007      	b.n	2000110c <PMSM_FOC_MSM+0x200>
200010fc:	6a53      	ldr	r3, [r2, #36]	; 0x24
200010fe:	1c22      	adds	r2, r4, #0
20001100:	3288      	adds	r2, #136	; 0x88
20001102:	6812      	ldr	r2, [r2, #0]
20001104:	1d21      	adds	r1, r4, #4
20001106:	4093      	lsls	r3, r2
20001108:	67cb      	str	r3, [r1, #124]	; 0x7c
2000110a:	230b      	movs	r3, #11
2000110c:	1c22      	adds	r2, r4, #0
2000110e:	702b      	strb	r3, [r5, #0]
20001110:	2300      	movs	r3, #0
20001112:	32b4      	adds	r2, #180	; 0xb4
20001114:	7013      	strb	r3, [r2, #0]
20001116:	3a14      	subs	r2, #20
20001118:	6013      	str	r3, [r2, #0]
2000111a:	6aa2      	ldr	r2, [r4, #40]	; 0x28
2000111c:	67a3      	str	r3, [r4, #120]	; 0x78
2000111e:	6860      	ldr	r0, [r4, #4]
20001120:	62d3      	str	r3, [r2, #44]	; 0x2c
20001122:	6313      	str	r3, [r2, #48]	; 0x30
20001124:	6353      	str	r3, [r2, #52]	; 0x34
20001126:	f000 fba7 	bl	20001878 <__PWM_SVM_Start_veneer>
2000112a:	e039      	b.n	200011a0 <PMSM_FOC_MSM+0x294>
2000112c:	6823      	ldr	r3, [r4, #0]
2000112e:	6ba2      	ldr	r2, [r4, #56]	; 0x38
20001130:	6b5b      	ldr	r3, [r3, #52]	; 0x34
20001132:	429a      	cmp	r2, r3
20001134:	dd00      	ble.n	20001138 <PMSM_FOC_MSM+0x22c>
20001136:	63a3      	str	r3, [r4, #56]	; 0x38
20001138:	1c20      	adds	r0, r4, #0
2000113a:	f000 fb7d 	bl	20001838 <__PMSM_FOC_Vf_Open_Loop_veneer>
2000113e:	6de3      	ldr	r3, [r4, #92]	; 0x5c
20001140:	6860      	ldr	r0, [r4, #4]
20001142:	b299      	uxth	r1, r3
20001144:	6da2      	ldr	r2, [r4, #88]	; 0x58
20001146:	f7ff fe81 	bl	20000e4c <PWM_SVM_SVMUpdate>
2000114a:	6823      	ldr	r3, [r4, #0]
2000114c:	6b99      	ldr	r1, [r3, #56]	; 0x38
2000114e:	6ba3      	ldr	r3, [r4, #56]	; 0x38
20001150:	428b      	cmp	r3, r1
20001152:	da25      	bge.n	200011a0 <PMSM_FOC_MSM+0x294>
20001154:	1c20      	adds	r0, r4, #0
20001156:	f7ff fe8b 	bl	20000e70 <PMSM_FOC_SpeedLowLimit>
2000115a:	e021      	b.n	200011a0 <PMSM_FOC_MSM+0x294>
2000115c:	6823      	ldr	r3, [r4, #0]
2000115e:	6ba2      	ldr	r2, [r4, #56]	; 0x38
20001160:	6b1b      	ldr	r3, [r3, #48]	; 0x30
20001162:	429a      	cmp	r2, r3
20001164:	dd1c      	ble.n	200011a0 <PMSM_FOC_MSM+0x294>
20001166:	2300      	movs	r3, #0
20001168:	21f0      	movs	r1, #240	; 0xf0
2000116a:	63e3      	str	r3, [r4, #60]	; 0x3c
2000116c:	6863      	ldr	r3, [r4, #4]
2000116e:	0349      	lsls	r1, r1, #13
20001170:	689b      	ldr	r3, [r3, #8]
20001172:	6818      	ldr	r0, [r3, #0]
20001174:	f000 fb20 	bl	200017b8 <__XMC_CCU8_SLICE_SetOutPath_veneer>
20001178:	21f0      	movs	r1, #240	; 0xf0
2000117a:	6863      	ldr	r3, [r4, #4]
2000117c:	0349      	lsls	r1, r1, #13
2000117e:	68db      	ldr	r3, [r3, #12]
20001180:	6818      	ldr	r0, [r3, #0]
20001182:	f000 fb19 	bl	200017b8 <__XMC_CCU8_SLICE_SetOutPath_veneer>
20001186:	21f0      	movs	r1, #240	; 0xf0
20001188:	6863      	ldr	r3, [r4, #4]
2000118a:	0349      	lsls	r1, r1, #13
2000118c:	691b      	ldr	r3, [r3, #16]
2000118e:	6818      	ldr	r0, [r3, #0]
20001190:	f000 fb12 	bl	200017b8 <__XMC_CCU8_SLICE_SetOutPath_veneer>
20001194:	2301      	movs	r3, #1
20001196:	702b      	strb	r3, [r5, #0]
20001198:	e002      	b.n	200011a0 <PMSM_FOC_MSM+0x294>
2000119a:	1c20      	adds	r0, r4, #0
2000119c:	f000 fb04 	bl	200017a8 <__PMSM_FOC_MotorStop_veneer>
200011a0:	bdf8      	pop	{r3, r4, r5, r6, r7, pc}

200011a2 <CCU80_0_IRQHandler>:
200011a2:	4823      	ldr	r0, [pc, #140]	; (20001230 <CCU80_0_IRQHandler+0x8e>)
200011a4:	b538      	push	{r3, r4, r5, lr}
200011a6:	6943      	ldr	r3, [r0, #20]
200011a8:	6a84      	ldr	r4, [r0, #40]	; 0x28
200011aa:	1c1a      	adds	r2, r3, #0
200011ac:	329d      	adds	r2, #157	; 0x9d
200011ae:	7812      	ldrb	r2, [r2, #0]
200011b0:	6f99      	ldr	r1, [r3, #120]	; 0x78
200011b2:	32c0      	adds	r2, #192	; 0xc0
200011b4:	0092      	lsls	r2, r2, #2
200011b6:	5851      	ldr	r1, [r2, r1]
200011b8:	1c02      	adds	r2, r0, #0
200011ba:	32ac      	adds	r2, #172	; 0xac
200011bc:	8812      	ldrh	r2, [r2, #0]
200011be:	b289      	uxth	r1, r1
200011c0:	1a51      	subs	r1, r2, r1
200011c2:	00c9      	lsls	r1, r1, #3
200011c4:	62e1      	str	r1, [r4, #44]	; 0x2c
200011c6:	1c01      	adds	r1, r0, #0
200011c8:	31b7      	adds	r1, #183	; 0xb7
200011ca:	7809      	ldrb	r1, [r1, #0]
200011cc:	1c0d      	adds	r5, r1, #0
200011ce:	1859      	adds	r1, r3, r1
200011d0:	3198      	adds	r1, #152	; 0x98
200011d2:	7949      	ldrb	r1, [r1, #5]
200011d4:	351e      	adds	r5, #30
200011d6:	00ad      	lsls	r5, r5, #2
200011d8:	58ed      	ldr	r5, [r5, r3]
200011da:	31c0      	adds	r1, #192	; 0xc0
200011dc:	0089      	lsls	r1, r1, #2
200011de:	5949      	ldr	r1, [r1, r5]
200011e0:	b289      	uxth	r1, r1
200011e2:	1a51      	subs	r1, r2, r1
200011e4:	00c9      	lsls	r1, r1, #3
200011e6:	6321      	str	r1, [r4, #48]	; 0x30
200011e8:	1c01      	adds	r1, r0, #0
200011ea:	31b8      	adds	r1, #184	; 0xb8
200011ec:	7809      	ldrb	r1, [r1, #0]
200011ee:	1c0d      	adds	r5, r1, #0
200011f0:	1859      	adds	r1, r3, r1
200011f2:	3198      	adds	r1, #152	; 0x98
200011f4:	7949      	ldrb	r1, [r1, #5]
200011f6:	351e      	adds	r5, #30
200011f8:	00ad      	lsls	r5, r5, #2
200011fa:	58ed      	ldr	r5, [r5, r3]
200011fc:	31c0      	adds	r1, #192	; 0xc0
200011fe:	0089      	lsls	r1, r1, #2
20001200:	5949      	ldr	r1, [r1, r5]
20001202:	b289      	uxth	r1, r1
20001204:	1a52      	subs	r2, r2, r1
20001206:	00d2      	lsls	r2, r2, #3
20001208:	6362      	str	r2, [r4, #52]	; 0x34
2000120a:	1c1a      	adds	r2, r3, #0
2000120c:	33a1      	adds	r3, #161	; 0xa1
2000120e:	781b      	ldrb	r3, [r3, #0]
20001210:	3288      	adds	r2, #136	; 0x88
20001212:	6812      	ldr	r2, [r2, #0]
20001214:	33c0      	adds	r3, #192	; 0xc0
20001216:	009b      	lsls	r3, r3, #2
20001218:	589b      	ldr	r3, [r3, r2]
2000121a:	6802      	ldr	r2, [r0, #0]
2000121c:	b29b      	uxth	r3, r3
2000121e:	6812      	ldr	r2, [r2, #0]
20001220:	4353      	muls	r3, r2
20001222:	1c02      	adds	r2, r0, #0
20001224:	0a9b      	lsrs	r3, r3, #10
20001226:	32a8      	adds	r2, #168	; 0xa8
20001228:	8013      	strh	r3, [r2, #0]
2000122a:	f7ff fe6f 	bl	20000f0c <PMSM_FOC_MSM>
2000122e:	bd38      	pop	{r3, r4, r5, pc}
20001230:	200006a0 	.word	0x200006a0

20001234 <FOC_Controller_LIB>:
20001234:	b5f0      	push	{r4, r5, r6, r7, lr}
20001236:	4656      	mov	r6, sl
20001238:	465f      	mov	r7, fp
2000123a:	464d      	mov	r5, r9
2000123c:	4644      	mov	r4, r8
2000123e:	2270      	movs	r2, #112	; 0x70
20001240:	b4f0      	push	{r4, r5, r6, r7}
20001242:	4bd0      	ldr	r3, [pc, #832]	; (20001584 <FOC_Controller_LIB+0x350>)
20001244:	b08b      	sub	sp, #44	; 0x2c
20001246:	469a      	mov	sl, r3
20001248:	681b      	ldr	r3, [r3, #0]
2000124a:	9001      	str	r0, [sp, #4]
2000124c:	5c9a      	ldrb	r2, [r3, r2]
2000124e:	2a00      	cmp	r2, #0
20001250:	d165      	bne.n	2000131e <FOC_Controller_LIB+0xea>
20001252:	6b19      	ldr	r1, [r3, #48]	; 0x30
20001254:	6b5d      	ldr	r5, [r3, #52]	; 0x34
20001256:	6ad8      	ldr	r0, [r3, #44]	; 0x2c
20001258:	194e      	adds	r6, r1, r5
2000125a:	0044      	lsls	r4, r0, #1
2000125c:	1ba4      	subs	r4, r4, r6
2000125e:	4eca      	ldr	r6, [pc, #808]	; (20001588 <FOC_Controller_LIB+0x354>)
20001260:	4aca      	ldr	r2, [pc, #808]	; (2000158c <FOC_Controller_LIB+0x358>)
20001262:	4374      	muls	r4, r6
20001264:	4693      	mov	fp, r2
20001266:	6812      	ldr	r2, [r2, #0]
20001268:	1b49      	subs	r1, r1, r5
2000126a:	4dc9      	ldr	r5, [pc, #804]	; (20001590 <FOC_Controller_LIB+0x35c>)
2000126c:	6014      	str	r4, [r2, #0]
2000126e:	4369      	muls	r1, r5
20001270:	6051      	str	r1, [r2, #4]
20001272:	266a      	movs	r6, #106	; 0x6a
20001274:	4dc7      	ldr	r5, [pc, #796]	; (20001594 <FOC_Controller_LIB+0x360>)
20001276:	646e      	str	r6, [r5, #68]	; 0x44
20001278:	6d18      	ldr	r0, [r3, #80]	; 0x50
2000127a:	6528      	str	r0, [r5, #80]	; 0x50
2000127c:	64ec      	str	r4, [r5, #76]	; 0x4c
2000127e:	64a9      	str	r1, [r5, #72]	; 0x48
20001280:	6bd8      	ldr	r0, [r3, #60]	; 0x3c
20001282:	2800      	cmp	r0, #0
20001284:	d104      	bne.n	20001290 <FOC_Controller_LIB+0x5c>
20001286:	254c      	movs	r5, #76	; 0x4c
20001288:	5d5d      	ldrb	r5, [r3, r5]
2000128a:	2d00      	cmp	r5, #0
2000128c:	d100      	bne.n	20001290 <FOC_Controller_LIB+0x5c>
2000128e:	e19a      	b.n	200015c6 <FOC_Controller_LIB+0x392>
20001290:	2701      	movs	r7, #1
20001292:	4ec1      	ldr	r6, [pc, #772]	; (20001598 <FOC_Controller_LIB+0x364>)
20001294:	6c98      	ldr	r0, [r3, #72]	; 0x48
20001296:	6835      	ldr	r5, [r6, #0]
20001298:	6068      	str	r0, [r5, #4]
2000129a:	48be      	ldr	r0, [pc, #760]	; (20001594 <FOC_Controller_LIB+0x360>)
2000129c:	4684      	mov	ip, r0
2000129e:	9801      	ldr	r0, [sp, #4]
200012a0:	4665      	mov	r5, ip
200012a2:	6c2d      	ldr	r5, [r5, #64]	; 0x40
200012a4:	422f      	tst	r7, r5
200012a6:	d1fb      	bne.n	200012a0 <FOC_Controller_LIB+0x6c>
200012a8:	9001      	str	r0, [sp, #4]
200012aa:	4dba      	ldr	r5, [pc, #744]	; (20001594 <FOC_Controller_LIB+0x360>)
200012ac:	6d68      	ldr	r0, [r5, #84]	; 0x54
200012ae:	6daf      	ldr	r7, [r5, #88]	; 0x58
200012b0:	4684      	mov	ip, r0
200012b2:	2062      	movs	r0, #98	; 0x62
200012b4:	6468      	str	r0, [r5, #68]	; 0x44
200012b6:	6a98      	ldr	r0, [r3, #40]	; 0x28
200012b8:	13bf      	asrs	r7, r7, #14
200012ba:	4240      	negs	r0, r0
200012bc:	6528      	str	r0, [r5, #80]	; 0x50
200012be:	64e9      	str	r1, [r5, #76]	; 0x4c
200012c0:	4661      	mov	r1, ip
200012c2:	64ac      	str	r4, [r5, #72]	; 0x48
200012c4:	138c      	asrs	r4, r1, #14
200012c6:	2138      	movs	r1, #56	; 0x38
200012c8:	31ff      	adds	r1, #255	; 0xff
200012ca:	434c      	muls	r4, r1
200012cc:	4379      	muls	r1, r7
200012ce:	6bd8      	ldr	r0, [r3, #60]	; 0x3c
200012d0:	1224      	asrs	r4, r4, #8
200012d2:	1209      	asrs	r1, r1, #8
200012d4:	60d4      	str	r4, [r2, #12]
200012d6:	6091      	str	r1, [r2, #8]
200012d8:	2800      	cmp	r0, #0
200012da:	d131      	bne.n	20001340 <FOC_Controller_LIB+0x10c>
200012dc:	6835      	ldr	r5, [r6, #0]
200012de:	48af      	ldr	r0, [pc, #700]	; (2000159c <FOC_Controller_LIB+0x368>)
200012e0:	686e      	ldr	r6, [r5, #4]
200012e2:	6805      	ldr	r5, [r0, #0]
200012e4:	9007      	str	r0, [sp, #28]
200012e6:	1b34      	subs	r4, r6, r4
200012e8:	8cae      	ldrh	r6, [r5, #36]	; 0x24
200012ea:	2e00      	cmp	r6, #0
200012ec:	d100      	bne.n	200012f0 <FOC_Controller_LIB+0xbc>
200012ee:	e13a      	b.n	20001566 <FOC_Controller_LIB+0x332>
200012f0:	68ae      	ldr	r6, [r5, #8]
200012f2:	89a8      	ldrh	r0, [r5, #12]
200012f4:	4344      	muls	r4, r0
200012f6:	19a6      	adds	r6, r4, r6
200012f8:	2010      	movs	r0, #16
200012fa:	5e2c      	ldrsh	r4, [r5, r0]
200012fc:	4126      	asrs	r6, r4
200012fe:	6a2c      	ldr	r4, [r5, #32]
20001300:	42a6      	cmp	r6, r4
20001302:	dd00      	ble.n	20001306 <FOC_Controller_LIB+0xd2>
20001304:	e1a6      	b.n	20001654 <FOC_Controller_LIB+0x420>
20001306:	69e8      	ldr	r0, [r5, #28]
20001308:	1e34      	subs	r4, r6, #0
2000130a:	4284      	cmp	r4, r0
2000130c:	da00      	bge.n	20001310 <FOC_Controller_LIB+0xdc>
2000130e:	e20f      	b.n	20001730 <FOC_Controller_LIB+0x4fc>
20001310:	606c      	str	r4, [r5, #4]
20001312:	42a6      	cmp	r6, r4
20001314:	d000      	beq.n	20001318 <FOC_Controller_LIB+0xe4>
20001316:	e19e      	b.n	20001656 <FOC_Controller_LIB+0x422>
20001318:	2400      	movs	r4, #0
2000131a:	84ac      	strh	r4, [r5, #36]	; 0x24
2000131c:	e01c      	b.n	20001358 <FOC_Controller_LIB+0x124>
2000131e:	226e      	movs	r2, #110	; 0x6e
20001320:	5a9a      	ldrh	r2, [r3, r2]
20001322:	2a02      	cmp	r2, #2
20001324:	d900      	bls.n	20001328 <FOC_Controller_LIB+0xf4>
20001326:	e1ce      	b.n	200016c6 <FOC_Controller_LIB+0x492>
20001328:	2a00      	cmp	r2, #0
2000132a:	d000      	beq.n	2000132e <FOC_Controller_LIB+0xfa>
2000132c:	e20b      	b.n	20001746 <FOC_Controller_LIB+0x512>
2000132e:	6b19      	ldr	r1, [r3, #48]	; 0x30
20001330:	6b5d      	ldr	r5, [r3, #52]	; 0x34
20001332:	4a96      	ldr	r2, [pc, #600]	; (2000158c <FOC_Controller_LIB+0x358>)
20001334:	194c      	adds	r4, r1, r5
20001336:	4264      	negs	r4, r4
20001338:	4693      	mov	fp, r2
2000133a:	03a4      	lsls	r4, r4, #14
2000133c:	6812      	ldr	r2, [r2, #0]
2000133e:	e793      	b.n	20001268 <FOC_Controller_LIB+0x34>
20001340:	2601      	movs	r6, #1
20001342:	4896      	ldr	r0, [pc, #600]	; (2000159c <FOC_Controller_LIB+0x368>)
20001344:	6804      	ldr	r4, [r0, #0]
20001346:	1c07      	adds	r7, r0, #0
20001348:	6c18      	ldr	r0, [r3, #64]	; 0x40
2000134a:	6060      	str	r0, [r4, #4]
2000134c:	9801      	ldr	r0, [sp, #4]
2000134e:	6c2c      	ldr	r4, [r5, #64]	; 0x40
20001350:	4226      	tst	r6, r4
20001352:	d1fc      	bne.n	2000134e <FOC_Controller_LIB+0x11a>
20001354:	9001      	str	r0, [sp, #4]
20001356:	9707      	str	r7, [sp, #28]
20001358:	206a      	movs	r0, #106	; 0x6a
2000135a:	4c8e      	ldr	r4, [pc, #568]	; (20001594 <FOC_Controller_LIB+0x360>)
2000135c:	6d65      	ldr	r5, [r4, #84]	; 0x54
2000135e:	6de6      	ldr	r6, [r4, #92]	; 0x5c
20001360:	6460      	str	r0, [r4, #68]	; 0x44
20001362:	6526      	str	r6, [r4, #80]	; 0x50
20001364:	2600      	movs	r6, #0
20001366:	64e6      	str	r6, [r4, #76]	; 0x4c
20001368:	6a58      	ldr	r0, [r3, #36]	; 0x24
2000136a:	0bad      	lsrs	r5, r5, #14
2000136c:	64a0      	str	r0, [r4, #72]	; 0x48
2000136e:	2438      	movs	r4, #56	; 0x38
20001370:	34ff      	adds	r4, #255	; 0xff
20001372:	436c      	muls	r4, r5
20001374:	46a4      	mov	ip, r4
20001376:	895c      	ldrh	r4, [r3, #10]
20001378:	8818      	ldrh	r0, [r3, #0]
2000137a:	1c26      	adds	r6, r4, #0
2000137c:	2401      	movs	r4, #1
2000137e:	40b4      	lsls	r4, r6
20001380:	3c01      	subs	r4, #1
20001382:	9404      	str	r4, [sp, #16]
20001384:	1c27      	adds	r7, r4, #0
20001386:	4c86      	ldr	r4, [pc, #536]	; (200015a0 <FOC_Controller_LIB+0x36c>)
20001388:	9602      	str	r6, [sp, #8]
2000138a:	6824      	ldr	r4, [r4, #0]
2000138c:	891e      	ldrh	r6, [r3, #8]
2000138e:	6865      	ldr	r5, [r4, #4]
20001390:	4681      	mov	r9, r0
20001392:	4135      	asrs	r5, r6
20001394:	9603      	str	r6, [sp, #12]
20001396:	1c2e      	adds	r6, r5, #0
20001398:	464d      	mov	r5, r9
2000139a:	436e      	muls	r6, r5
2000139c:	4665      	mov	r5, ip
2000139e:	0a2d      	lsrs	r5, r5, #8
200013a0:	4375      	muls	r5, r6
200013a2:	8898      	ldrh	r0, [r3, #4]
200013a4:	9e02      	ldr	r6, [sp, #8]
200013a6:	40c5      	lsrs	r5, r0
200013a8:	9008      	str	r0, [sp, #32]
200013aa:	6a18      	ldr	r0, [r3, #32]
200013ac:	4378      	muls	r0, r7
200013ae:	182d      	adds	r5, r5, r0
200013b0:	40f5      	lsrs	r5, r6
200013b2:	6d98      	ldr	r0, [r3, #88]	; 0x58
200013b4:	9505      	str	r5, [sp, #20]
200013b6:	621d      	str	r5, [r3, #32]
200013b8:	2800      	cmp	r0, #0
200013ba:	d000      	beq.n	200013be <FOC_Controller_LIB+0x18a>
200013bc:	e0c6      	b.n	2000154c <FOC_Controller_LIB+0x318>
200013be:	6c58      	ldr	r0, [r3, #68]	; 0x44
200013c0:	4684      	mov	ip, r0
200013c2:	4660      	mov	r0, ip
200013c4:	4d77      	ldr	r5, [pc, #476]	; (200015a4 <FOC_Controller_LIB+0x370>)
200013c6:	1a41      	subs	r1, r0, r1
200013c8:	682d      	ldr	r5, [r5, #0]
200013ca:	8cae      	ldrh	r6, [r5, #36]	; 0x24
200013cc:	2e00      	cmp	r6, #0
200013ce:	d10e      	bne.n	200013ee <FOC_Controller_LIB+0x1ba>
200013d0:	68a8      	ldr	r0, [r5, #8]
200013d2:	89ee      	ldrh	r6, [r5, #14]
200013d4:	4680      	mov	r8, r0
200013d6:	434e      	muls	r6, r1
200013d8:	44b0      	add	r8, r6
200013da:	69ae      	ldr	r6, [r5, #24]
200013dc:	45b0      	cmp	r8, r6
200013de:	dc04      	bgt.n	200013ea <FOC_Controller_LIB+0x1b6>
200013e0:	4646      	mov	r6, r8
200013e2:	6968      	ldr	r0, [r5, #20]
200013e4:	4286      	cmp	r6, r0
200013e6:	da00      	bge.n	200013ea <FOC_Controller_LIB+0x1b6>
200013e8:	1c06      	adds	r6, r0, #0
200013ea:	60ae      	str	r6, [r5, #8]
200013ec:	e000      	b.n	200013f0 <FOC_Controller_LIB+0x1bc>
200013ee:	68ae      	ldr	r6, [r5, #8]
200013f0:	89a8      	ldrh	r0, [r5, #12]
200013f2:	4341      	muls	r1, r0
200013f4:	198e      	adds	r6, r1, r6
200013f6:	2010      	movs	r0, #16
200013f8:	5e29      	ldrsh	r1, [r5, r0]
200013fa:	6a28      	ldr	r0, [r5, #32]
200013fc:	410e      	asrs	r6, r1
200013fe:	9009      	str	r0, [sp, #36]	; 0x24
20001400:	1e31      	subs	r1, r6, #0
20001402:	4281      	cmp	r1, r0
20001404:	dc00      	bgt.n	20001408 <FOC_Controller_LIB+0x1d4>
20001406:	e0d1      	b.n	200015ac <FOC_Controller_LIB+0x378>
20001408:	9909      	ldr	r1, [sp, #36]	; 0x24
2000140a:	6069      	str	r1, [r5, #4]
2000140c:	2101      	movs	r1, #1
2000140e:	84a9      	strh	r1, [r5, #36]	; 0x24
20001410:	2047      	movs	r0, #71	; 0x47
20001412:	4680      	mov	r8, r0
20001414:	4647      	mov	r7, r8
20001416:	495f      	ldr	r1, [pc, #380]	; (20001594 <FOC_Controller_LIB+0x360>)
20001418:	6d89      	ldr	r1, [r1, #88]	; 0x58
2000141a:	9106      	str	r1, [sp, #24]
2000141c:	9901      	ldr	r1, [sp, #4]
2000141e:	6808      	ldr	r0, [r1, #0]
20001420:	5dc0      	ldrb	r0, [r0, r7]
20001422:	0640      	lsls	r0, r0, #25
20001424:	d500      	bpl.n	20001428 <FOC_Controller_LIB+0x1f4>
20001426:	e119      	b.n	2000165c <FOC_Controller_LIB+0x428>
20001428:	9907      	ldr	r1, [sp, #28]
2000142a:	686e      	ldr	r6, [r5, #4]
2000142c:	680f      	ldr	r7, [r1, #0]
2000142e:	2062      	movs	r0, #98	; 0x62
20001430:	4d58      	ldr	r5, [pc, #352]	; (20001594 <FOC_Controller_LIB+0x360>)
20001432:	03b6      	lsls	r6, r6, #14
20001434:	6468      	str	r0, [r5, #68]	; 0x44
20001436:	6d18      	ldr	r0, [r3, #80]	; 0x50
20001438:	9906      	ldr	r1, [sp, #24]
2000143a:	6528      	str	r0, [r5, #80]	; 0x50
2000143c:	687f      	ldr	r7, [r7, #4]
2000143e:	4680      	mov	r8, r0
20001440:	03bf      	lsls	r7, r7, #14
20001442:	64ef      	str	r7, [r5, #76]	; 0x4c
20001444:	64ae      	str	r6, [r5, #72]	; 0x48
20001446:	2538      	movs	r5, #56	; 0x38
20001448:	69d8      	ldr	r0, [r3, #28]
2000144a:	35ff      	adds	r5, #255	; 0xff
2000144c:	1389      	asrs	r1, r1, #14
2000144e:	9f04      	ldr	r7, [sp, #16]
20001450:	4369      	muls	r1, r5
20001452:	4347      	muls	r7, r0
20001454:	1209      	asrs	r1, r1, #8
20001456:	187e      	adds	r6, r7, r1
20001458:	9902      	ldr	r1, [sp, #8]
2000145a:	410e      	asrs	r6, r1
2000145c:	9905      	ldr	r1, [sp, #20]
2000145e:	61de      	str	r6, [r3, #28]
20001460:	4689      	mov	r9, r1
20001462:	68a1      	ldr	r1, [r4, #8]
20001464:	444e      	add	r6, r9
20001466:	4689      	mov	r9, r1
20001468:	89e5      	ldrh	r5, [r4, #14]
2000146a:	4276      	negs	r6, r6
2000146c:	4375      	muls	r5, r6
2000146e:	69a1      	ldr	r1, [r4, #24]
20001470:	444d      	add	r5, r9
20001472:	428d      	cmp	r5, r1
20001474:	dc04      	bgt.n	20001480 <FOC_Controller_LIB+0x24c>
20001476:	6967      	ldr	r7, [r4, #20]
20001478:	1e29      	subs	r1, r5, #0
2000147a:	42b9      	cmp	r1, r7
2000147c:	da00      	bge.n	20001480 <FOC_Controller_LIB+0x24c>
2000147e:	1c39      	adds	r1, r7, #0
20001480:	89a5      	ldrh	r5, [r4, #12]
20001482:	60a1      	str	r1, [r4, #8]
20001484:	436e      	muls	r6, r5
20001486:	198e      	adds	r6, r1, r6
20001488:	2010      	movs	r0, #16
2000148a:	5e21      	ldrsh	r1, [r4, r0]
2000148c:	410e      	asrs	r6, r1
2000148e:	6a21      	ldr	r1, [r4, #32]
20001490:	428e      	cmp	r6, r1
20001492:	dc04      	bgt.n	2000149e <FOC_Controller_LIB+0x26a>
20001494:	69e5      	ldr	r5, [r4, #28]
20001496:	1e31      	subs	r1, r6, #0
20001498:	42a9      	cmp	r1, r5
2000149a:	da00      	bge.n	2000149e <FOC_Controller_LIB+0x26a>
2000149c:	1c29      	adds	r1, r5, #0
2000149e:	6061      	str	r1, [r4, #4]
200014a0:	2410      	movs	r4, #16
200014a2:	9803      	ldr	r0, [sp, #12]
200014a4:	1a24      	subs	r4, r4, r0
200014a6:	1c08      	adds	r0, r1, #0
200014a8:	40a0      	lsls	r0, r4
200014aa:	1c04      	adds	r4, r0, #0
200014ac:	4444      	add	r4, r8
200014ae:	651c      	str	r4, [r3, #80]	; 0x50
200014b0:	245c      	movs	r4, #92	; 0x5c
200014b2:	5b1c      	ldrh	r4, [r3, r4]
200014b4:	2c00      	cmp	r4, #0
200014b6:	d100      	bne.n	200014ba <FOC_Controller_LIB+0x286>
200014b8:	e103      	b.n	200016c2 <FOC_Controller_LIB+0x48e>
200014ba:	68d2      	ldr	r2, [r2, #12]
200014bc:	6e9d      	ldr	r5, [r3, #104]	; 0x68
200014be:	4362      	muls	r2, r4
200014c0:	245e      	movs	r4, #94	; 0x5e
200014c2:	5b1c      	ldrh	r4, [r3, r4]
200014c4:	4122      	asrs	r2, r4
200014c6:	4565      	cmp	r5, ip
200014c8:	dd0d      	ble.n	200014e6 <FOC_Controller_LIB+0x2b2>
200014ca:	436a      	muls	r2, r5
200014cc:	4c31      	ldr	r4, [pc, #196]	; (20001594 <FOC_Controller_LIB+0x360>)
200014ce:	4e36      	ldr	r6, [pc, #216]	; (200015a8 <FOC_Controller_LIB+0x374>)
200014d0:	9801      	ldr	r0, [sp, #4]
200014d2:	6366      	str	r6, [r4, #52]	; 0x34
200014d4:	6222      	str	r2, [r4, #32]
200014d6:	4662      	mov	r2, ip
200014d8:	6262      	str	r2, [r4, #36]	; 0x24
200014da:	6b22      	ldr	r2, [r4, #48]	; 0x30
200014dc:	2a00      	cmp	r2, #0
200014de:	d1fc      	bne.n	200014da <FOC_Controller_LIB+0x2a6>
200014e0:	4a2c      	ldr	r2, [pc, #176]	; (20001594 <FOC_Controller_LIB+0x360>)
200014e2:	9001      	str	r0, [sp, #4]
200014e4:	6a92      	ldr	r2, [r2, #40]	; 0x28
200014e6:	6e1c      	ldr	r4, [r3, #96]	; 0x60
200014e8:	42a2      	cmp	r2, r4
200014ea:	dc02      	bgt.n	200014f2 <FOC_Controller_LIB+0x2be>
200014ec:	43d4      	mvns	r4, r2
200014ee:	17e4      	asrs	r4, r4, #31
200014f0:	4014      	ands	r4, r2
200014f2:	1b09      	subs	r1, r1, r4
200014f4:	43ca      	mvns	r2, r1
200014f6:	899c      	ldrh	r4, [r3, #12]
200014f8:	17d2      	asrs	r2, r2, #31
200014fa:	4011      	ands	r1, r2
200014fc:	2201      	movs	r2, #1
200014fe:	40a2      	lsls	r2, r4
20001500:	6d58      	ldr	r0, [r3, #84]	; 0x54
20001502:	3a01      	subs	r2, #1
20001504:	4342      	muls	r2, r0
20001506:	1889      	adds	r1, r1, r2
20001508:	40e1      	lsrs	r1, r4
2000150a:	6559      	str	r1, [r3, #84]	; 0x54
2000150c:	4653      	mov	r3, sl
2000150e:	4a21      	ldr	r2, [pc, #132]	; (20001594 <FOC_Controller_LIB+0x360>)
20001510:	6819      	ldr	r1, [r3, #0]
20001512:	6d53      	ldr	r3, [r2, #84]	; 0x54
20001514:	624b      	str	r3, [r1, #36]	; 0x24
20001516:	6dd4      	ldr	r4, [r2, #92]	; 0x5c
20001518:	2238      	movs	r2, #56	; 0x38
2000151a:	0b9b      	lsrs	r3, r3, #14
2000151c:	32ff      	adds	r2, #255	; 0xff
2000151e:	4353      	muls	r3, r2
20001520:	0a1a      	lsrs	r2, r3, #8
20001522:	0392      	lsls	r2, r2, #14
20001524:	624a      	str	r2, [r1, #36]	; 0x24
20001526:	9a01      	ldr	r2, [sp, #4]
20001528:	0a5b      	lsrs	r3, r3, #9
2000152a:	628c      	str	r4, [r1, #40]	; 0x28
2000152c:	65d3      	str	r3, [r2, #92]	; 0x5c
2000152e:	465b      	mov	r3, fp
20001530:	1224      	asrs	r4, r4, #8
20001532:	6594      	str	r4, [r2, #88]	; 0x58
20001534:	681b      	ldr	r3, [r3, #0]
20001536:	6d4a      	ldr	r2, [r1, #84]	; 0x54
20001538:	611a      	str	r2, [r3, #16]
2000153a:	6d0a      	ldr	r2, [r1, #80]	; 0x50
2000153c:	615a      	str	r2, [r3, #20]
2000153e:	b00b      	add	sp, #44	; 0x2c
20001540:	bc3c      	pop	{r2, r3, r4, r5}
20001542:	4690      	mov	r8, r2
20001544:	4699      	mov	r9, r3
20001546:	46a2      	mov	sl, r4
20001548:	46ab      	mov	fp, r5
2000154a:	bdf0      	pop	{r4, r5, r6, r7, pc}
2000154c:	256c      	movs	r5, #108	; 0x6c
2000154e:	6b98      	ldr	r0, [r3, #56]	; 0x38
20001550:	5b5d      	ldrh	r5, [r3, r5]
20001552:	6e5e      	ldr	r6, [r3, #100]	; 0x64
20001554:	4128      	asrs	r0, r5
20001556:	1835      	adds	r5, r6, r0
20001558:	6e98      	ldr	r0, [r3, #104]	; 0x68
2000155a:	4684      	mov	ip, r0
2000155c:	4285      	cmp	r5, r0
2000155e:	dd72      	ble.n	20001646 <FOC_Controller_LIB+0x412>
20001560:	4660      	mov	r0, ip
20001562:	6458      	str	r0, [r3, #68]	; 0x44
20001564:	e72d      	b.n	200013c2 <FOC_Controller_LIB+0x18e>
20001566:	68a8      	ldr	r0, [r5, #8]
20001568:	89ee      	ldrh	r6, [r5, #14]
2000156a:	4684      	mov	ip, r0
2000156c:	4366      	muls	r6, r4
2000156e:	44b4      	add	ip, r6
20001570:	69ae      	ldr	r6, [r5, #24]
20001572:	45b4      	cmp	ip, r6
20001574:	dc04      	bgt.n	20001580 <FOC_Controller_LIB+0x34c>
20001576:	4666      	mov	r6, ip
20001578:	6968      	ldr	r0, [r5, #20]
2000157a:	4286      	cmp	r6, r0
2000157c:	da00      	bge.n	20001580 <FOC_Controller_LIB+0x34c>
2000157e:	1c06      	adds	r6, r0, #0
20001580:	60ae      	str	r6, [r5, #8]
20001582:	e6b6      	b.n	200012f2 <FOC_Controller_LIB+0xbe>
20001584:	1000962c 	.word	0x1000962c
20001588:	00001555 	.word	0x00001555
2000158c:	10009628 	.word	0x10009628
20001590:	000024f3 	.word	0x000024f3
20001594:	40030000 	.word	0x40030000
20001598:	10009630 	.word	0x10009630
2000159c:	100095d4 	.word	0x100095d4
200015a0:	10009634 	.word	0x10009634
200015a4:	10009624 	.word	0x10009624
200015a8:	00058504 	.word	0x00058504
200015ac:	69e8      	ldr	r0, [r5, #28]
200015ae:	46b0      	mov	r8, r6
200015b0:	4286      	cmp	r6, r0
200015b2:	da00      	bge.n	200015b6 <FOC_Controller_LIB+0x382>
200015b4:	e0b0      	b.n	20001718 <FOC_Controller_LIB+0x4e4>
200015b6:	4640      	mov	r0, r8
200015b8:	6068      	str	r0, [r5, #4]
200015ba:	4541      	cmp	r1, r8
200015bc:	d000      	beq.n	200015c0 <FOC_Controller_LIB+0x38c>
200015be:	e725      	b.n	2000140c <FOC_Controller_LIB+0x1d8>
200015c0:	2100      	movs	r1, #0
200015c2:	84a9      	strh	r1, [r5, #36]	; 0x24
200015c4:	e724      	b.n	20001410 <FOC_Controller_LIB+0x1dc>
200015c6:	6b98      	ldr	r0, [r3, #56]	; 0x38
200015c8:	6d5d      	ldr	r5, [r3, #84]	; 0x54
200015ca:	4e66      	ldr	r6, [pc, #408]	; (20001764 <FOC_Controller_LIB+0x530>)
200015cc:	1b47      	subs	r7, r0, r5
200015ce:	6835      	ldr	r5, [r6, #0]
200015d0:	9702      	str	r7, [sp, #8]
200015d2:	89e8      	ldrh	r0, [r5, #14]
200015d4:	4378      	muls	r0, r7
200015d6:	4684      	mov	ip, r0
200015d8:	68af      	ldr	r7, [r5, #8]
200015da:	9005      	str	r0, [sp, #20]
200015dc:	69a8      	ldr	r0, [r5, #24]
200015de:	4467      	add	r7, ip
200015e0:	4680      	mov	r8, r0
200015e2:	4684      	mov	ip, r0
200015e4:	4287      	cmp	r7, r0
200015e6:	dc04      	bgt.n	200015f2 <FOC_Controller_LIB+0x3be>
200015e8:	6968      	ldr	r0, [r5, #20]
200015ea:	46bc      	mov	ip, r7
200015ec:	4287      	cmp	r7, r0
200015ee:	da00      	bge.n	200015f2 <FOC_Controller_LIB+0x3be>
200015f0:	4684      	mov	ip, r0
200015f2:	4660      	mov	r0, ip
200015f4:	9f02      	ldr	r7, [sp, #8]
200015f6:	60a8      	str	r0, [r5, #8]
200015f8:	89a8      	ldrh	r0, [r5, #12]
200015fa:	4347      	muls	r7, r0
200015fc:	9702      	str	r7, [sp, #8]
200015fe:	2010      	movs	r0, #16
20001600:	5e2f      	ldrsh	r7, [r5, r0]
20001602:	9802      	ldr	r0, [sp, #8]
20001604:	9703      	str	r7, [sp, #12]
20001606:	4460      	add	r0, ip
20001608:	1c07      	adds	r7, r0, #0
2000160a:	9803      	ldr	r0, [sp, #12]
2000160c:	4107      	asrs	r7, r0
2000160e:	6a28      	ldr	r0, [r5, #32]
20001610:	4681      	mov	r9, r0
20001612:	4287      	cmp	r7, r0
20001614:	dc67      	bgt.n	200016e6 <FOC_Controller_LIB+0x4b2>
20001616:	69e8      	ldr	r0, [r5, #28]
20001618:	9706      	str	r7, [sp, #24]
2000161a:	9004      	str	r0, [sp, #16]
2000161c:	4287      	cmp	r7, r0
2000161e:	da00      	bge.n	20001622 <FOC_Controller_LIB+0x3ee>
20001620:	9006      	str	r0, [sp, #24]
20001622:	9806      	ldr	r0, [sp, #24]
20001624:	6068      	str	r0, [r5, #4]
20001626:	8ca8      	ldrh	r0, [r5, #36]	; 0x24
20001628:	2800      	cmp	r0, #0
2000162a:	d060      	beq.n	200016ee <FOC_Controller_LIB+0x4ba>
2000162c:	9804      	ldr	r0, [sp, #16]
2000162e:	46bc      	mov	ip, r7
20001630:	4287      	cmp	r7, r0
20001632:	da00      	bge.n	20001636 <FOC_Controller_LIB+0x402>
20001634:	4684      	mov	ip, r0
20001636:	4660      	mov	r0, ip
20001638:	6068      	str	r0, [r5, #4]
2000163a:	45bc      	cmp	ip, r7
2000163c:	d000      	beq.n	20001640 <FOC_Controller_LIB+0x40c>
2000163e:	e07f      	b.n	20001740 <FOC_Controller_LIB+0x50c>
20001640:	2700      	movs	r7, #0
20001642:	84af      	strh	r7, [r5, #36]	; 0x24
20001644:	e631      	b.n	200012aa <FOC_Controller_LIB+0x76>
20001646:	46ac      	mov	ip, r5
20001648:	42b5      	cmp	r5, r6
2000164a:	da89      	bge.n	20001560 <FOC_Controller_LIB+0x32c>
2000164c:	46b4      	mov	ip, r6
2000164e:	4660      	mov	r0, ip
20001650:	6458      	str	r0, [r3, #68]	; 0x44
20001652:	e6b6      	b.n	200013c2 <FOC_Controller_LIB+0x18e>
20001654:	606c      	str	r4, [r5, #4]
20001656:	2401      	movs	r4, #1
20001658:	84ac      	strh	r4, [r5, #36]	; 0x24
2000165a:	e67d      	b.n	20001358 <FOC_Controller_LIB+0x124>
2000165c:	6860      	ldr	r0, [r4, #4]
2000165e:	9e03      	ldr	r6, [sp, #12]
20001660:	9907      	ldr	r1, [sp, #28]
20001662:	4130      	asrs	r0, r6
20001664:	4680      	mov	r8, r0
20001666:	4648      	mov	r0, r9
20001668:	4646      	mov	r6, r8
2000166a:	4370      	muls	r0, r6
2000166c:	4680      	mov	r8, r0
2000166e:	4646      	mov	r6, r8
20001670:	6890      	ldr	r0, [r2, #8]
20001672:	680f      	ldr	r7, [r1, #0]
20001674:	4370      	muls	r0, r6
20001676:	9e08      	ldr	r6, [sp, #32]
20001678:	4130      	asrs	r0, r6
2000167a:	4681      	mov	r9, r0
2000167c:	4649      	mov	r1, r9
2000167e:	6878      	ldr	r0, [r7, #4]
20001680:	1a40      	subs	r0, r0, r1
20001682:	6078      	str	r0, [r7, #4]
20001684:	4640      	mov	r0, r8
20001686:	68d1      	ldr	r1, [r2, #12]
20001688:	4348      	muls	r0, r1
2000168a:	4130      	asrs	r0, r6
2000168c:	6869      	ldr	r1, [r5, #4]
2000168e:	4680      	mov	r8, r0
20001690:	4689      	mov	r9, r1
20001692:	44c8      	add	r8, r9
20001694:	4641      	mov	r1, r8
20001696:	6069      	str	r1, [r5, #4]
20001698:	6879      	ldr	r1, [r7, #4]
2000169a:	4689      	mov	r9, r1
2000169c:	6a39      	ldr	r1, [r7, #32]
2000169e:	4688      	mov	r8, r1
200016a0:	4589      	cmp	r9, r1
200016a2:	dc03      	bgt.n	200016ac <FOC_Controller_LIB+0x478>
200016a4:	69f9      	ldr	r1, [r7, #28]
200016a6:	4688      	mov	r8, r1
200016a8:	4549      	cmp	r1, r9
200016aa:	db3f      	blt.n	2000172c <FOC_Controller_LIB+0x4f8>
200016ac:	4641      	mov	r1, r8
200016ae:	6079      	str	r1, [r7, #4]
200016b0:	6869      	ldr	r1, [r5, #4]
200016b2:	9e09      	ldr	r6, [sp, #36]	; 0x24
200016b4:	42b1      	cmp	r1, r6
200016b6:	dc02      	bgt.n	200016be <FOC_Controller_LIB+0x48a>
200016b8:	69ee      	ldr	r6, [r5, #28]
200016ba:	428e      	cmp	r6, r1
200016bc:	db33      	blt.n	20001726 <FOC_Controller_LIB+0x4f2>
200016be:	606e      	str	r6, [r5, #4]
200016c0:	e6b5      	b.n	2000142e <FOC_Controller_LIB+0x1fa>
200016c2:	899c      	ldrh	r4, [r3, #12]
200016c4:	e71a      	b.n	200014fc <FOC_Controller_LIB+0x2c8>
200016c6:	2a05      	cmp	r2, #5
200016c8:	d100      	bne.n	200016cc <FOC_Controller_LIB+0x498>
200016ca:	e630      	b.n	2000132e <FOC_Controller_LIB+0xfa>
200016cc:	6b19      	ldr	r1, [r3, #48]	; 0x30
200016ce:	6add      	ldr	r5, [r3, #44]	; 0x2c
200016d0:	0049      	lsls	r1, r1, #1
200016d2:	03ac      	lsls	r4, r5, #14
200016d4:	1869      	adds	r1, r5, r1
200016d6:	4d24      	ldr	r5, [pc, #144]	; (20001768 <FOC_Controller_LIB+0x534>)
200016d8:	4a24      	ldr	r2, [pc, #144]	; (2000176c <FOC_Controller_LIB+0x538>)
200016da:	4369      	muls	r1, r5
200016dc:	4693      	mov	fp, r2
200016de:	6812      	ldr	r2, [r2, #0]
200016e0:	6014      	str	r4, [r2, #0]
200016e2:	6051      	str	r1, [r2, #4]
200016e4:	e5c5      	b.n	20001272 <FOC_Controller_LIB+0x3e>
200016e6:	8caf      	ldrh	r7, [r5, #36]	; 0x24
200016e8:	6068      	str	r0, [r5, #4]
200016ea:	2f00      	cmp	r7, #0
200016ec:	d126      	bne.n	2000173c <FOC_Controller_LIB+0x508>
200016ee:	9805      	ldr	r0, [sp, #20]
200016f0:	4460      	add	r0, ip
200016f2:	1c07      	adds	r7, r0, #0
200016f4:	4580      	cmp	r8, r0
200016f6:	db03      	blt.n	20001700 <FOC_Controller_LIB+0x4cc>
200016f8:	6968      	ldr	r0, [r5, #20]
200016fa:	46b8      	mov	r8, r7
200016fc:	4287      	cmp	r7, r0
200016fe:	db2f      	blt.n	20001760 <FOC_Controller_LIB+0x52c>
20001700:	4640      	mov	r0, r8
20001702:	60a8      	str	r0, [r5, #8]
20001704:	9802      	ldr	r0, [sp, #8]
20001706:	4440      	add	r0, r8
20001708:	1c07      	adds	r7, r0, #0
2000170a:	9803      	ldr	r0, [sp, #12]
2000170c:	4107      	asrs	r7, r0
2000170e:	45b9      	cmp	r9, r7
20001710:	db14      	blt.n	2000173c <FOC_Controller_LIB+0x508>
20001712:	69e8      	ldr	r0, [r5, #28]
20001714:	9004      	str	r0, [sp, #16]
20001716:	e789      	b.n	2000162c <FOC_Controller_LIB+0x3f8>
20001718:	4680      	mov	r8, r0
2000171a:	4640      	mov	r0, r8
2000171c:	6068      	str	r0, [r5, #4]
2000171e:	4541      	cmp	r1, r8
20001720:	d100      	bne.n	20001724 <FOC_Controller_LIB+0x4f0>
20001722:	e74d      	b.n	200015c0 <FOC_Controller_LIB+0x38c>
20001724:	e672      	b.n	2000140c <FOC_Controller_LIB+0x1d8>
20001726:	1c0e      	adds	r6, r1, #0
20001728:	606e      	str	r6, [r5, #4]
2000172a:	e680      	b.n	2000142e <FOC_Controller_LIB+0x1fa>
2000172c:	46c8      	mov	r8, r9
2000172e:	e7bd      	b.n	200016ac <FOC_Controller_LIB+0x478>
20001730:	1c04      	adds	r4, r0, #0
20001732:	606c      	str	r4, [r5, #4]
20001734:	42a6      	cmp	r6, r4
20001736:	d100      	bne.n	2000173a <FOC_Controller_LIB+0x506>
20001738:	e5ee      	b.n	20001318 <FOC_Controller_LIB+0xe4>
2000173a:	e78c      	b.n	20001656 <FOC_Controller_LIB+0x422>
2000173c:	4648      	mov	r0, r9
2000173e:	6068      	str	r0, [r5, #4]
20001740:	2701      	movs	r7, #1
20001742:	84af      	strh	r7, [r5, #36]	; 0x24
20001744:	e5b1      	b.n	200012aa <FOC_Controller_LIB+0x76>
20001746:	6b59      	ldr	r1, [r3, #52]	; 0x34
20001748:	6add      	ldr	r5, [r3, #44]	; 0x2c
2000174a:	0049      	lsls	r1, r1, #1
2000174c:	03ac      	lsls	r4, r5, #14
2000174e:	1869      	adds	r1, r5, r1
20001750:	4d07      	ldr	r5, [pc, #28]	; (20001770 <FOC_Controller_LIB+0x53c>)
20001752:	4a06      	ldr	r2, [pc, #24]	; (2000176c <FOC_Controller_LIB+0x538>)
20001754:	4369      	muls	r1, r5
20001756:	4693      	mov	fp, r2
20001758:	6812      	ldr	r2, [r2, #0]
2000175a:	6014      	str	r4, [r2, #0]
2000175c:	6051      	str	r1, [r2, #4]
2000175e:	e588      	b.n	20001272 <FOC_Controller_LIB+0x3e>
20001760:	4680      	mov	r8, r0
20001762:	e7cd      	b.n	20001700 <FOC_Controller_LIB+0x4cc>
20001764:	10009630 	.word	0x10009630
20001768:	000024f3 	.word	0x000024f3
2000176c:	10009628 	.word	0x10009628
20001770:	ffffdb0d 	.word	0xffffdb0d
20001774:	00000000 	.word	0x00000000

20001778 <__PMSM_FOC_Vf_RampUp_veneer>:
20001778:	b401      	push	{r0}
2000177a:	4802      	ldr	r0, [pc, #8]	; (20001784 <__PMSM_FOC_Vf_RampUp_veneer+0xc>)
2000177c:	4684      	mov	ip, r0
2000177e:	bc01      	pop	{r0}
20001780:	4760      	bx	ip
20001782:	bf00      	nop
20001784:	10002859 	.word	0x10002859

20001788 <____gnu_thumb1_case_uqi_veneer>:
20001788:	b401      	push	{r0}
2000178a:	4802      	ldr	r0, [pc, #8]	; (20001794 <____gnu_thumb1_case_uqi_veneer+0xc>)
2000178c:	4684      	mov	ip, r0
2000178e:	bc01      	pop	{r0}
20001790:	4760      	bx	ip
20001792:	bf00      	nop
20001794:	10003219 	.word	0x10003219

20001798 <__PMSM_FOC_Rotor_Pre_Positioning_veneer>:
20001798:	b401      	push	{r0}
2000179a:	4802      	ldr	r0, [pc, #8]	; (200017a4 <__PMSM_FOC_Rotor_Pre_Positioning_veneer+0xc>)
2000179c:	4684      	mov	ip, r0
2000179e:	bc01      	pop	{r0}
200017a0:	4760      	bx	ip
200017a2:	bf00      	nop
200017a4:	10002a1d 	.word	0x10002a1d

200017a8 <__PMSM_FOC_MotorStop_veneer>:
200017a8:	b401      	push	{r0}
200017aa:	4802      	ldr	r0, [pc, #8]	; (200017b4 <__PMSM_FOC_MotorStop_veneer+0xc>)
200017ac:	4684      	mov	ip, r0
200017ae:	bc01      	pop	{r0}
200017b0:	4760      	bx	ip
200017b2:	bf00      	nop
200017b4:	1000255f 	.word	0x1000255f

200017b8 <__XMC_CCU8_SLICE_SetOutPath_veneer>:
200017b8:	b401      	push	{r0}
200017ba:	4802      	ldr	r0, [pc, #8]	; (200017c4 <__XMC_CCU8_SLICE_SetOutPath_veneer+0xc>)
200017bc:	4684      	mov	ip, r0
200017be:	bc01      	pop	{r0}
200017c0:	4760      	bx	ip
200017c2:	bf00      	nop
200017c4:	1000144f 	.word	0x1000144f

200017c8 <__PWM_SVM_Stop_veneer>:
200017c8:	b401      	push	{r0}
200017ca:	4802      	ldr	r0, [pc, #8]	; (200017d4 <__PWM_SVM_Stop_veneer+0xc>)
200017cc:	4684      	mov	ip, r0
200017ce:	bc01      	pop	{r0}
200017d0:	4760      	bx	ip
200017d2:	bf00      	nop
200017d4:	10002271 	.word	0x10002271

200017d8 <__VF_Smooth_Transition_To_FOC_veneer>:
200017d8:	b401      	push	{r0}
200017da:	4802      	ldr	r0, [pc, #8]	; (200017e4 <__VF_Smooth_Transition_To_FOC_veneer+0xc>)
200017dc:	4684      	mov	ip, r0
200017de:	bc01      	pop	{r0}
200017e0:	4760      	bx	ip
200017e2:	bf00      	nop
200017e4:	100030e5 	.word	0x100030e5

200017e8 <__PMSM_FOC_StartPWMTimer_veneer>:
200017e8:	b401      	push	{r0}
200017ea:	4802      	ldr	r0, [pc, #8]	; (200017f4 <__PMSM_FOC_StartPWMTimer_veneer+0xc>)
200017ec:	4684      	mov	ip, r0
200017ee:	bc01      	pop	{r0}
200017f0:	4760      	bx	ip
200017f2:	bf00      	nop
200017f4:	10002601 	.word	0x10002601

200017f8 <__PWM_SVM_InverterEnable_veneer>:
200017f8:	b401      	push	{r0}
200017fa:	4802      	ldr	r0, [pc, #8]	; (20001804 <__PWM_SVM_InverterEnable_veneer+0xc>)
200017fc:	4684      	mov	ip, r0
200017fe:	bc01      	pop	{r0}
20001800:	4760      	bx	ip
20001802:	bf00      	nop
20001804:	10001ecf 	.word	0x10001ecf

20001808 <__PMSM_FOC_StopPWMTimer_veneer>:
20001808:	b401      	push	{r0}
2000180a:	4802      	ldr	r0, [pc, #8]	; (20001814 <__PMSM_FOC_StopPWMTimer_veneer+0xc>)
2000180c:	4684      	mov	ip, r0
2000180e:	bc01      	pop	{r0}
20001810:	4760      	bx	ip
20001812:	bf00      	nop
20001814:	10002665 	.word	0x10002665

20001818 <__PMSM_FOC_MotorParamInit_veneer>:
20001818:	b401      	push	{r0}
2000181a:	4802      	ldr	r0, [pc, #8]	; (20001824 <__PMSM_FOC_MotorParamInit_veneer+0xc>)
2000181c:	4684      	mov	ip, r0
2000181e:	bc01      	pop	{r0}
20001820:	4760      	bx	ip
20001822:	bf00      	nop
20001824:	100024b9 	.word	0x100024b9

20001828 <__PMSM_FOC_METTransition_veneer>:
20001828:	b401      	push	{r0}
2000182a:	4802      	ldr	r0, [pc, #8]	; (20001834 <__PMSM_FOC_METTransition_veneer+0xc>)
2000182c:	4684      	mov	ip, r0
2000182e:	bc01      	pop	{r0}
20001830:	4760      	bx	ip
20001832:	bf00      	nop
20001834:	100029db 	.word	0x100029db

20001838 <__PMSM_FOC_Vf_Open_Loop_veneer>:
20001838:	b401      	push	{r0}
2000183a:	4802      	ldr	r0, [pc, #8]	; (20001844 <__PMSM_FOC_Vf_Open_Loop_veneer+0xc>)
2000183c:	4684      	mov	ip, r0
2000183e:	bc01      	pop	{r0}
20001840:	4760      	bx	ip
20001842:	bf00      	nop
20001844:	1000277d 	.word	0x1000277d

20001848 <__PMSM_FOC_AmpBiasVoltCalibration_veneer>:
20001848:	b401      	push	{r0}
2000184a:	4802      	ldr	r0, [pc, #8]	; (20001854 <__PMSM_FOC_AmpBiasVoltCalibration_veneer+0xc>)
2000184c:	4684      	mov	ip, r0
2000184e:	bc01      	pop	{r0}
20001850:	4760      	bx	ip
20001852:	bf00      	nop
20001854:	10002587 	.word	0x10002587

20001858 <__PMSM_FOC_BootstrapConfiguration_veneer>:
20001858:	b401      	push	{r0}
2000185a:	4802      	ldr	r0, [pc, #8]	; (20001864 <__PMSM_FOC_BootstrapConfiguration_veneer+0xc>)
2000185c:	4684      	mov	ip, r0
2000185e:	bc01      	pop	{r0}
20001860:	4760      	bx	ip
20001862:	bf00      	nop
20001864:	10002679 	.word	0x10002679

20001868 <__PMSM_FOC_Bootstrap_veneer>:
20001868:	b401      	push	{r0}
2000186a:	4802      	ldr	r0, [pc, #8]	; (20001874 <__PMSM_FOC_Bootstrap_veneer+0xc>)
2000186c:	4684      	mov	ip, r0
2000186e:	bc01      	pop	{r0}
20001870:	4760      	bx	ip
20001872:	bf00      	nop
20001874:	100026c9 	.word	0x100026c9

20001878 <__PWM_SVM_Start_veneer>:
20001878:	b401      	push	{r0}
2000187a:	4802      	ldr	r0, [pc, #8]	; (20001884 <__PWM_SVM_Start_veneer+0xc>)
2000187c:	4684      	mov	ip, r0
2000187e:	bc01      	pop	{r0}
20001880:	4760      	bx	ip
20001882:	bf00      	nop
20001884:	1000212d 	.word	0x1000212d

20001888 <____gnu_thumb1_case_uhi_veneer>:
20001888:	b401      	push	{r0}
2000188a:	4802      	ldr	r0, [pc, #8]	; (20001894 <____gnu_thumb1_case_uhi_veneer+0xc>)
2000188c:	4684      	mov	ip, r0
2000188e:	bc01      	pop	{r0}
20001890:	4760      	bx	ip
20001892:	bf00      	nop
20001894:	1000322d 	.word	0x1000322d
